
nano_bmpwav.elf:     file format elf32-littlenios2
nano_bmpwav.elf
architecture: nios2, flags 0x00000112:
EXEC_P, HAS_SYMS, D_PAGED
start address 0x00000184

Program Header:
    LOAD off    0x00001020 vaddr 0x00000020 paddr 0x00000020 align 2**12
         filesz 0x000462dc memsz 0x00048cc8 flags rwx
    LOAD off    0x00048000 vaddr 0x0f000000 paddr 0x0f000000 align 2**12
         filesz 0x00000000 memsz 0x00000000 flags r-x

Sections:
Idx Name          Size      VMA       LMA       File off  Algn
  0 .entry        00000000  0f000000  0f000000  00048000  2**5
                  CONTENTS, ALLOC, LOAD, READONLY, CODE
  1 .exceptions   00000164  00000020  00000020  00001020  2**2
                  CONTENTS, ALLOC, LOAD, READONLY, CODE
  2 .text         000126d4  00000184  00000184  00001184  2**2
                  CONTENTS, ALLOC, LOAD, READONLY, CODE
  3 .rodata       00031f58  00012858  00012858  00013858  2**2
                  CONTENTS, ALLOC, LOAD, READONLY, DATA
  4 .rwdata       00001b4c  000447b0  000447b0  000457b0  2**2
                  CONTENTS, ALLOC, LOAD, DATA, SMALL_DATA
  5 .bss          000029ec  000462fc  000462fc  000472fc  2**2
                  ALLOC, SMALL_DATA
  6 .comment      00000026  00000000  00000000  00048000  2**0
                  CONTENTS, READONLY
  7 .debug_aranges 00000f30  00000000  00000000  00048028  2**3
                  CONTENTS, READONLY, DEBUGGING
  8 .debug_pubnames 00001c7a  00000000  00000000  00048f58  2**0
                  CONTENTS, READONLY, DEBUGGING
  9 .debug_info   0002a363  00000000  00000000  0004abd2  2**0
                  CONTENTS, READONLY, DEBUGGING
 10 .debug_abbrev 00009e3f  00000000  00000000  00074f35  2**0
                  CONTENTS, READONLY, DEBUGGING
 11 .debug_line   0001c31b  00000000  00000000  0007ed74  2**0
                  CONTENTS, READONLY, DEBUGGING
 12 .debug_frame  00002414  00000000  00000000  0009b090  2**2
                  CONTENTS, READONLY, DEBUGGING
 13 .debug_str    00003c60  00000000  00000000  0009d4a4  2**0
                  CONTENTS, READONLY, DEBUGGING
 14 .debug_loc    000138fe  00000000  00000000  000a1104  2**0
                  CONTENTS, READONLY, DEBUGGING
 15 .debug_alt_sim_info 00000050  00000000  00000000  000b4a04  2**2
                  CONTENTS, READONLY, DEBUGGING
 16 .debug_ranges 00000ea0  00000000  00000000  000b4a58  2**3
                  CONTENTS, READONLY, DEBUGGING
 17 .thread_model 00000003  00000000  00000000  000b9a9c  2**0
                  CONTENTS, READONLY
 18 .cpu          0000000e  00000000  00000000  000b9a9f  2**0
                  CONTENTS, READONLY
 19 .simulation_enabled 00000001  00000000  00000000  000b9aad  2**0
                  CONTENTS, READONLY
 20 .sysid_hash   00000004  00000000  00000000  000b9aae  2**0
                  CONTENTS, READONLY
 21 .sysid_base   00000004  00000000  00000000  000b9ab2  2**0
                  CONTENTS, READONLY
 22 .sysid_time   00000004  00000000  00000000  000b9ab6  2**0
                  CONTENTS, READONLY
 23 .stderr_dev   00000009  00000000  00000000  000b9aba  2**0
                  CONTENTS, READONLY
 24 .stdin_dev    00000009  00000000  00000000  000b9ac3  2**0
                  CONTENTS, READONLY
 25 .stdout_dev   00000009  00000000  00000000  000b9acc  2**0
                  CONTENTS, READONLY
 26 .sopc_system_name 00000009  00000000  00000000  000b9ad5  2**0
                  CONTENTS, READONLY
 27 .quartus_project_dir 00000021  00000000  00000000  000b9ade  2**0
                  CONTENTS, READONLY
 28 .jdi          0000498a  00000000  00000000  000b9aff  2**0
                  CONTENTS, READONLY
 29 .sopcinfo     0006f97d  00000000  00000000  000be489  2**0
                  CONTENTS, READONLY
SYMBOL TABLE:
0f000000 l    d  .entry	00000000 .entry
00000020 l    d  .exceptions	00000000 .exceptions
00000184 l    d  .text	00000000 .text
00012858 l    d  .rodata	00000000 .rodata
000447b0 l    d  .rwdata	00000000 .rwdata
000462fc l    d  .bss	00000000 .bss
00000000 l    d  .comment	00000000 .comment
00000000 l    d  .debug_aranges	00000000 .debug_aranges
00000000 l    d  .debug_pubnames	00000000 .debug_pubnames
00000000 l    d  .debug_info	00000000 .debug_info
00000000 l    d  .debug_abbrev	00000000 .debug_abbrev
00000000 l    d  .debug_line	00000000 .debug_line
00000000 l    d  .debug_frame	00000000 .debug_frame
00000000 l    d  .debug_str	00000000 .debug_str
00000000 l    d  .debug_loc	00000000 .debug_loc
00000000 l    d  .debug_alt_sim_info	00000000 .debug_alt_sim_info
00000000 l    d  .debug_ranges	00000000 .debug_ranges
000001c8 l       .text	00000000 alt_after_alt_main
00000000 l    df *ABS*	00000000 alt_irq_handler.c
00000000 l    df *ABS*	00000000 file_test.c
00000000 l    df *ABS*	00000000 loadbmp.c
00000000 l    df *ABS*	00000000 ff.c
00000724 l     F .text	00000028 mem_cpy
0000074c l     F .text	00000018 mem_set
00000764 l     F .text	0000002c chk_chr
0000091c l     F .text	00000038 sum_sfn
000462fc l     O .bss	00000004 FatFs
00000980 l     F .text	0000005c validate
000009dc l     F .text	000000f4 check_fs
00000ad0 l     F .text	00000564 chk_mounted
00046300 l     O .bss	00000002 Fsid
00001034 l     F .text	00000214 get_fileinfo
00001248 l     F .text	00000100 move_window
00001ba0 l     F .text	00000168 dir_sdi
00001d08 l     F .text	00000154 create_chain
00002440 l     F .text	000001e8 dir_next
00002628 l     F .text	000000c0 dir_remove
000026e8 l     F .text	000001ec dir_read
000129db l     O .rodata	0000000d LfnOfs
00046380 l     O .bss	00000200 LfnBuf
000029c8 l     F .text	00000250 dir_find
00002c18 l     F .text	00000568 follow_path
00003308 l     F .text	00000330 dir_register
00003638 l     F .text	000000cc remove_chain
00003854 l     F .text	00000118 sync
00000000 l    df *ABS*	00000000 mmcbb.c
000045b4 l     F .text	00000040 rcvr_mmc
000045f4 l     F .text	00000058 wait_ready
0000464c l     F .text	00000044 xmit_mmc
00004690 l     F .text	000000b0 xmit_datablock
00004740 l     F .text	00000040 rcvr_datablock
00004780 l     F .text	00000024 deselect
000047a4 l     F .text	0000003c select
000047e0 l     F .text	0000015c send_cmd
000462b8 l     O .rwdata	00000001 Stat
00046304 l     O .bss	00000001 CardType
00000000 l    df *ABS*	00000000 cc932.c
00012da8 l     O .rodata	00007378 sjis2uni
0001a120 l     O .rodata	00007378 uni2sjis
00012bc8 l     O .rodata	000001e0 tbl_lower.1537
000129e8 l     O .rodata	000001e0 tbl_upper.1538
00000000 l    df *ABS*	00000000 gettime.c
00000000 l    df *ABS*	00000000 mmc_spi.c
00046308 l     O .bss	00000004 mmc_spi_reg
0004630c l     O .bss	00000004 mmc_spi_ncs
00000000 l    df *ABS*	00000000 mmcfs.c
00048800 l     O .bss	00000230 dev_mmc_fatfsobj
00046310 l     O .bss	00000004 dev_mmcfs_fd_num
00046580 l     O .bss	00000040 dev_mmcfs_fd
000447b0 l     O .rwdata	00000028 dev_mmcfs_inst
000465c0 l     O .bss	00002240 dev_mmcfs_table
00000000 l    df *ABS*	00000000 fontx_k12x10.c
00000000 l    df *ABS*	00000000 fontx_k6x10.c
00000000 l    df *ABS*	00000000 nd_egl.c
00046314 l     O .bss	00000004 nd_color
00046318 l     O .bss	00000004 nd_bgcolor
0004631c l     O .bss	00000004 nd_pastel
00005ccc l     F .text	000000a8 nd_GsEglFontx_putkanji
00046324 l     O .bss	00000004 pFONTX_ascii_top
00046320 l     O .bss	00000004 pFONTX_kanji_top
00000000 l    df *ABS*	00000000 playwav.c
00046334 l     O .bss	00000004 g_dev_spu
00046348 l     O .bss	00000004 p_g_fwav
00046338 l     O .bss	00000004 p_g_wavbuff
0004633c l     O .bss	00000004 g_spu_streamoffs
00046340 l     O .bss	00000004 g_playsize
00046344 l     O .bss	00000004 g_wavsize
00000000 l    df *ABS*	00000000 fclose.c
00000000 l    df *ABS*	00000000 fflush.c
00000000 l    df *ABS*	00000000 findfp.c
00006bcc l     F .text	00000058 std
00006cd8 l     F .text	00000008 __fp_lock
00006ce0 l     F .text	00000008 __fp_unlock
00000000 l    df *ABS*	00000000 fopen.c
00000000 l    df *ABS*	00000000 fread.c
00000000 l    df *ABS*	00000000 mallocr.c
00000000 l    df *ABS*	00000000 fseek.c
00000000 l    df *ABS*	00000000 fstatr.c
00000000 l    df *ABS*	00000000 fwalk.c
00000000 l    df *ABS*	00000000 impure.c
000447d8 l     O .rwdata	00000400 impure_data
00000000 l    df *ABS*	00000000 int_errno.c
00000000 l    df *ABS*	00000000 makebuf.c
00000000 l    df *ABS*	00000000 mallocr.c
00000000 l    df *ABS*	00000000 memcpy.c
00000000 l    df *ABS*	00000000 memset.c
00000000 l    df *ABS*	00000000 openr.c
00000000 l    df *ABS*	00000000 printf.c
00000000 l    df *ABS*	00000000 puts.c
00000000 l    df *ABS*	00000000 refill.c
000089e0 l     F .text	0000001c lflush
00000000 l    df *ABS*	00000000 sbrkr.c
00000000 l    df *ABS*	00000000 stdio.c
00000000 l    df *ABS*	00000000 strlen.c
00000000 l    df *ABS*	00000000 vfprintf.c
00008c2c l     F .text	00000058 __sprint_r
000444ee l     O .rodata	00000010 blanks.3452
000444de l     O .rodata	00000010 zeroes.3453
00000000 l    df *ABS*	00000000 writer.c
00000000 l    df *ABS*	00000000 wsetup.c
00000000 l    df *ABS*	00000000 closer.c
00000000 l    df *ABS*	00000000 dtoa.c
0000ad78 l     F .text	00000218 quorem
00000000 l    df *ABS*	00000000 flags.c
00000000 l    df *ABS*	00000000 fvwrite.c
00000000 l    df *ABS*	00000000 isattyr.c
00000000 l    df *ABS*	00000000 locale.c
000462d0 l     O .rwdata	00000004 charset
0004451c l     O .rodata	00000030 lconv
00000000 l    df *ABS*	00000000 lseekr.c
00000000 l    df *ABS*	00000000 memchr.c
00000000 l    df *ABS*	00000000 memmove.c
00000000 l    df *ABS*	00000000 mprec.c
00044664 l     O .rodata	0000000c p05.2458
00000000 l    df *ABS*	00000000 readr.c
00000000 l    df *ABS*	00000000 mallocr.c
00000000 l    df *ABS*	00000000 s_isinfd.c
00000000 l    df *ABS*	00000000 s_isnand.c
00000000 l    df *ABS*	00000000 strcmp.c
00000000 l    df *ABS*	00000000 mallocr.c
00000000 l    df *ABS*	00000000 libgcc2.c
00000000 l    df *ABS*	00000000 libgcc2.c
00000000 l    df *ABS*	00000000 dp-bit.c
0000f1bc l     F .text	00000410 _fpadd_parts
00000000 l    df *ABS*	00000000 dp-bit.c
00000000 l    df *ABS*	00000000 dp-bit.c
00000000 l    df *ABS*	00000000 dp-bit.c
00000000 l    df *ABS*	00000000 dp-bit.c
00000000 l    df *ABS*	00000000 dp-bit.c
00000000 l    df *ABS*	00000000 dp-bit.c
00000000 l    df *ABS*	00000000 dp-bit.c
00000000 l    df *ABS*	00000000 dp-bit.c
00000000 l    df *ABS*	00000000 dp-bit.c
00000000 l    df *ABS*	00000000 dp-bit.c
00000000 l    df *ABS*	00000000 dp-bit.c
00000000 l    df *ABS*	00000000 lib2-divmod.c
000102e8 l     F .text	0000007c udivmodsi4
00000000 l    df *ABS*	00000000 libgcc2.c
00000000 l    df *ABS*	00000000 libgcc2.c
00000000 l    df *ABS*	00000000 libgcc2.c
00000000 l    df *ABS*	00000000 dp-bit.c
00000000 l    df *ABS*	00000000 dp-bit.c
00000000 l    df *ABS*	00000000 dp-bit.c
00000000 l    df *ABS*	00000000 alt_close.c
00000000 l    df *ABS*	00000000 alt_dev.c
00010b50 l     F .text	00000008 alt_dev_null_write
00000000 l    df *ABS*	00000000 alt_errno.c
00000000 l    df *ABS*	00000000 alt_fs_reg.c
00000000 l    df *ABS*	00000000 alt_fstat.c
00000000 l    df *ABS*	00000000 alt_isatty.c
00000000 l    df *ABS*	00000000 alt_lseek.c
00000000 l    df *ABS*	00000000 alt_main.c
00000000 l    df *ABS*	00000000 alt_malloc_lock.c
00000000 l    df *ABS*	00000000 alt_open.c
00000000 l    df *ABS*	00000000 alt_read.c
00000000 l    df *ABS*	00000000 alt_release_fd.c
00000000 l    df *ABS*	00000000 alt_sbrk.c
000462ec l     O .rwdata	00000004 heap_end
00000000 l    df *ABS*	00000000 alt_uncached_free.c
00000000 l    df *ABS*	00000000 alt_uncached_malloc.c
00000000 l    df *ABS*	00000000 alt_usleep.c
00000000 l    df *ABS*	00000000 alt_write.c
00000000 l    df *ABS*	00000000 alt_sys_init.c
00045194 l     O .rwdata	00001060 jtag_uart
000461f4 l     O .rwdata	000000c4 sysuart
00000000 l    df *ABS*	00000000 altera_avalon_jtag_uart_fd.c
00000000 l    df *ABS*	00000000 altera_avalon_jtag_uart_init.c
00011348 l     F .text	00000058 altera_avalon_jtag_uart_timeout
00011420 l     F .text	00000108 altera_avalon_jtag_uart_irq
00000000 l    df *ABS*	00000000 altera_avalon_jtag_uart_ioctl.c
00000000 l    df *ABS*	00000000 altera_avalon_jtag_uart_read.c
00000000 l    df *ABS*	00000000 altera_avalon_jtag_uart_write.c
00000000 l    df *ABS*	00000000 altera_avalon_timer_sc.c
000118e8 l     F .text	0000003c alt_avalon_timer_sc_irq
00000000 l    df *ABS*	00000000 altera_avalon_uart_fd.c
00000000 l    df *ABS*	00000000 altera_avalon_uart_init.c
0001197c l     F .text	00000144 altera_avalon_uart_irq
00000000 l    df *ABS*	00000000 altera_avalon_uart_read.c
00000000 l    df *ABS*	00000000 altera_avalon_uart_write.c
00000000 l    df *ABS*	00000000 alt_alarm_start.c
00000000 l    df *ABS*	00000000 alt_busy_sleep.c
00000000 l    df *ABS*	00000000 alt_dcache_flush.c
00000000 l    df *ABS*	00000000 alt_dev_llist_insert.c
00000000 l    df *ABS*	00000000 alt_do_ctors.c
00000000 l    df *ABS*	00000000 alt_do_dtors.c
00000000 l    df *ABS*	00000000 alt_find_dev.c
00000000 l    df *ABS*	00000000 alt_find_file.c
00000000 l    df *ABS*	00000000 alt_get_fd.c
00000000 l    df *ABS*	00000000 alt_iic.c
00000000 l    df *ABS*	00000000 alt_iic_isr_register.c
00000000 l    df *ABS*	00000000 alt_io_redirect.c
00012278 l     F .text	00000070 alt_open_fd
00000000 l    df *ABS*	00000000 alt_irq_vars.c
00000000 l    df *ABS*	00000000 alt_tick.c
00000000 l    df *ABS*	00000000 altera_nios2_irq.c
00000000 l    df *ABS*	00000000 atexit.c
00000000 l    df *ABS*	00000000 exit.c
00000000 l    df *ABS*	00000000 malloc.c
00000000 l    df *ABS*	00000000 memcmp.c
00000000 l    df *ABS*	00000000 __atexit.c
00000000 l    df *ABS*	00000000 __call_atexit.c
0001268c l     F .text	00000004 register_fini
00000000 l    df *ABS*	00000000 alt_exit.c
0000d1fc g     F .text	00000094 _mprec_log10
0000d2e8 g     F .text	00000088 __any_on
0000ca80 g     F .text	00000070 _isatty_r
0004463c g     O .rodata	00000028 __mprec_tinytens
00010d40 g     F .text	00000060 alt_main
000063a0 g     F .text	00000050 spu_stream_stop
00008768 g     F .text	000000a0 _puts_r
00048a58 g     O .bss	00000100 alt_irq
0000cbb4 g     F .text	00000078 _lseek_r
00001524 g     F .text	000001d8 get_fat
000053ac g     F .text	00000014 mmc_spi_SetCardSelect
0000c544 g     F .text	000000a0 __sflags
0000fcdc g     F .text	00000088 __eqdf2
00048ce8 g       *ABS*	00000000 __alt_heap_start
00006274 g     F .text	0000001c nd_GsVgaSetBuffer
000086f0 g     F .text	00000044 printf
00008a74 g     F .text	00000068 __sseek
00006c34 g     F .text	000000a4 __sinit
0000cb14 g     F .text	00000084 _setlocale_r
00006d34 g     F .text	00000068 __sfmoreglue
00010da4 g     F .text	00000004 __malloc_unlock
00006568 g     F .text	0000023c spu_stream_play
0000cd10 g     F .text	000000e0 memmove
0000552c g     F .text	00000074 dev_mmcfs_close
00006d24 g     F .text	00000010 _cleanup
0000d370 g     F .text	000000bc _Balloc
00006290 g     F .text	00000040 nd_GsEglPage
0000fdec g     F .text	00000088 __gtdf2
00000000  w      *UND*	00000000 __errno
0f000000 g     F .entry	00000000 __reset
0000545c g     F .text	00000070 dev_mmcfs_lseek
00007a78 g     F .text	00000074 _fstat_r
0004634c g     O .bss	00000004 errno
00005364 g     F .text	00000018 mmc_spi_SetCardDeselect
0004636c g     O .bss	00000004 alt_argv
0004e2b8 g       *ABS*	00000000 _gp
00011114 g     F .text	00000004 usleep
00005d74 g     F .text	00000140 nd_GsEglPutcharFont
000050d0 g     F .text	00000054 ff_wtoupper
00006304 g     F .text	00000020 nd_GsVgaVsync_isrdisable
00006130 g     F .text	0000005c nd_GsEglPuthex2
000110cc g     F .text	00000048 alt_uncached_malloc
00045014 g     O .rwdata	00000180 alt_fd_list
00011fb0 g     F .text	00000094 alt_find_dev
00008540 g     F .text	000000a0 memcpy
000051cc g     F .text	00000010 mmc_spi_SetIdentClock
00006d18 g     F .text	0000000c _cleanup_r
0000ff84 g     F .text	000000f8 __floatsidf
00010b58 g     F .text	00000038 alt_fs_reg
000122e8 g     F .text	0000008c alt_io_redirect
0000fefc g     F .text	00000088 __ltdf2
00012858 g       *ABS*	00000000 __DTOR_END__
0000513c g     F .text	00000018 mmc_spi_CheckCardDetect
00004e48 g     F .text	000001f8 disk_initialize
00008808 g     F .text	00000014 puts
00012468 g     F .text	00000008 altera_nios2_irq_init
0000d14c g     F .text	000000b0 __ratio
0000396c g     F .text	00000238 f_rename
000115b0 g     F .text	0000016c altera_avalon_jtag_uart_read
000124d0 g     F .text	00000014 malloc
00008734 g     F .text	00000034 _printf_r
00010424 g     F .text	00000008 __udivsi3
00010c20 g     F .text	00000084 isatty
0004454c g     O .rodata	000000c8 __mprec_tens
000063f0 g     F .text	00000178 spu_bufferfill
0000caf0 g     F .text	00000008 __locale_charset
000214a0 g     O .rodata	0002216a fontx_k12x10_fnt
00046350 g     O .bss	00000004 __malloc_top_pad
0000493c g     F .text	000000c4 disk_status
00003704 g     F .text	00000150 f_truncate
000462cc g     O .rwdata	00000004 __mb_cur_max
0000caf8 g     F .text	0000000c _localeconv_r
0000da68 g     F .text	0000003c __i2b
0000c5e4 g     F .text	0000049c __sfvwrite_r
000089fc g     F .text	00000070 _sbrk_r
00046328 g     O .bss	00000004 nd_GsVgaVsyncCount
0000dde4 g     F .text	00000078 _read_r
00011e74 g     F .text	00000028 alt_dcache_flush
00004a00 g     F .text	0000018c disk_ioctl
00044fe0 g     O .rwdata	0000000c __lc_ctype
000462e4 g     O .rwdata	00000004 alt_max_fd
00010860 g     F .text	00000138 __unpack_d
00006878 g     F .text	00000110 _fclose_r
00006b98 g     F .text	00000034 fflush
00046354 g     O .bss	00000004 __malloc_max_sbrked_mem
0000530c g     F .text	00000034 mmc_spi_Recvbyte
0000f64c g     F .text	00000074 __adddf3
00005eb4 g     F .text	00000098 nd_GsEglPutstrFont
000007bc g     F .text	00000160 gen_numname
0000d02c g     F .text	00000120 __b2d
000003e8 g     F .text	0000033c loadbmp
0000ec0c g     F .text	000005b0 __umoddi3
00010ca4 g     F .text	0000009c lseek
000462c0 g     O .rwdata	00000004 _global_impure_ptr
0000de5c g     F .text	000005f4 _realloc_r
00048ce8 g       *ABS*	00000000 __bss_end
000121f0 g     F .text	00000088 alt_iic_isr_register
000123a8 g     F .text	000000c0 alt_tick
00006064 g     F .text	000000cc nd_GsEglPutdec
0000e630 g     F .text	000005dc __udivdi3
00044614 g     O .rodata	00000028 __mprec_bigtens
0000dcc4 g     F .text	00000120 __s2b
00010154 g     F .text	00000194 __floatunsidf
0000cf4c g     F .text	00000060 __mcmp
00011ac0 g     F .text	00000040 altera_avalon_uart_init
00006d00 g     F .text	00000018 __fp_lock_all
00003d40 g     F .text	00000174 f_unlink
00012154 g     F .text	00000018 alt_ic_irq_enabled
00006324 g     F .text	00000024 nd_GsVgaInit
00005f4c g     F .text	0000000c nd_GsEglSetFont
00012374 g     F .text	00000034 alt_alarm_stop
0004632c g     O .bss	00000004 nd_GsEglDrawBuffer
00046374 g     O .bss	00000004 alt_irq_active
000000ec g     F .exceptions	00000098 alt_irq_handler
00044fec g     O .rwdata	00000028 alt_dev_null
000056c8 g     F .text	00000010 nd_GsEglColor
0000ce18 g     F .text	00000070 __hi0bits
000062d0 g     F .text	0000001c nd_GsVgaScanOff
0001007c g     F .text	000000d8 __fixdfsi
000055a0 g     F .text	00000128 dev_mmcfs_open
000462dc g     O .rwdata	00000008 alt_dev_list
00011118 g     F .text	00000118 write
00010b90 g     F .text	00000090 fstat
000062ec g     F .text	00000018 nd_GsVgaScanOn
0000dba4 g     F .text	00000120 __pow5mult
0004635c g     O .bss	00000004 __nlocale_changed
0001042c g     F .text	00000008 __umodsi3
00048ce8 g       *ABS*	00000000 end
00011c40 g     F .text	00000138 altera_avalon_uart_write
00007a54 g     F .text	00000024 fseek
000113a0 g     F .text	00000080 altera_avalon_jtag_uart_init
00012854 g       *ABS*	00000000 __CTOR_LIST__
02000000 g       *ABS*	00000000 __alt_stack_pointer
00011898 g     F .text	00000050 alt_avalon_timer_sc_init
00011934 g     F .text	00000010 altera_avalon_uart_write_fd
000104cc g     F .text	00000080 __clzsi2
00011924 g     F .text	00000010 altera_avalon_uart_close_fd
0001171c g     F .text	0000017c altera_avalon_jtag_uart_write
00006c24 g     F .text	00000004 __sfp_lock_acquire
0000cc2c g     F .text	000000e4 memchr
00008c84 g     F .text	00001eac ___vfprintf_internal_r
00007304 g     F .text	00000314 _free_r
00012690 g     F .text	000001b0 __call_exitprocs
00046360 g     O .bss	00000004 __mlocale_changed
000042c0 g     F .text	0000002c f_close
000462c8 g     O .rwdata	00000004 __malloc_sbrk_base
00000184 g     F .text	00000048 _start
00046378 g     O .bss	00000004 _alt_tick_rate
00006368 g     F .text	00000038 nd_GsVgaVsync_isr
0000d734 g     F .text	0000014c __lshift
0004637c g     O .bss	00000004 _alt_nticks
00010f28 g     F .text	0000011c read
00011250 g     F .text	00000088 alt_sys_init
00008678 g     F .text	00000078 _open_r
00012558 g     F .text	00000134 __register_exitproc
000018ec g     F .text	000002b4 f_read
0000618c g     F .text	00000070 nd_GsEglPuthex8
0000d880 g     F .text	000001e8 __multiply
000028d4 g     F .text	000000f4 f_readdir
00011314 g     F .text	00000034 altera_avalon_jtag_uart_close
00048a30 g     O .bss	00000028 __malloc_current_mallinfo
0000d42c g     F .text	0000017c __d2b
00044020 g     O .rodata	00000400 nd_GsEglRomFont
00003c70 g     F .text	000000d0 f_chmod
00011304 g     F .text	00000010 altera_avalon_jtag_uart_read_fd
000120f4 g     F .text	00000060 alt_get_fd
00011e0c g     F .text	00000068 alt_busy_sleep
00010998 g     F .text	000000c8 __fpcmp_parts_d
0000ad08 g     F .text	00000070 _close_r
00006008 g     F .text	0000005c nd_GsEglPutstr
000124e4 g     F .text	00000074 memcmp
000112e4 g     F .text	00000010 altera_avalon_jtag_uart_close_fd
00048ce8 g       *ABS*	00000000 __alt_stack_base
000112d8 g     F .text	0000000c altera_avalon_jtag_uart_ioctl_fd
0000abcc g     F .text	0000013c __swsetup_r
0000512c g     F .text	00000010 mmc_spi_CheckTimer
0000fa84 g     F .text	00000258 __divdf3
00006d9c g     F .text	000000f0 __sfp
0000d290 g     F .text	00000058 __copybits
00044bd8 g     O .rwdata	00000408 __malloc_av_
00006c30 g     F .text	00000004 __sinit_lock_release
0000f6c0 g     F .text	000003c4 __muldf3
00008b58 g     F .text	00000060 __sread
00005124 g     F .text	00000008 get_fattime
00007198 g     F .text	00000040 fread
00012044 g     F .text	000000b0 alt_find_file
00011e9c g     F .text	0000007c alt_dev_llist_insert
00010da0 g     F .text	00000004 __malloc_lock
00011068 g     F .text	00000054 sbrk
0000699c g     F .text	000001fc _fflush_r
0000e57c g     F .text	000000b4 _calloc_r
000001cc g     F .text	00000004 nd_halt
00006f80 g     F .text	0000001c fopen
000462fc g       *ABS*	00000000 __bss_start
000085e0 g     F .text	00000098 memset
000001d0 g     F .text	00000218 main
00046370 g     O .bss	00000004 alt_envp
00046358 g     O .bss	00000004 __malloc_max_total_mem
000112f4 g     F .text	00000010 altera_avalon_jtag_uart_write_fd
0000417c g     F .text	00000144 f_sync
00006f9c g     F .text	000001fc _fread_r
00008a6c g     F .text	00000008 __sclose
02000000 g       *ABS*	00000000 __alt_heap_limit
00006988 g     F .text	00000014 fclose
00048b58 g     O .bss	00000190 _atexit0
0000af90 g     F .text	000015b4 _dtoa_r
00007e00 g     F .text	00000740 _malloc_r
000462e8 g     O .rwdata	00000004 alt_errno
00000954 g     F .text	0000002c f_mount
00007bb4 g     F .text	000000b8 _fwalk
00003230 g     F .text	000000d8 f_opendir
00010364 g     F .text	00000060 __divsi3
0000537c g     F .text	00000030 mmc_spi_InitSocket
00044670 g     O .rodata	00000014 __thenan_df
000071d8 g     F .text	0000012c _malloc_trim_r
000054cc g     F .text	00000030 dev_mmcfs_write
00005188 g     F .text	00000020 mmc_spi_Wait100us
00012858 g       *ABS*	00000000 __CTOR_END__
0000e4c0 g     F .text	000000bc strcmp
00005928 g     F .text	000001b8 nd_GsEglCircle
00012858 g       *ABS*	00000000 __DTOR_LIST__
00005f58 g     F .text	000000b0 nd_GsEglPutchar
00001348 g     F .text	000001dc put_fat
0000fd64 g     F .text	00000088 __nedf2
00006348 g     F .text	00000020 nd_GsVgaVsync_isrenable
00011230 g     F .text	00000020 alt_irq_init
00011044 g     F .text	00000024 alt_release_fd
00001e5c g     F .text	000002c8 f_lseek
00044684 g     O .rodata	00000100 __clz_tab
00046364 g     O .bss	00000004 _PathLocale
00012470 g     F .text	00000014 atexit
0000ab54 g     F .text	00000078 _write_r
0000cb98 g     F .text	0000001c setlocale
0004360c g     O .rodata	00000a11 fontx_k6x10_fnt
00005340 g     F .text	00000024 mmc_spi_Sendbyte
000462bc g     O .rwdata	00000004 _impure_ptr
00046368 g     O .bss	00000004 alt_argc
00011f64 g     F .text	0000004c _do_dtors
000061fc g     F .text	0000002c nd_GsVgaVsync_getcount
00007618 g     F .text	0000043c _fseek_r
0000881c g     F .text	000001c4 __srefill_r
00000020 g       .exceptions	00000000 alt_irq_entry
0000cfac g     F .text	00000080 __ulp
0000e450 g     F .text	00000040 __isinfd
00003180 g     F .text	000000b0 f_stat
00006ce8 g     F .text	00000018 __fp_unlock_all
000462d4 g     O .rwdata	00000008 alt_fs_list
0000cb04 g     F .text	00000010 localeconv
00000790 g     F .text	0000002c clust2sect
00005ae0 g     F .text	0000015c nd_GsEglLine
000067a4 g     F .text	000000d4 spu_init
000121ec g     F .text	00000004 alt_ic_isr_register
000462fc g       *ABS*	00000000 _edata
00003ba4 g     F .text	000000cc f_utime
00011944 g     F .text	00000010 altera_avalon_uart_read_fd
00048ce8 g       *ABS*	00000000 _end
00002124 g     F .text	0000031c f_write
00011528 g     F .text	00000088 altera_avalon_jtag_uart_ioctl
000051dc g     F .text	00000130 mmc_spi_DmaRecv
000121ac g     F .text	00000040 alt_ic_irq_disable
00008adc g     F .text	0000007c __swrite
000462c4 g     O .rwdata	00000004 __malloc_trim_threshold
000042ec g     F .text	000002c8 f_open
00004b8c g     F .text	00000180 disk_write
00012484 g     F .text	00000038 exit
00007aec g     F .text	000000c8 _fwalk_reent
0000d5a8 g     F .text	0000018c __mdiff
00006248 g     F .text	0000002c nd_GsVgaVsync_setcount
000056d8 g     F .text	000000cc nd_GsEglPset
000103c4 g     F .text	00000060 __modsi3
02000000 g       *ABS*	00000000 __alt_data_end
00000020 g     F .exceptions	00000000 alt_exception
00006c28 g     F .text	00000004 __sfp_lock_release
00000000 g       *ABS*	00000000 __alt_mem_sdram
000054fc g     F .text	00000030 dev_mmcfs_read
000053f0 g     F .text	0000006c mmcfs_setup
00003eb4 g     F .text	000002c8 f_mkdir
00011954 g     F .text	00000028 altera_avalon_uart_close
00006e8c g     F .text	000000f4 _fopen_r
00012840 g     F .text	00000014 _exit
0000e490 g     F .text	00000030 __isnand
00011d78 g     F .text	00000094 alt_alarm_start
0f000000 g       *ABS*	00000000 __alt_mem_ipl_memory
00010434 g     F .text	00000098 __muldi3
00007c6c g     F .text	00000194 __smakebuf_r
00008bb8 g     F .text	00000074 strlen
00004d0c g     F .text	0000013c disk_read
00010da8 g     F .text	00000180 open
0000fe74 g     F .text	00000088 __gedf2
000110bc g     F .text	00000010 alt_uncached_free
000016fc g     F .text	000001f0 f_getfree
00005040 g     F .text	00000090 ff_convert
00005154 g     F .text	00000034 mmc_spi_CheckWritePortect
000462f0 g     O .rwdata	00000004 alt_priority_mask
00005c3c g     F .text	00000090 nd_GsEglBox
0001216c g     F .text	00000040 alt_ic_irq_enable
0000ab30 g     F .text	00000024 __vfprintf_internal
00006228 g     F .text	00000020 nd_GsVgaWaitVsync
00011b00 g     F .text	00000140 altera_avalon_uart_read
000051bc g     F .text	00000010 mmc_spi_SetTransClock
000053c0 g     F .text	00000030 dev_mmcfs_fstat
0000f5cc g     F .text	00000080 __subdf3
000051a8 g     F .text	00000014 mmc_spi_SetTimer
0000ce88 g     F .text	000000c4 __lo0bits
000057a4 g     F .text	00000184 nd_GsEglBoxfill
000462f4 g     O .rwdata	00000008 alt_alarm_list
00011f18 g     F .text	0000004c _do_ctors
00046330 g     O .bss	00000004 nd_GsVgaVsyncFlag
00010a60 g     F .text	000000f0 close
0001054c g     F .text	00000314 __pack_d
000124bc g     F .text	00000014 free
00006c2c g     F .text	00000004 __sinit_lock_acquire
0000daa4 g     F .text	00000100 __multadd
0000cdf0 g     F .text	00000028 _Bfree



Disassembly of section .exceptions:

00000020 <alt_exception>:
         * Process an exception.  For all exceptions we must preserve all
         * caller saved registers on the stack (See the Nios2 ABI
         * documentation for details).
         */

        addi  sp, sp, -76
  20:	deffed04 	addi	sp,sp,-76

#endif

#endif

        stw   ra,  0(sp)
  24:	dfc00015 	stw	ra,0(sp)
        /*
         * Leave a gap in the stack frame at 4(sp) for the muldiv handler to
         * store zero into.
         */

        stw   r1,   8(sp)
  28:	d8400215 	stw	at,8(sp)
        stw   r2,  12(sp)
  2c:	d8800315 	stw	r2,12(sp)
        stw   r3,  16(sp)
  30:	d8c00415 	stw	r3,16(sp)
        stw   r4,  20(sp)
  34:	d9000515 	stw	r4,20(sp)
        stw   r5,  24(sp)
  38:	d9400615 	stw	r5,24(sp)
        stw   r6,  28(sp)
  3c:	d9800715 	stw	r6,28(sp)
        stw   r7,  32(sp)
  40:	d9c00815 	stw	r7,32(sp)

        rdctl r5, estatus
  44:	000b307a 	rdctl	r5,estatus

        stw   r8,  36(sp)
  48:	da000915 	stw	r8,36(sp)
        stw   r9,  40(sp)
  4c:	da400a15 	stw	r9,40(sp)
        stw   r10, 44(sp)
  50:	da800b15 	stw	r10,44(sp)
        stw   r11, 48(sp)
  54:	dac00c15 	stw	r11,48(sp)
        stw   r12, 52(sp)
  58:	db000d15 	stw	r12,52(sp)
        stw   r13, 56(sp)
  5c:	db400e15 	stw	r13,56(sp)
        stw   r14, 60(sp)
  60:	db800f15 	stw	r14,60(sp)
        stw   r15, 64(sp)
  64:	dbc01015 	stw	r15,64(sp)
        /*
         * ea-4 contains the address of the instruction being executed
         * when the exception occured. For interrupt exceptions, we will
         * will be re-issue the isntruction. Store it in 72(sp)
         */
        stw   r5,  68(sp)  /* estatus */
  68:	d9401115 	stw	r5,68(sp)
        addi  r15, ea, -4  /* instruction that caused exception */
  6c:	ebffff04 	addi	r15,ea,-4
        stw   r15,  72(sp)
  70:	dbc01215 	stw	r15,72(sp)
#else
        /*
         * Test to see if the exception was a software exception or caused 
         * by an external interrupt, and vector accordingly.
         */
        rdctl r4, ipending
  74:	0009313a 	rdctl	r4,ipending
        andi  r2, r5, 1
  78:	2880004c 	andi	r2,r5,1
        beq   r2, zero, .Lnot_irq
  7c:	10000326 	beq	r2,zero,8c <alt_exception+0x6c>
        beq   r4, zero, .Lnot_irq
  80:	20000226 	beq	r4,zero,8c <alt_exception+0x6c>
        /*
         * Now that all necessary registers have been preserved, call 
         * alt_irq_handler() to process the interrupts.
         */

        call alt_irq_handler
  84:	00000ec0 	call	ec <alt_irq_handler>

        .section .exceptions.irqreturn, "xa"

        br    .Lexception_exit
  88:	00000306 	br	98 <alt_exception+0x78>
         * upon completion, so we write ea (address of instruction *after*
         * the one where the exception occured) into 72(sp). The actual
         * instruction that caused the exception is written in r2, which these
         * handlers will utilize.
         */
        stw   ea,  72(sp)  /* Don't re-issue */
  8c:	df401215 	stw	ea,72(sp)
        ldw   r2, -4(ea)   /* Instruction that caused exception */
  90:	e8bfff17 	ldw	r2,-4(ea)
#ifdef NIOS2_HAS_DEBUG_STUB
       /*
        *  Either tell the user now (if there is a debugger attached) or go into
        *  the debug monitor which will loop until a debugger is attached.
        */
        break
  94:	003da03a 	break	0
        /* 
         * Restore the saved registers, so that all general purpose registers 
         * have been restored to their state at the time the interrupt occured.
         */

        ldw   r5,  68(sp)
  98:	d9401117 	ldw	r5,68(sp)
        ldw   ea,  72(sp)  /* This becomes the PC once eret is executed */
  9c:	df401217 	ldw	ea,72(sp)
        ldw   ra,   0(sp)
  a0:	dfc00017 	ldw	ra,0(sp)

        wrctl estatus, r5
  a4:	2801707a 	wrctl	estatus,r5

        ldw   r1,   8(sp)
  a8:	d8400217 	ldw	at,8(sp)
        ldw   r2,  12(sp)
  ac:	d8800317 	ldw	r2,12(sp)
        ldw   r3,  16(sp)
  b0:	d8c00417 	ldw	r3,16(sp)
        ldw   r4,  20(sp)
  b4:	d9000517 	ldw	r4,20(sp)
        ldw   r5,  24(sp)
  b8:	d9400617 	ldw	r5,24(sp)
        ldw   r6,  28(sp)
  bc:	d9800717 	ldw	r6,28(sp)
        ldw   r7,  32(sp)
  c0:	d9c00817 	ldw	r7,32(sp)
#ifdef ALT_STACK_CHECK
        ldw   et, %gprel(alt_exception_old_stack_limit)(gp)
#endif
#endif

        ldw   r8,  36(sp)
  c4:	da000917 	ldw	r8,36(sp)
        ldw   r9,  40(sp)
  c8:	da400a17 	ldw	r9,40(sp)
        ldw   r10, 44(sp)
  cc:	da800b17 	ldw	r10,44(sp)
        ldw   r11, 48(sp)
  d0:	dac00c17 	ldw	r11,48(sp)
        ldw   r12, 52(sp)
  d4:	db000d17 	ldw	r12,52(sp)
        ldw   r13, 56(sp)
  d8:	db400e17 	ldw	r13,56(sp)
        ldw   r14, 60(sp)
  dc:	db800f17 	ldw	r14,60(sp)
        ldw   r15, 64(sp)
  e0:	dbc01017 	ldw	r15,64(sp)
#endif

        ldw   sp,  76(sp)

#else
        addi  sp, sp, 76
  e4:	dec01304 	addi	sp,sp,76

        /*
         * Return to the interrupted instruction.
         */

        eret
  e8:	ef80083a 	eret

000000ec <alt_irq_handler>:
 * instruction is present if the macro ALT_CI_INTERRUPT_VECTOR defined.
 */

void alt_irq_handler (void) __attribute__ ((section (".exceptions")));
void alt_irq_handler (void)
{
  ec:	defffe04 	addi	sp,sp,-8
  f0:	dfc00115 	stw	ra,4(sp)
  f4:	dc000015 	stw	r16,0(sp)
#ifndef NIOS2_EIC_PRESENT
static ALT_INLINE alt_u32 ALT_ALWAYS_INLINE alt_irq_pending (void)
{
  alt_u32 active;

  NIOS2_READ_IPENDING (active);
  f8:	000b313a 	rdctl	r5,ipending
     * called to clear the interrupt condition.
     */

    do
    {
      if (active & mask)
  fc:	2880004c 	andi	r2,r5,1
 100:	1005003a 	cmpeq	r2,r2,zero
 104:	04000174 	movhi	r16,5
 108:	84229604 	addi	r16,r16,-30120
 10c:	10001126 	beq	r2,zero,154 <alt_irq_handler+0x68>
 110:	00c00044 	movi	r3,1
 114:	0009883a 	mov	r4,zero
#else
        alt_irq[i].handler(alt_irq[i].context, i); 
#endif
        break;
      }
      mask <<= 1;
 118:	18c7883a 	add	r3,r3,r3
     * called to clear the interrupt condition.
     */

    do
    {
      if (active & mask)
 11c:	28c4703a 	and	r2,r5,r3
        alt_irq[i].handler(alt_irq[i].context, i); 
#endif
        break;
      }
      mask <<= 1;
      i++;
 120:	21000044 	addi	r4,r4,1
     * called to clear the interrupt condition.
     */

    do
    {
      if (active & mask)
 124:	103ffc26 	beq	r2,zero,118 <alt_irq_handler+0x2c>
      { 
#ifdef ALT_ENHANCED_INTERRUPT_API_PRESENT
        alt_irq[i].handler(alt_irq[i].context); 
 128:	200490fa 	slli	r2,r4,3
 12c:	1405883a 	add	r2,r2,r16
 130:	11000117 	ldw	r4,4(r2)
 134:	10c00017 	ldw	r3,0(r2)
 138:	183ee83a 	callr	r3
 13c:	0005313a 	rdctl	r2,ipending

    } while (1);

    active = alt_irq_pending ();
    
  } while (active);
 140:	10000c26 	beq	r2,zero,174 <alt_irq_handler+0x88>
 144:	100b883a 	mov	r5,r2
     * called to clear the interrupt condition.
     */

    do
    {
      if (active & mask)
 148:	2880004c 	andi	r2,r5,1
 14c:	1005003a 	cmpeq	r2,r2,zero
 150:	103fef1e 	bne	r2,zero,110 <alt_irq_handler+0x24>
 154:	0009883a 	mov	r4,zero
      { 
#ifdef ALT_ENHANCED_INTERRUPT_API_PRESENT
        alt_irq[i].handler(alt_irq[i].context); 
 158:	200490fa 	slli	r2,r4,3
 15c:	1405883a 	add	r2,r2,r16
 160:	11000117 	ldw	r4,4(r2)
 164:	10c00017 	ldw	r3,0(r2)
 168:	183ee83a 	callr	r3
 16c:	0005313a 	rdctl	r2,ipending

    } while (1);

    active = alt_irq_pending ();
    
  } while (active);
 170:	103ff41e 	bne	r2,zero,144 <alt_irq_handler+0x58>
  /*
   * Notify the operating system that interrupt processing is complete.
   */ 

  ALT_OS_INT_EXIT();
}
 174:	dfc00117 	ldw	ra,4(sp)
 178:	dc000017 	ldw	r16,0(sp)
 17c:	dec00204 	addi	sp,sp,8
 180:	f800283a 	ret

Disassembly of section .text:

00000184 <_start>:

    /* Assume the data cache size is always a power of two. */
#if NIOS2_DCACHE_SIZE > 0x8000
    movhi r2, %hi(NIOS2_DCACHE_SIZE)
#else
    movui r2, NIOS2_DCACHE_SIZE
     184:	00880014 	movui	r2,8192
#endif

0:
    initd 0(r2)
     188:	10000033 	initd	0(r2)
    addi r2, r2, -NIOS2_DCACHE_LINE_SIZE
     18c:	10bff804 	addi	r2,r2,-32
    bgt r2, zero, 0b
     190:	00bffd16 	blt	zero,r2,188 <_start+0x4>
#if (NIOS2_NUM_OF_SHADOW_REG_SETS == 0)    
    /*
     * Now that the caches are initialized, set up the stack pointer.
     * The value provided by the linker is assumed to be correctly aligned.
     */
    movhi sp, %hi(__alt_stack_pointer)
     194:	06c08034 	movhi	sp,512
    ori sp, sp, %lo(__alt_stack_pointer)
     198:	dec00014 	ori	sp,sp,0

    /* Set up the global pointer. */
    movhi gp, %hi(_gp)
     19c:	06800134 	movhi	gp,4
    ori gp, gp, %lo(_gp)
     1a0:	d6b8ae14 	ori	gp,gp,58040
 */
#ifndef ALT_SIM_OPTIMIZE
    /* Log that the BSS is about to be cleared. */
    ALT_LOG_PUTS(alt_log_msg_bss)

    movhi r2, %hi(__bss_start)
     1a4:	00800134 	movhi	r2,4
    ori r2, r2, %lo(__bss_start)
     1a8:	1098bf14 	ori	r2,r2,25340

    movhi r3, %hi(__bss_end)
     1ac:	00c00134 	movhi	r3,4
    ori r3, r3, %lo(__bss_end)
     1b0:	18e33a14 	ori	r3,r3,36072

    beq r2, r3, 1f
     1b4:	10c00326 	beq	r2,r3,1c4 <_start+0x40>

0:
    stw zero, (r2)
     1b8:	10000015 	stw	zero,0(r2)
    addi r2, r2, 4
     1bc:	10800104 	addi	r2,r2,4
    bltu r2, r3, 0b
     1c0:	10fffd36 	bltu	r2,r3,1b8 <_start+0x34>

    /* Log that alt_main is about to be called. */
    ALT_LOG_PUTS(alt_log_msg_alt_main)

    /* Call the C entry point. It should never return. */
    call alt_main
     1c4:	0010d400 	call	10d40 <alt_main>

000001c8 <alt_after_alt_main>:

    /* Wait in infinite loop in case alt_main does return. */
alt_after_alt_main:
    br alt_after_alt_main
     1c8:	003fff06 	br	1c8 <alt_after_alt_main>

000001cc <nd_halt>:

int loadbmp(const char *bmpname, alt_u16 *pFrameBuffer);


void nd_halt(void)
{
     1cc:	003fff06 	br	1cc <nd_halt>

000001d0 <main>:
	while(1) {}
}


int main(void)
{
     1d0:	defffb04 	addi	sp,sp,-20
     1d4:	dfc00415 	stw	ra,16(sp)
     1d8:	dcc00315 	stw	r19,12(sp)
     1dc:	dc800215 	stw	r18,8(sp)
     1e0:	dc400115 	stw	r17,4(sp)
     1e4:	dc000015 	stw	r16,0(sp)
	int i,c;
	alt_u16 *pFrameBuffer;

	// システム初期化 

	nd_GsVgaInit();
     1e8:	00063240 	call	6324 <nd_GsVgaInit>

	i = mmcfs_setup();
     1ec:	00053f00 	call	53f0 <mmcfs_setup>
	printf("mmcfs_setup value = %d\n",i);
     1f0:	01000074 	movhi	r4,1
     1f4:	210a1604 	addi	r4,r4,10328
     1f8:	100b883a 	mov	r5,r2
     1fc:	00086f00 	call	86f0 <printf>

	if ( spu_init(SPU_BASE) ) {
     200:	01040034 	movhi	r4,4096
     204:	21040004 	addi	r4,r4,4096
     208:	00067a40 	call	67a4 <spu_init>
     20c:	10006e1e 	bne	r2,zero,3c8 <main+0x1f8>
		printf("[!] SPU not assignment.\n");
     210:	0021883a 	mov	r16,zero
     214:	0023883a 	mov	r17,zero
     218:	04c40034 	movhi	r19,4096
     21c:	9cc08004 	addi	r19,r19,512
     220:	04800284 	movi	r18,10
	}

	for(i=0,c=0 ; i<10 ; i++) {
		c = (c << 1) | 1;
     224:	8405883a 	add	r2,r16,r16
     228:	14000054 	ori	r16,r2,1
		IOWR(LED_BASE, 0, c);
     22c:	9c000035 	stwio	r16,0(r19)

	if ( spu_init(SPU_BASE) ) {
		printf("[!] SPU not assignment.\n");
	}

	for(i=0,c=0 ; i<10 ; i++) {
     230:	8c400044 	addi	r17,r17,1
		c = (c << 1) | 1;
		IOWR(LED_BASE, 0, c);
		usleep(200000);
     234:	010000f4 	movhi	r4,3
     238:	21035004 	addi	r4,r4,3392
     23c:	00111140 	call	11114 <usleep>

	if ( spu_init(SPU_BASE) ) {
		printf("[!] SPU not assignment.\n");
	}

	for(i=0,c=0 ; i<10 ; i++) {
     240:	8cbff81e 	bne	r17,r18,224 <main+0x54>
	}


	// 画像を展開 

	pFrameBuffer = (alt_u16 *)alt_uncached_malloc(na_VRAM_size);
     244:	01000634 	movhi	r4,24
     248:	00110cc0 	call	110cc <alt_uncached_malloc>
     24c:	1021883a 	mov	r16,r2
	if (pFrameBuffer != NULL) {
     250:	10006126 	beq	r2,zero,3d8 <main+0x208>
		printf("Framebuffer assignment = 0x%08X\r\n",(unsigned int)pFrameBuffer);
     254:	100b883a 	mov	r5,r2
     258:	01000074 	movhi	r4,1
     25c:	210a2204 	addi	r4,r4,10376
     260:	00086f00 	call	86f0 <printf>

		nd_GsVgaSetBuffer((nd_u32)pFrameBuffer);
     264:	8009883a 	mov	r4,r16
     268:	00062740 	call	6274 <nd_GsVgaSetBuffer>
        nd_GsEglPage((nd_u32)pFrameBuffer,(nd_u32)pFrameBuffer,0);
     26c:	800b883a 	mov	r5,r16
     270:	8009883a 	mov	r4,r16
     274:	000d883a 	mov	r6,zero
     278:	00062900 	call	6290 <nd_GsEglPage>

		nd_GsVgaScanOn();
     27c:	00062ec0 	call	62ec <nd_GsVgaScanOn>

		nd_color(nd_COLORGRAY, 0, 256);
     280:	01108404 	movi	r4,16912
     284:	000b883a 	mov	r5,zero
     288:	01804004 	movi	r6,256
     28c:	00056c80 	call	56c8 <nd_GsEglColor>
		nd_boxfill(0, 0, window_xmax, window_ymax);
     290:	01c0bfc4 	movi	r7,767
     294:	0009883a 	mov	r4,zero
     298:	000b883a 	mov	r5,zero
     29c:	0180ffc4 	movi	r6,1023
     2a0:	00057a40 	call	57a4 <nd_GsEglBoxfill>

        nd_color(nd_COLORWHITE, 0, 256);
     2a4:	011fffc4 	movi	r4,32767
     2a8:	000b883a 	mov	r5,zero
     2ac:	01804004 	movi	r6,256
     2b0:	00056c80 	call	56c8 <nd_GsEglColor>
		nd_line(0,0, 0,479);
     2b4:	01c077c4 	movi	r7,479
     2b8:	0009883a 	mov	r4,zero
     2bc:	000b883a 	mov	r5,zero
     2c0:	000d883a 	mov	r6,zero
     2c4:	0005ae00 	call	5ae0 <nd_GsEglLine>
        nd_color(nd_COLORRED, 0, 256);
     2c8:	011f0004 	movi	r4,31744
     2cc:	000b883a 	mov	r5,zero
     2d0:	01804004 	movi	r6,256
     2d4:	00056c80 	call	56c8 <nd_GsEglColor>
		nd_line(639,0, 639,479);
     2d8:	01009fc4 	movi	r4,639
     2dc:	200d883a 	mov	r6,r4
     2e0:	01c077c4 	movi	r7,479
     2e4:	000b883a 	mov	r5,zero
     2e8:	0005ae00 	call	5ae0 <nd_GsEglLine>
        nd_color(nd_COLORLIGHTGREEN, 0, 256);
     2ec:	0100f804 	movi	r4,992
     2f0:	000b883a 	mov	r5,zero
     2f4:	01804004 	movi	r6,256
     2f8:	00056c80 	call	56c8 <nd_GsEglColor>
		nd_line(0,0, 639,0);
     2fc:	000f883a 	mov	r7,zero
     300:	0009883a 	mov	r4,zero
     304:	000b883a 	mov	r5,zero
     308:	01809fc4 	movi	r6,639
     30c:	0005ae00 	call	5ae0 <nd_GsEglLine>
        nd_color(nd_COLORBLUE, 0, 256);
     310:	010007c4 	movi	r4,31
     314:	000b883a 	mov	r5,zero
     318:	01804004 	movi	r6,256
     31c:	00056c80 	call	56c8 <nd_GsEglColor>
		nd_line(0,479, 639,479);
     320:	014077c4 	movi	r5,479
     324:	280f883a 	mov	r7,r5
     328:	01809fc4 	movi	r6,639
     32c:	0009883a 	mov	r4,zero
     330:	0005ae00 	call	5ae0 <nd_GsEglLine>

		loadbmp("mmcfs:/de0/pronama.bmp",pFrameBuffer);
     334:	800b883a 	mov	r5,r16
     338:	01000074 	movhi	r4,1
     33c:	210a2b04 	addi	r4,r4,10412
     340:	00003e80 	call	3e8 <loadbmp>
		loadbmp("mmcfs:/de0/uzuko3-nano.bmp",pFrameBuffer);
     344:	01000074 	movhi	r4,1
     348:	210a3104 	addi	r4,r4,10436
     34c:	800b883a 	mov	r5,r16
     350:	00003e80 	call	3e8 <loadbmp>
	}


	// WAVファイルを再生 

	if (spu_stream_play("mmcfs:/de0/test.wav", 200)== 0) {
     354:	01000074 	movhi	r4,1
     358:	210a4104 	addi	r4,r4,10500
     35c:	01403204 	movi	r5,200
     360:	00065680 	call	6568 <spu_stream_play>
     364:	10000e26 	beq	r2,zero,3a0 <main+0x1d0>
	}


	// ワークエリアを開放する

	alt_uncached_free(pFrameBuffer);
     368:	8009883a 	mov	r4,r16
     36c:	00110bc0 	call	110bc <alt_uncached_free>


	// 終了 

	printf("done.\n");
     370:	01000074 	movhi	r4,1
     374:	210a4c04 	addi	r4,r4,10544
     378:	00088080 	call	8808 <puts>
    nd_halt();
     37c:	00001cc0 	call	1cc <nd_halt>

	return 0;
}
     380:	0005883a 	mov	r2,zero
     384:	dfc00417 	ldw	ra,16(sp)
     388:	dcc00317 	ldw	r19,12(sp)
     38c:	dc800217 	ldw	r18,8(sp)
     390:	dc400117 	ldw	r17,4(sp)
     394:	dc000017 	ldw	r16,0(sp)
     398:	dec00504 	addi	sp,sp,20
     39c:	f800283a 	ret


	// WAVファイルを再生 

	if (spu_stream_play("mmcfs:/de0/test.wav", 200)== 0) {
		printf("play start.\n");
     3a0:	01000074 	movhi	r4,1
     3a4:	210a4604 	addi	r4,r4,10520
     3a8:	00088080 	call	8808 <puts>

		while( spu_bufferfill() == 0 ) {}
     3ac:	00063f00 	call	63f0 <spu_bufferfill>
     3b0:	103ffe26 	beq	r2,zero,3ac <main+0x1dc>
	    spu_stream_stop();
     3b4:	00063a00 	call	63a0 <spu_stream_stop>

		printf("play stop.\n");
     3b8:	01000074 	movhi	r4,1
     3bc:	210a4904 	addi	r4,r4,10532
     3c0:	00088080 	call	8808 <puts>
     3c4:	003fe806 	br	368 <main+0x198>

	i = mmcfs_setup();
	printf("mmcfs_setup value = %d\n",i);

	if ( spu_init(SPU_BASE) ) {
		printf("[!] SPU not assignment.\n");
     3c8:	01000074 	movhi	r4,1
     3cc:	210a1c04 	addi	r4,r4,10352
     3d0:	00088080 	call	8808 <puts>
     3d4:	003f8e06 	br	210 <main+0x40>
		loadbmp("mmcfs:/de0/pronama.bmp",pFrameBuffer);
		loadbmp("mmcfs:/de0/uzuko3-nano.bmp",pFrameBuffer);

//		nd_GsVgaScanOn();
	} else {
		printf("[!] Framebuffer not assignment.\r\n");
     3d8:	01000074 	movhi	r4,1
     3dc:	210a3804 	addi	r4,r4,10464
     3e0:	00088080 	call	8808 <puts>
     3e4:	003fdb06 	br	354 <main+0x184>

000003e8 <loadbmp>:


// 指定のBMPファイルをフレームバッファに読み込む 

int loadbmp(const char *bmpname, alt_u16 *pFrameBuffer)
{
     3e8:	deffe304 	addi	sp,sp,-116
     3ec:	dd801915 	stw	r22,100(sp)
     3f0:	282d883a 	mov	r22,r5
	unsigned char bmp_pixel[4];
	alt_u16 *ppix,*pline;

	// BMPファイルを開く 

	fbmp = fopen(bmpname, "rb");
     3f4:	01400074 	movhi	r5,1
     3f8:	294a4e04 	addi	r5,r5,10552


// 指定のBMPファイルをフレームバッファに読み込む 

int loadbmp(const char *bmpname, alt_u16 *pFrameBuffer)
{
     3fc:	dcc01615 	stw	r19,88(sp)
     400:	dc801515 	stw	r18,84(sp)
     404:	dfc01c15 	stw	ra,112(sp)
     408:	df001b15 	stw	fp,108(sp)
     40c:	ddc01a15 	stw	r23,104(sp)
     410:	dd401815 	stw	r21,96(sp)
     414:	dd001715 	stw	r20,92(sp)
     418:	dc401415 	stw	r17,80(sp)
     41c:	dc001315 	stw	r16,76(sp)
     420:	2027883a 	mov	r19,r4
	unsigned char bmp_pixel[4];
	alt_u16 *ppix,*pline;

	// BMPファイルを開く 

	fbmp = fopen(bmpname, "rb");
     424:	0006f800 	call	6f80 <fopen>
     428:	1025883a 	mov	r18,r2
	if (fbmp == NULL) {
     42c:	1000b726 	beq	r2,zero,70c <loadbmp+0x324>
		return -1;
	}

	// ファイルヘッダの読み出し 

	fread(bmp_h, 1, 54, fbmp);
     430:	d9000304 	addi	r4,sp,12
     434:	01400044 	movi	r5,1
     438:	01800d84 	movi	r6,54
     43c:	100f883a 	mov	r7,r2
     440:	00071980 	call	7198 <fread>
	if ((bmp_h[0x00] == 'B') && (bmp_h[0x01] == 'M')) {
     444:	d8c00303 	ldbu	r3,12(sp)
     448:	00801084 	movi	r2,66
     44c:	1880031e 	bne	r3,r2,45c <loadbmp+0x74>
     450:	d8c00343 	ldbu	r3,13(sp)
     454:	00801344 	movi	r2,77
     458:	18801226 	beq	r3,r2,4a4 <loadbmp+0xbc>

		line = (xsize * bpp) / 8;
		if ((line % 4) != 0) line = ((line / 4) + 1) * 4;

	} else {
		printf("[!] This file is not bmp.\n");
     45c:	01000074 	movhi	r4,1
     460:	210a5e04 	addi	r4,r4,10616
     464:	00088080 	call	8808 <puts>
		fclose(fbmp);
     468:	9009883a 	mov	r4,r18
     46c:	00069880 	call	6988 <fclose>
     470:	00bfff44 	movi	r2,-3
	}

	fclose(fbmp);

	return 0;
}
     474:	dfc01c17 	ldw	ra,112(sp)
     478:	df001b17 	ldw	fp,108(sp)
     47c:	ddc01a17 	ldw	r23,104(sp)
     480:	dd801917 	ldw	r22,100(sp)
     484:	dd401817 	ldw	r21,96(sp)
     488:	dd001717 	ldw	r20,92(sp)
     48c:	dcc01617 	ldw	r19,88(sp)
     490:	dc801517 	ldw	r18,84(sp)
     494:	dc401417 	ldw	r17,80(sp)
     498:	dc001317 	ldw	r16,76(sp)
     49c:	dec01d04 	addi	sp,sp,116
     4a0:	f800283a 	ret

	fread(bmp_h, 1, 54, fbmp);
	if ((bmp_h[0x00] == 'B') && (bmp_h[0x01] == 'M')) {

		bpp = bmp_h[0x1c];
		if ( !(bpp==32 || bpp==24 || bpp==16) ) {
     4a4:	dd400a03 	ldbu	r21,40(sp)
     4a8:	00800804 	movi	r2,32
     4ac:	a8800426 	beq	r21,r2,4c0 <loadbmp+0xd8>
     4b0:	00800604 	movi	r2,24
     4b4:	a8800226 	beq	r21,r2,4c0 <loadbmp+0xd8>
     4b8:	00800404 	movi	r2,16
     4bc:	a8808a1e 	bne	r21,r2,6e8 <loadbmp+0x300>
			printf("[!] This color type cannot display.\n");
			fclose(fbmp);
			return -2;
		}

		xsize = (bmp_h[0x13] << 8) | bmp_h[0x12];
     4c0:	d88007c3 	ldbu	r2,31(sp)
     4c4:	d9800783 	ldbu	r6,30(sp)
		ysize = (bmp_h[0x17] << 8) | bmp_h[0x16];
     4c8:	d8c008c3 	ldbu	r3,35(sp)
			printf("[!] This color type cannot display.\n");
			fclose(fbmp);
			return -2;
		}

		xsize = (bmp_h[0x13] << 8) | bmp_h[0x12];
     4cc:	1004923a 	slli	r2,r2,8
		ysize = (bmp_h[0x17] << 8) | bmp_h[0x16];
     4d0:	d9400883 	ldbu	r5,34(sp)
     4d4:	1806923a 	slli	r3,r3,8
			printf("[!] This color type cannot display.\n");
			fclose(fbmp);
			return -2;
		}

		xsize = (bmp_h[0x13] << 8) | bmp_h[0x12];
     4d8:	11a2b03a 	or	r17,r2,r6
		ysize = (bmp_h[0x17] << 8) | bmp_h[0x16];

		line = (xsize * bpp) / 8;
     4dc:	ac49383a 	mul	r4,r21,r17
			fclose(fbmp);
			return -2;
		}

		xsize = (bmp_h[0x13] << 8) | bmp_h[0x12];
		ysize = (bmp_h[0x17] << 8) | bmp_h[0x16];
     4e0:	1968b03a 	or	r20,r3,r5

		line = (xsize * bpp) / 8;
     4e4:	2021d0fa 	srai	r16,r4,3
		if ((line % 4) != 0) line = ((line / 4) + 1) * 4;
     4e8:	808000cc 	andi	r2,r16,3
     4ec:	10000526 	beq	r2,zero,504 <loadbmp+0x11c>
     4f0:	8007883a 	mov	r3,r16
     4f4:	80008316 	blt	r16,zero,704 <loadbmp+0x31c>
     4f8:	00bfff04 	movi	r2,-4
     4fc:	1884703a 	and	r2,r3,r2
     500:	14000104 	addi	r16,r2,4
		return -3;
	}

	// BMP画像データをロード 

	printf("bmpfile : %s\n   %d x %d pix, %dbpp, %dbyte/line\n",bmpname,xsize,ysize,bpp,line);
     504:	980b883a 	mov	r5,r19
     508:	01000074 	movhi	r4,1
     50c:	210a6504 	addi	r4,r4,10644
     510:	880d883a 	mov	r6,r17
     514:	a00f883a 	mov	r7,r20
     518:	dd400015 	stw	r21,0(sp)
     51c:	dc000115 	stw	r16,4(sp)
     520:	00086f00 	call	86f0 <printf>
     524:	00810004 	movi	r2,1024
     528:	8827883a 	mov	r19,r17
     52c:	14403e16 	blt	r2,r17,628 <loadbmp+0x240>
     530:	0080c004 	movi	r2,768
     534:	a039883a 	mov	fp,r20
     538:	1500390e 	bge	r2,r20,620 <loadbmp+0x238>
     53c:	1039883a 	mov	fp,r2
	if (xsize+x_offs > window_xsize) width  = window_xsize-x_offs; else width  = xsize;
	if (ysize+y_offs > window_ysize) height = window_ysize-y_offs; else height = ysize;

	pline = pFrameBuffer + (y_offs * window_xsize);

	for(y=0 ; y<height ; y++) {
     540:	a0bfffc4 	addi	r2,r20,-1
     544:	8085383a 	mul	r2,r16,r2
     548:	002f883a 	mov	r23,zero
     54c:	0421c83a 	sub	r16,zero,r16
     550:	15000d84 	addi	r20,r2,54
     554:	98800050 	cmplti	r2,r19,1
     558:	dc001115 	stw	r16,68(sp)
     55c:	d8801215 	stw	r2,72(sp)
     560:	00000906 	br	588 <loadbmp+0x1a0>
		if (bpp == 32) {
			for(x=0 ; x<width ; x++) {
				fread(bmp_pixel, 1, 4, fbmp);
				*ppix++ = set_pixel(bmp_pixel[2], bmp_pixel[1], bmp_pixel[0]);
			}
		} else if(bpp == 24) {
     564:	00800604 	movi	r2,24
     568:	a8803426 	beq	r21,r2,63c <loadbmp+0x254>
			for(x=0 ; x<width ; x++) {
				fread(bmp_pixel, 1, 3, fbmp);
				*ppix++ = set_pixel(bmp_pixel[2], bmp_pixel[1], bmp_pixel[0]);
			}
		} else if(bpp == 16) {
     56c:	00800404 	movi	r2,16
     570:	a8804b26 	beq	r21,r2,6a0 <loadbmp+0x2b8>
	if (xsize+x_offs > window_xsize) width  = window_xsize-x_offs; else width  = xsize;
	if (ysize+y_offs > window_ysize) height = window_ysize-y_offs; else height = ysize;

	pline = pFrameBuffer + (y_offs * window_xsize);

	for(y=0 ; y<height ; y++) {
     574:	d8801117 	ldw	r2,68(sp)
     578:	bdc00044 	addi	r23,r23,1
     57c:	a0a9883a 	add	r20,r20,r2
     580:	e5c02326 	beq	fp,r23,610 <loadbmp+0x228>
				fread(bmp_pixel, 1, 2, fbmp);
				*ppix++ = (bmp_pixel[1]<<8) | bmp_pixel[0];
			}
		}

		pline += window_xsize;
     584:	b5820004 	addi	r22,r22,2048
	if (ysize+y_offs > window_ysize) height = window_ysize-y_offs; else height = ysize;

	pline = pFrameBuffer + (y_offs * window_xsize);

	for(y=0 ; y<height ; y++) {
		fseek(fbmp, 54 + line*(ysize-(y+1)), SEEK_SET);		// ファイルポインタを行の先頭へ移動 
     588:	9009883a 	mov	r4,r18
     58c:	a00b883a 	mov	r5,r20
     590:	000d883a 	mov	r6,zero
     594:	0007a540 	call	7a54 <fseek>
		ppix = pline;										// ピクセルポインタをラインの先頭へ移動 

		if (bpp == 32) {
     598:	00c00804 	movi	r3,32
     59c:	a8fff11e 	bne	r21,r3,564 <loadbmp+0x17c>
			for(x=0 ; x<width ; x++) {
     5a0:	d8801217 	ldw	r2,72(sp)
     5a4:	103ff31e 	bne	r2,zero,574 <loadbmp+0x18c>
     5a8:	b021883a 	mov	r16,r22
     5ac:	0023883a 	mov	r17,zero
				fread(bmp_pixel, 1, 4, fbmp);
     5b0:	d9000204 	addi	r4,sp,8
     5b4:	01400044 	movi	r5,1
     5b8:	01800104 	movi	r6,4
     5bc:	900f883a 	mov	r7,r18
     5c0:	00071980 	call	7198 <fread>
				*ppix++ = set_pixel(bmp_pixel[2], bmp_pixel[1], bmp_pixel[0]);
     5c4:	d8c00283 	ldbu	r3,10(sp)
     5c8:	d8800243 	ldbu	r2,9(sp)
     5cc:	d9000203 	ldbu	r4,8(sp)
     5d0:	18c03e0c 	andi	r3,r3,248
     5d4:	180691fa 	slli	r3,r3,7
     5d8:	10803e0c 	andi	r2,r2,248
     5dc:	1085883a 	add	r2,r2,r2
     5e0:	2008d0fa 	srli	r4,r4,3
     5e4:	1085883a 	add	r2,r2,r2
     5e8:	1886b03a 	or	r3,r3,r2
     5ec:	1906b03a 	or	r3,r3,r4
	for(y=0 ; y<height ; y++) {
		fseek(fbmp, 54 + line*(ysize-(y+1)), SEEK_SET);		// ファイルポインタを行の先頭へ移動 
		ppix = pline;										// ピクセルポインタをラインの先頭へ移動 

		if (bpp == 32) {
			for(x=0 ; x<width ; x++) {
     5f0:	8c400044 	addi	r17,r17,1
				fread(bmp_pixel, 1, 4, fbmp);
				*ppix++ = set_pixel(bmp_pixel[2], bmp_pixel[1], bmp_pixel[0]);
     5f4:	80c0000d 	sth	r3,0(r16)
     5f8:	84000084 	addi	r16,r16,2
	for(y=0 ; y<height ; y++) {
		fseek(fbmp, 54 + line*(ysize-(y+1)), SEEK_SET);		// ファイルポインタを行の先頭へ移動 
		ppix = pline;										// ピクセルポインタをラインの先頭へ移動 

		if (bpp == 32) {
			for(x=0 ; x<width ; x++) {
     5fc:	9c7fec1e 	bne	r19,r17,5b0 <loadbmp+0x1c8>
	if (xsize+x_offs > window_xsize) width  = window_xsize-x_offs; else width  = xsize;
	if (ysize+y_offs > window_ysize) height = window_ysize-y_offs; else height = ysize;

	pline = pFrameBuffer + (y_offs * window_xsize);

	for(y=0 ; y<height ; y++) {
     600:	d8801117 	ldw	r2,68(sp)
     604:	bdc00044 	addi	r23,r23,1
     608:	a0a9883a 	add	r20,r20,r2
     60c:	e5ffdd1e 	bne	fp,r23,584 <loadbmp+0x19c>
		}

		pline += window_xsize;
	}

	fclose(fbmp);
     610:	9009883a 	mov	r4,r18
     614:	00069880 	call	6988 <fclose>
     618:	0005883a 	mov	r2,zero
     61c:	003f9506 	br	474 <loadbmp+0x8c>
	if (xsize+x_offs > window_xsize) width  = window_xsize-x_offs; else width  = xsize;
	if (ysize+y_offs > window_ysize) height = window_ysize-y_offs; else height = ysize;

	pline = pFrameBuffer + (y_offs * window_xsize);

	for(y=0 ; y<height ; y++) {
     620:	a03fc71e 	bne	r20,zero,540 <loadbmp+0x158>
     624:	003ffa06 	br	610 <loadbmp+0x228>
		return -3;
	}

	// BMP画像データをロード 

	printf("bmpfile : %s\n   %d x %d pix, %dbpp, %dbyte/line\n",bmpname,xsize,ysize,bpp,line);
     628:	1027883a 	mov	r19,r2
     62c:	0080c004 	movi	r2,768
     630:	a039883a 	mov	fp,r20
     634:	153ffa0e 	bge	r2,r20,620 <loadbmp+0x238>
     638:	003fc006 	br	53c <loadbmp+0x154>
			for(x=0 ; x<width ; x++) {
				fread(bmp_pixel, 1, 4, fbmp);
				*ppix++ = set_pixel(bmp_pixel[2], bmp_pixel[1], bmp_pixel[0]);
			}
		} else if(bpp == 24) {
			for(x=0 ; x<width ; x++) {
     63c:	d8801217 	ldw	r2,72(sp)
     640:	103fcc1e 	bne	r2,zero,574 <loadbmp+0x18c>
     644:	b021883a 	mov	r16,r22
     648:	0023883a 	mov	r17,zero
				fread(bmp_pixel, 1, 3, fbmp);
     64c:	d9000204 	addi	r4,sp,8
     650:	01400044 	movi	r5,1
     654:	018000c4 	movi	r6,3
     658:	900f883a 	mov	r7,r18
     65c:	00071980 	call	7198 <fread>
				*ppix++ = set_pixel(bmp_pixel[2], bmp_pixel[1], bmp_pixel[0]);
     660:	d8c00283 	ldbu	r3,10(sp)
     664:	d8800243 	ldbu	r2,9(sp)
     668:	d9000203 	ldbu	r4,8(sp)
     66c:	18c03e0c 	andi	r3,r3,248
     670:	180691fa 	slli	r3,r3,7
     674:	10803e0c 	andi	r2,r2,248
     678:	1085883a 	add	r2,r2,r2
     67c:	2008d0fa 	srli	r4,r4,3
     680:	1085883a 	add	r2,r2,r2
     684:	1886b03a 	or	r3,r3,r2
     688:	1906b03a 	or	r3,r3,r4
			for(x=0 ; x<width ; x++) {
				fread(bmp_pixel, 1, 4, fbmp);
				*ppix++ = set_pixel(bmp_pixel[2], bmp_pixel[1], bmp_pixel[0]);
			}
		} else if(bpp == 24) {
			for(x=0 ; x<width ; x++) {
     68c:	8c400044 	addi	r17,r17,1
				fread(bmp_pixel, 1, 3, fbmp);
				*ppix++ = set_pixel(bmp_pixel[2], bmp_pixel[1], bmp_pixel[0]);
     690:	80c0000d 	sth	r3,0(r16)
     694:	84000084 	addi	r16,r16,2
			for(x=0 ; x<width ; x++) {
				fread(bmp_pixel, 1, 4, fbmp);
				*ppix++ = set_pixel(bmp_pixel[2], bmp_pixel[1], bmp_pixel[0]);
			}
		} else if(bpp == 24) {
			for(x=0 ; x<width ; x++) {
     698:	9c7fec1e 	bne	r19,r17,64c <loadbmp+0x264>
     69c:	003fb506 	br	574 <loadbmp+0x18c>
				fread(bmp_pixel, 1, 3, fbmp);
				*ppix++ = set_pixel(bmp_pixel[2], bmp_pixel[1], bmp_pixel[0]);
			}
		} else if(bpp == 16) {
			for(x=0 ; x<width ; x++) {
     6a0:	d8801217 	ldw	r2,72(sp)
     6a4:	103fb31e 	bne	r2,zero,574 <loadbmp+0x18c>
     6a8:	b021883a 	mov	r16,r22
     6ac:	0023883a 	mov	r17,zero
				fread(bmp_pixel, 1, 2, fbmp);
     6b0:	d9000204 	addi	r4,sp,8
     6b4:	01400044 	movi	r5,1
     6b8:	01800084 	movi	r6,2
     6bc:	900f883a 	mov	r7,r18
     6c0:	00071980 	call	7198 <fread>
				*ppix++ = (bmp_pixel[1]<<8) | bmp_pixel[0];
     6c4:	d8c00243 	ldbu	r3,9(sp)
     6c8:	d8800203 	ldbu	r2,8(sp)
			for(x=0 ; x<width ; x++) {
				fread(bmp_pixel, 1, 3, fbmp);
				*ppix++ = set_pixel(bmp_pixel[2], bmp_pixel[1], bmp_pixel[0]);
			}
		} else if(bpp == 16) {
			for(x=0 ; x<width ; x++) {
     6cc:	8c400044 	addi	r17,r17,1
				fread(bmp_pixel, 1, 2, fbmp);
				*ppix++ = (bmp_pixel[1]<<8) | bmp_pixel[0];
     6d0:	1806923a 	slli	r3,r3,8
     6d4:	1886b03a 	or	r3,r3,r2
     6d8:	80c0000d 	sth	r3,0(r16)
     6dc:	84000084 	addi	r16,r16,2
			for(x=0 ; x<width ; x++) {
				fread(bmp_pixel, 1, 3, fbmp);
				*ppix++ = set_pixel(bmp_pixel[2], bmp_pixel[1], bmp_pixel[0]);
			}
		} else if(bpp == 16) {
			for(x=0 ; x<width ; x++) {
     6e0:	9c7ff31e 	bne	r19,r17,6b0 <loadbmp+0x2c8>
     6e4:	003fa306 	br	574 <loadbmp+0x18c>
	fread(bmp_h, 1, 54, fbmp);
	if ((bmp_h[0x00] == 'B') && (bmp_h[0x01] == 'M')) {

		bpp = bmp_h[0x1c];
		if ( !(bpp==32 || bpp==24 || bpp==16) ) {
			printf("[!] This color type cannot display.\n");
     6e8:	01000074 	movhi	r4,1
     6ec:	210a5504 	addi	r4,r4,10580
     6f0:	00088080 	call	8808 <puts>
			fclose(fbmp);
     6f4:	9009883a 	mov	r4,r18
     6f8:	00069880 	call	6988 <fclose>
     6fc:	00bfff84 	movi	r2,-2
     700:	003f5c06 	br	474 <loadbmp+0x8c>

		xsize = (bmp_h[0x13] << 8) | bmp_h[0x12];
		ysize = (bmp_h[0x17] << 8) | bmp_h[0x16];

		line = (xsize * bpp) / 8;
		if ((line % 4) != 0) line = ((line / 4) + 1) * 4;
     704:	80c000c4 	addi	r3,r16,3
     708:	003f7b06 	br	4f8 <loadbmp+0x110>

	// BMPファイルを開く 

	fbmp = fopen(bmpname, "rb");
	if (fbmp == NULL) {
		printf("[!] %s is not found.\n", bmpname);
     70c:	980b883a 	mov	r5,r19
     710:	01000074 	movhi	r4,1
     714:	210a4f04 	addi	r4,r4,10556
     718:	00086f00 	call	86f0 <printf>
     71c:	00bfffc4 	movi	r2,-1
     720:	003f5406 	br	474 <loadbmp+0x8c>

00000724 <mem_cpy>:
/* String functions                                                      */
/*-----------------------------------------------------------------------*/

/* Copy memory to memory */
static
void mem_cpy (void* dst, const void* src, UINT cnt) {
     724:	2011883a 	mov	r8,r4
		*(int*)d = *(int*)s;
		d += sizeof(int); s += sizeof(int);
		cnt -= sizeof(int);
	}
#endif
	while (cnt--)
     728:	30000726 	beq	r6,zero,748 <mem_cpy+0x24>

/* Copy memory to memory */
static
void mem_cpy (void* dst, const void* src, UINT cnt) {
	BYTE *d = (BYTE*)dst;
	const BYTE *s = (const BYTE*)src;
     72c:	000f883a 	mov	r7,zero
		d += sizeof(int); s += sizeof(int);
		cnt -= sizeof(int);
	}
#endif
	while (cnt--)
		*d++ = *s++;
     730:	29c5883a 	add	r2,r5,r7
     734:	11000003 	ldbu	r4,0(r2)
     738:	41c7883a 	add	r3,r8,r7
     73c:	39c00044 	addi	r7,r7,1
     740:	19000005 	stb	r4,0(r3)
		*(int*)d = *(int*)s;
		d += sizeof(int); s += sizeof(int);
		cnt -= sizeof(int);
	}
#endif
	while (cnt--)
     744:	39bffa1e 	bne	r7,r6,730 <mem_cpy+0xc>
     748:	f800283a 	ret

0000074c <mem_set>:
/* Fill memory */
static
void mem_set (void* dst, int val, UINT cnt) {
	BYTE *d = (BYTE*)dst;

	while (cnt--)
     74c:	30000426 	beq	r6,zero,760 <mem_set+0x14>
     750:	310d883a 	add	r6,r6,r4
		*d++ = (BYTE)val;
     754:	21400005 	stb	r5,0(r4)
     758:	21000044 	addi	r4,r4,1
/* Fill memory */
static
void mem_set (void* dst, int val, UINT cnt) {
	BYTE *d = (BYTE*)dst;

	while (cnt--)
     75c:	21bffd1e 	bne	r4,r6,754 <mem_set+0x8>
     760:	f800283a 	ret

00000764 <chk_chr>:
}

/* Check if chr is contained in the string */
static
int chk_chr (const char* str, int chr) {
	while (*str && *str != chr) str++;
     764:	20800007 	ldb	r2,0(r4)
     768:	10000626 	beq	r2,zero,784 <chk_chr+0x20>
     76c:	1007883a 	mov	r3,r2
     770:	28c00526 	beq	r5,r3,788 <chk_chr+0x24>
     774:	21000044 	addi	r4,r4,1
     778:	20800007 	ldb	r2,0(r4)
     77c:	1007883a 	mov	r3,r2
     780:	103ffb1e 	bne	r2,zero,770 <chk_chr+0xc>
     784:	0007883a 	mov	r3,zero
	return *str;
}
     788:	1805883a 	mov	r2,r3
     78c:	f800283a 	ret

00000790 <clust2sect>:
	FATFS *fs,		/* File system object */
	DWORD clst		/* Cluster# to be converted */
)
{
	clst -= 2;
	if (clst >= (fs->n_fatent - 2)) return 0;		/* Invalid cluster# */
     790:	20800617 	ldw	r2,24(r4)
DWORD clust2sect (	/* !=0: Sector number, 0: Failed - invalid cluster# */
	FATFS *fs,		/* File system object */
	DWORD clst		/* Cluster# to be converted */
)
{
	clst -= 2;
     794:	297fff84 	addi	r5,r5,-2
	if (clst >= (fs->n_fatent - 2)) return 0;		/* Invalid cluster# */
     798:	0007883a 	mov	r3,zero
     79c:	10bfff84 	addi	r2,r2,-2
     7a0:	2880042e 	bgeu	r5,r2,7b4 <clust2sect+0x24>
	return clst * fs->csize + fs->database;
     7a4:	20800083 	ldbu	r2,2(r4)
     7a8:	20c00a17 	ldw	r3,40(r4)
     7ac:	2885383a 	mul	r2,r5,r2
     7b0:	10c7883a 	add	r3,r2,r3
}
     7b4:	1805883a 	mov	r2,r3
     7b8:	f800283a 	ret

000007bc <gen_numname>:
	BYTE *dst,			/* Pointer to generated SFN */
	const BYTE *src,	/* Pointer to source SFN to be modified */
	const WCHAR *lfn,	/* Pointer to LFN */
	WORD seq			/* Sequence number */
)
{
     7bc:	defffa04 	addi	sp,sp,-24
     7c0:	dc000315 	stw	r16,12(sp)
     7c4:	3021883a 	mov	r16,r6
	BYTE ns[8], c;
	UINT i, j;


	mem_cpy(dst, src, 11);
     7c8:	018002c4 	movi	r6,11
	BYTE *dst,			/* Pointer to generated SFN */
	const BYTE *src,	/* Pointer to source SFN to be modified */
	const WCHAR *lfn,	/* Pointer to LFN */
	WORD seq			/* Sequence number */
)
{
     7cc:	dc400415 	stw	r17,16(sp)
	BYTE ns[8], c;
	UINT i, j;


	mem_cpy(dst, src, 11);
     7d0:	d9c00215 	stw	r7,8(sp)
	BYTE *dst,			/* Pointer to generated SFN */
	const BYTE *src,	/* Pointer to source SFN to be modified */
	const WCHAR *lfn,	/* Pointer to LFN */
	WORD seq			/* Sequence number */
)
{
     7d4:	2023883a 	mov	r17,r4
     7d8:	dfc00515 	stw	ra,20(sp)
	BYTE ns[8], c;
	UINT i, j;


	mem_cpy(dst, src, 11);
     7dc:	00007240 	call	724 <mem_cpy>

	if (seq > 5) {	/* On many collisions, generate a hash number instead of sequential number */
     7e0:	d9c00217 	ldw	r7,8(sp)
     7e4:	00800144 	movi	r2,5
     7e8:	393fffcc 	andi	r4,r7,65535
     7ec:	11003736 	bltu	r2,r4,8cc <gen_numname+0x110>
		do seq = (seq >> 1) + (seq << 15) + (WORD)*lfn++; while (*lfn);
     7f0:	020001c4 	movi	r8,7
     7f4:	02400e44 	movi	r9,57
	}

	/* itoa (hexdecimal) */
	i = 7;
	do {
		c = (seq % 16) + '0';
     7f8:	398003cc 	andi	r6,r7,15
		if (c > '9') c += 7;
		ns[i--] = c;
		seq /= 16;
     7fc:	200ed13a 	srli	r7,r4,4
	}

	/* itoa (hexdecimal) */
	i = 7;
	do {
		c = (seq % 16) + '0';
     800:	30c00c04 	addi	r3,r6,48
		if (c > '9') c += 7;
     804:	18803fcc 	andi	r2,r3,255
		ns[i--] = c;
     808:	da0b883a 	add	r5,sp,r8
		seq /= 16;
	} while (seq);
     80c:	393fffcc 	andi	r4,r7,65535
	/* itoa (hexdecimal) */
	i = 7;
	do {
		c = (seq % 16) + '0';
		if (c > '9') c += 7;
		ns[i--] = c;
     810:	423fffc4 	addi	r8,r8,-1

	/* itoa (hexdecimal) */
	i = 7;
	do {
		c = (seq % 16) + '0';
		if (c > '9') c += 7;
     814:	4880012e 	bgeu	r9,r2,81c <gen_numname+0x60>
     818:	30c00dc4 	addi	r3,r6,55
		ns[i--] = c;
     81c:	28c00005 	stb	r3,0(r5)
		seq /= 16;
	} while (seq);
     820:	203ff51e 	bne	r4,zero,7f8 <gen_numname+0x3c>
	ns[i] = '~';
     824:	da07883a 	add	r3,sp,r8
     828:	00801f84 	movi	r2,126
     82c:	18800005 	stb	r2,0(r3)

	/* Append the number */
	for (j = 0; j < i && dst[j] != ' '; j++) {
     830:	40003726 	beq	r8,zero,910 <gen_numname+0x154>
     834:	89000003 	ldbu	r4,0(r17)
     838:	00c00804 	movi	r3,32
     83c:	20803fcc 	andi	r2,r4,255
     840:	10c03326 	beq	r2,r3,910 <gen_numname+0x154>
     844:	1813883a 	mov	r9,r3
     848:	000b883a 	mov	r5,zero
     84c:	01c00784 	movi	r7,30
     850:	02800704 	movi	r10,28
     854:	41bfffc4 	addi	r6,r8,-1
		if (IsDBCS1(dst[j])) {
     858:	20801fc4 	addi	r2,r4,127
     85c:	20c00804 	addi	r3,r4,32
     860:	10803fcc 	andi	r2,r2,255
     864:	18c03fcc 	andi	r3,r3,255
     868:	3880222e 	bgeu	r7,r2,8f4 <gen_numname+0x138>
     86c:	50c0212e 	bgeu	r10,r3,8f4 <gen_numname+0x138>
		seq /= 16;
	} while (seq);
	ns[i] = '~';

	/* Append the number */
	for (j = 0; j < i && dst[j] != ' '; j++) {
     870:	29400044 	addi	r5,r5,1
     874:	8947883a 	add	r3,r17,r5
     878:	2a00232e 	bgeu	r5,r8,908 <gen_numname+0x14c>
     87c:	19000003 	ldbu	r4,0(r3)
     880:	20803fcc 	andi	r2,r4,255
     884:	127ff41e 	bne	r2,r9,858 <gen_numname+0x9c>
     888:	1805883a 	mov	r2,r3
     88c:	018001c4 	movi	r6,7
			if (j == i - 1) break;
			j++;
		}
	}
	do {
		dst[j++] = (i < 8) ? ns[i++] : ' ';
     890:	da07883a 	add	r3,sp,r8
     894:	01000804 	movi	r4,32
     898:	32000236 	bltu	r6,r8,8a4 <gen_numname+0xe8>
     89c:	19000003 	ldbu	r4,0(r3)
     8a0:	42000044 	addi	r8,r8,1
     8a4:	29400044 	addi	r5,r5,1
     8a8:	11000005 	stb	r4,0(r2)
     8ac:	10800044 	addi	r2,r2,1
	} while (j < 8);
     8b0:	317ff72e 	bgeu	r6,r5,890 <gen_numname+0xd4>
}
     8b4:	dfc00517 	ldw	ra,20(sp)
     8b8:	dc400417 	ldw	r17,16(sp)
     8bc:	dc000317 	ldw	r16,12(sp)
     8c0:	dec00604 	addi	sp,sp,24
     8c4:	f800283a 	ret
     8c8:	393fffcc 	andi	r4,r7,65535


	mem_cpy(dst, src, 11);

	if (seq > 5) {	/* On many collisions, generate a hash number instead of sequential number */
		do seq = (seq >> 1) + (seq << 15) + (WORD)*lfn++; while (*lfn);
     8cc:	2004d07a 	srli	r2,r4,1
     8d0:	8140000b 	ldhu	r5,0(r16)
     8d4:	380893fa 	slli	r4,r7,15
     8d8:	84000084 	addi	r16,r16,2
     8dc:	80c0000b 	ldhu	r3,0(r16)
     8e0:	1104b03a 	or	r2,r2,r4
     8e4:	114f883a 	add	r7,r2,r5
     8e8:	183ff71e 	bne	r3,zero,8c8 <gen_numname+0x10c>
     8ec:	393fffcc 	andi	r4,r7,65535
     8f0:	003fbf06 	br	7f0 <gen_numname+0x34>
	ns[i] = '~';

	/* Append the number */
	for (j = 0; j < i && dst[j] != ' '; j++) {
		if (IsDBCS1(dst[j])) {
			if (j == i - 1) break;
     8f4:	31400426 	beq	r6,r5,908 <gen_numname+0x14c>
			j++;
     8f8:	29400044 	addi	r5,r5,1
		seq /= 16;
	} while (seq);
	ns[i] = '~';

	/* Append the number */
	for (j = 0; j < i && dst[j] != ' '; j++) {
     8fc:	29400044 	addi	r5,r5,1
     900:	8947883a 	add	r3,r17,r5
     904:	2a3fdd36 	bltu	r5,r8,87c <gen_numname+0xc0>
     908:	8947883a 	add	r3,r17,r5
     90c:	003fde06 	br	888 <gen_numname+0xcc>
     910:	8807883a 	mov	r3,r17
     914:	000b883a 	mov	r5,zero
     918:	003fdb06 	br	888 <gen_numname+0xcc>

0000091c <sum_sfn>:
#if _USE_LFN
static
BYTE sum_sfn (
	const BYTE *dir		/* Ptr to directory entry */
)
{
     91c:	200b883a 	mov	r5,r4
     920:	018002c4 	movi	r6,11
     924:	0009883a 	mov	r4,zero
	BYTE sum = 0;
	UINT n = 11;

	do sum = (sum >> 1) + (sum << 7) + *dir++; while (--n);
     928:	20803fcc 	andi	r2,r4,255
     92c:	1004d07a 	srli	r2,r2,1
     930:	200891fa 	slli	r4,r4,7
     934:	28c00003 	ldbu	r3,0(r5)
     938:	31bfffc4 	addi	r6,r6,-1
     93c:	1104b03a 	or	r2,r2,r4
     940:	10c9883a 	add	r4,r2,r3
     944:	29400044 	addi	r5,r5,1
     948:	303ff71e 	bne	r6,zero,928 <sum_sfn+0xc>
	return sum;
}
     94c:	20803fcc 	andi	r2,r4,255
     950:	f800283a 	ret

00000954 <f_mount>:
)
{
	FATFS *rfs;


	if (vol >= _VOLUMES)		/* Check if the drive number is valid */
     954:	21003fcc 	andi	r4,r4,255
     958:	008002c4 	movi	r2,11
     95c:	2000071e 	bne	r4,zero,97c <f_mount+0x28>
		return FR_INVALID_DRIVE;
	rfs = FatFs[vol];			/* Get current fs object */
     960:	d0e01117 	ldw	r3,-32700(gp)
		fs->fs_type = 0;		/* Clear new fs object */
#if _FS_REENTRANT				/* Create sync object for the new volume */
		if (!ff_cre_syncobj(vol, &fs->sobj)) return FR_INT_ERR;
#endif
	}
	FatFs[vol] = fs;			/* Register new fs object */
     964:	0005883a 	mov	r2,zero

	if (vol >= _VOLUMES)		/* Check if the drive number is valid */
		return FR_INVALID_DRIVE;
	rfs = FatFs[vol];			/* Get current fs object */

	if (rfs) {
     968:	18000126 	beq	r3,zero,970 <f_mount+0x1c>
		clear_lock(rfs);
#endif
#if _FS_REENTRANT				/* Discard sync object of the current volume */
		if (!ff_del_syncobj(rfs->sobj)) return FR_INT_ERR;
#endif
		rfs->fs_type = 0;		/* Clear old fs object */
     96c:	18000005 	stb	zero,0(r3)
	}

	if (fs) {
     970:	28000126 	beq	r5,zero,978 <f_mount+0x24>
		fs->fs_type = 0;		/* Clear new fs object */
     974:	28000005 	stb	zero,0(r5)
#if _FS_REENTRANT				/* Create sync object for the new volume */
		if (!ff_cre_syncobj(vol, &fs->sobj)) return FR_INT_ERR;
#endif
	}
	FatFs[vol] = fs;			/* Register new fs object */
     978:	d1601115 	stw	r5,-32700(gp)

	return FR_OK;
}
     97c:	f800283a 	ret

00000980 <validate>:
static
FRESULT validate (	/* FR_OK(0): The object is valid, !=0: Invalid */
	FATFS *fs,		/* Pointer to the file system object */
	WORD id			/* Member id of the target object to be checked */
)
{
     980:	deffff04 	addi	sp,sp,-4
     984:	dfc00015 	stw	ra,0(sp)
	if (!fs || !fs->fs_type || fs->id != id)
     988:	20000526 	beq	r4,zero,9a0 <validate+0x20>
     98c:	20800003 	ldbu	r2,0(r4)
     990:	297fffcc 	andi	r5,r5,65535
     994:	10000226 	beq	r2,zero,9a0 <validate+0x20>
     998:	2080018b 	ldhu	r2,6(r4)
     99c:	11400426 	beq	r2,r5,9b0 <validate+0x30>
		return FR_INVALID_OBJECT;

	ENTER_FF(fs);		/* Lock file system */

	if (disk_status(fs->drv) & STA_NOINIT)
     9a0:	00800244 	movi	r2,9
		return FR_NOT_READY;

	return FR_OK;
}
     9a4:	dfc00017 	ldw	ra,0(sp)
     9a8:	dec00104 	addi	sp,sp,4
     9ac:	f800283a 	ret
	if (!fs || !fs->fs_type || fs->id != id)
		return FR_INVALID_OBJECT;

	ENTER_FF(fs);		/* Lock file system */

	if (disk_status(fs->drv) & STA_NOINIT)
     9b0:	21000043 	ldbu	r4,1(r4)
     9b4:	000493c0 	call	493c <disk_status>
     9b8:	1080004c 	andi	r2,r2,1
     9bc:	1005003a 	cmpeq	r2,r2,zero
     9c0:	1000041e 	bne	r2,zero,9d4 <validate+0x54>
     9c4:	008000c4 	movi	r2,3
		return FR_NOT_READY;

	return FR_OK;
}
     9c8:	dfc00017 	ldw	ra,0(sp)
     9cc:	dec00104 	addi	sp,sp,4
     9d0:	f800283a 	ret
	if (!fs || !fs->fs_type || fs->id != id)
		return FR_INVALID_OBJECT;

	ENTER_FF(fs);		/* Lock file system */

	if (disk_status(fs->drv) & STA_NOINIT)
     9d4:	0005883a 	mov	r2,zero
     9d8:	003ff206 	br	9a4 <validate+0x24>

000009dc <check_fs>:
static
BYTE check_fs (	/* 0:FAT-VBR, 1:Valid BR but not FAT, 2:Not a BR, 3:Disk error */
	FATFS *fs,	/* File system object */
	DWORD sect	/* Sector# (lba) to check if it is an FAT boot record or not */
)
{
     9dc:	defffe04 	addi	sp,sp,-8
     9e0:	dc000015 	stw	r16,0(sp)
     9e4:	dfc00115 	stw	ra,4(sp)
     9e8:	2007883a 	mov	r3,r4
	if (disk_read(fs->drv, fs->win, sect, 1) != RES_OK)	/* Load boot record */
     9ec:	21000043 	ldbu	r4,1(r4)
     9f0:	1c000c04 	addi	r16,r3,48
static
BYTE check_fs (	/* 0:FAT-VBR, 1:Valid BR but not FAT, 2:Not a BR, 3:Disk error */
	FATFS *fs,	/* File system object */
	DWORD sect	/* Sector# (lba) to check if it is an FAT boot record or not */
)
{
     9f4:	280d883a 	mov	r6,r5
	if (disk_read(fs->drv, fs->win, sect, 1) != RES_OK)	/* Load boot record */
     9f8:	01c00044 	movi	r7,1
     9fc:	800b883a 	mov	r5,r16
     a00:	0004d0c0 	call	4d0c <disk_read>
     a04:	010000c4 	movi	r4,3
     a08:	10000e1e 	bne	r2,zero,a44 <check_fs+0x68>
		return 3;
	if (LD_WORD(&fs->win[BS_55AA]) != 0xAA55)		/* Check record signature (always placed at offset 510 even if the sector size is >512) */
     a0c:	80807fc3 	ldbu	r2,511(r16)
     a10:	80c07f83 	ldbu	r3,510(r16)
		return 2;

	if ((LD_DWORD(&fs->win[BS_FilSysType]) & 0xFFFFFF) == 0x544146)	/* Check "FAT" string */
     a14:	01c04034 	movhi	r7,256
     a18:	39ffffc4 	addi	r7,r7,-1
	DWORD sect	/* Sector# (lba) to check if it is an FAT boot record or not */
)
{
	if (disk_read(fs->drv, fs->win, sect, 1) != RES_OK)	/* Load boot record */
		return 3;
	if (LD_WORD(&fs->win[BS_55AA]) != 0xAA55)		/* Check record signature (always placed at offset 510 even if the sector size is >512) */
     a1c:	1004923a 	slli	r2,r2,8
		return 2;

	if ((LD_DWORD(&fs->win[BS_FilSysType]) & 0xFFFFFF) == 0x544146)	/* Check "FAT" string */
     a20:	01801534 	movhi	r6,84
     a24:	31905184 	addi	r6,r6,16710
	DWORD sect	/* Sector# (lba) to check if it is an FAT boot record or not */
)
{
	if (disk_read(fs->drv, fs->win, sect, 1) != RES_OK)	/* Load boot record */
		return 3;
	if (LD_WORD(&fs->win[BS_55AA]) != 0xAA55)		/* Check record signature (always placed at offset 510 even if the sector size is >512) */
     a28:	01000084 	movi	r4,2
     a2c:	10c4b03a 	or	r2,r2,r3
     a30:	10bfffcc 	andi	r2,r2,65535
     a34:	10a0001c 	xori	r2,r2,32768
     a38:	10a00004 	addi	r2,r2,-32768
     a3c:	00ea9544 	movi	r3,-21931
     a40:	10c00526 	beq	r2,r3,a58 <check_fs+0x7c>
		return 0;
	if ((LD_DWORD(&fs->win[BS_FilSysType32]) & 0xFFFFFF) == 0x544146)
		return 0;

	return 1;
}
     a44:	2005883a 	mov	r2,r4
     a48:	dfc00117 	ldw	ra,4(sp)
     a4c:	dc000017 	ldw	r16,0(sp)
     a50:	dec00204 	addi	sp,sp,8
     a54:	f800283a 	ret
	if (disk_read(fs->drv, fs->win, sect, 1) != RES_OK)	/* Load boot record */
		return 3;
	if (LD_WORD(&fs->win[BS_55AA]) != 0xAA55)		/* Check record signature (always placed at offset 510 even if the sector size is >512) */
		return 2;

	if ((LD_DWORD(&fs->win[BS_FilSysType]) & 0xFFFFFF) == 0x544146)	/* Check "FAT" string */
     a58:	80800e43 	ldbu	r2,57(r16)
     a5c:	81000e03 	ldbu	r4,56(r16)
     a60:	80c00dc3 	ldbu	r3,55(r16)
     a64:	1004963a 	slli	r2,r2,24
     a68:	2008943a 	slli	r4,r4,16
     a6c:	81400d83 	ldbu	r5,54(r16)
     a70:	1806923a 	slli	r3,r3,8
     a74:	1104b03a 	or	r2,r2,r4
     a78:	1144b03a 	or	r2,r2,r5
     a7c:	1886b03a 	or	r3,r3,r2
     a80:	19c6703a 	and	r3,r3,r7
     a84:	0009883a 	mov	r4,zero
     a88:	19bfee26 	beq	r3,r6,a44 <check_fs+0x68>
     a8c:	80801543 	ldbu	r2,85(r16)
     a90:	81001503 	ldbu	r4,84(r16)
     a94:	80c014c3 	ldbu	r3,83(r16)
     a98:	1004963a 	slli	r2,r2,24
     a9c:	2008943a 	slli	r4,r4,16
     aa0:	81401483 	ldbu	r5,82(r16)
     aa4:	1806923a 	slli	r3,r3,8
     aa8:	1104b03a 	or	r2,r2,r4
     aac:	1144b03a 	or	r2,r2,r5
     ab0:	1886b03a 	or	r3,r3,r2
     ab4:	19c6703a 	and	r3,r3,r7
     ab8:	1988c03a 	cmpne	r4,r3,r6
		return 0;
	if ((LD_DWORD(&fs->win[BS_FilSysType32]) & 0xFFFFFF) == 0x544146)
		return 0;

	return 1;
}
     abc:	2005883a 	mov	r2,r4
     ac0:	dfc00117 	ldw	ra,4(sp)
     ac4:	dc000017 	ldw	r16,0(sp)
     ac8:	dec00204 	addi	sp,sp,8
     acc:	f800283a 	ret

00000ad0 <chk_mounted>:
	BYTE fmt, b, pi, *tbl;
	UINT vol;
	DSTATUS stat;
	DWORD bsect, fasize, tsect, sysect, nclst, szbfat;
	WORD nrsv;
	const TCHAR *p = *path;
     ad0:	21c00017 	ldw	r7,0(r4)
FRESULT chk_mounted (	/* FR_OK(0): successful, !=0: any error occurred */
	const TCHAR **path,	/* Pointer to pointer to the path name (drive number) */
	FATFS **rfs,		/* Pointer to pointer to the found file system object */
	BYTE chk_wp			/* !=0: Check media write protection for write access */
)
{
     ad4:	defffb04 	addi	sp,sp,-20
     ad8:	dc400115 	stw	r17,4(sp)
     adc:	dfc00415 	stw	ra,16(sp)
     ae0:	dcc00315 	stw	r19,12(sp)
     ae4:	dc800215 	stw	r18,8(sp)
     ae8:	dc000015 	stw	r16,0(sp)
	WORD nrsv;
	const TCHAR *p = *path;
	FATFS *fs;

	/* Get logical drive number from the path name */
	vol = p[0] - '0';					/* Is there a drive number? */
     aec:	38c00007 	ldb	r3,0(r7)
FRESULT chk_mounted (	/* FR_OK(0): successful, !=0: any error occurred */
	const TCHAR **path,	/* Pointer to pointer to the path name (drive number) */
	FATFS **rfs,		/* Pointer to pointer to the found file system object */
	BYTE chk_wp			/* !=0: Check media write protection for write access */
)
{
     af0:	3023883a 	mov	r17,r6
	const TCHAR *p = *path;
	FATFS *fs;

	/* Get logical drive number from the path name */
	vol = p[0] - '0';					/* Is there a drive number? */
	if (vol <= 9 && p[1] == ':') {		/* Found a drive number, get and strip it */
     af4:	00800244 	movi	r2,9
	WORD nrsv;
	const TCHAR *p = *path;
	FATFS *fs;

	/* Get logical drive number from the path name */
	vol = p[0] - '0';					/* Is there a drive number? */
     af8:	19bff404 	addi	r6,r3,-48
	if (vol <= 9 && p[1] == ':') {		/* Found a drive number, get and strip it */
     afc:	1181232e 	bgeu	r2,r6,f8c <chk_mounted+0x4bc>
	}

	/* Check if the file system object is valid or not */
	if (vol >= _VOLUMES) 				/* Is the drive number valid? */
		return FR_INVALID_DRIVE;
	*rfs = fs = FatFs[vol];				/* Return pointer to the corresponding file system object */
     b00:	d4201117 	ldw	r16,-32700(gp)
     b04:	2c000015 	stw	r16,0(r5)
	if (!fs) return FR_NOT_ENABLED;		/* Is the file system object available? */
     b08:	8000b726 	beq	r16,zero,de8 <chk_mounted+0x318>

	ENTER_FF(fs);						/* Lock file system */

	if (fs->fs_type) {					/* If the logical drive has been mounted */
     b0c:	80800003 	ldbu	r2,0(r16)
     b10:	1000981e 	bne	r2,zero,d74 <chk_mounted+0x2a4>
	}

	/* The file system object is not valid. */
	/* Following code attempts to mount the volume. (analyze BPB and initialize the fs object) */

	fs->fs_type = 0;					/* Clear the file system object */
     b14:	80000005 	stb	zero,0(r16)
	fs->drv = LD2PD(vol);				/* Bind the logical drive and a physical drive */
     b18:	80000045 	stb	zero,1(r16)
	stat = disk_initialize(fs->drv);	/* Initialize low level disk I/O layer */
     b1c:	0009883a 	mov	r4,zero
     b20:	0004e480 	call	4e48 <disk_initialize>
	if (stat & STA_NOINIT)				/* Check if the initialization succeeded */
     b24:	10c03fcc 	andi	r3,r2,255
     b28:	1880004c 	andi	r2,r3,1
     b2c:	1005003a 	cmpeq	r2,r2,zero
     b30:	10008726 	beq	r2,zero,d50 <chk_mounted+0x280>
		return FR_NOT_READY;			/* Failed to initialize due to no media or hard error */
	if (!_FS_READONLY && chk_wp && (stat & STA_PROTECT))	/* Check disk write protection if needed */
     b34:	88803fcc 	andi	r2,r17,255
     b38:	10000226 	beq	r2,zero,b44 <chk_mounted+0x74>
     b3c:	1880010c 	andi	r2,r3,4
     b40:	1000951e 	bne	r2,zero,d98 <chk_mounted+0x2c8>
#if _MAX_SS != 512						/* Get disk sector size (variable sector size cfg only) */
	if (disk_ioctl(fs->drv, GET_SECTOR_SIZE, &fs->ssize) != RES_OK)
		return FR_DISK_ERR;
#endif
	/* Search FAT partition on the drive. Supports only generic partitionings, FDISK and SFD. */
	fmt = check_fs(fs, bsect = 0);		/* Load sector 0 and check if it is an FAT-VBR (in SFD) */
     b44:	8009883a 	mov	r4,r16
     b48:	000b883a 	mov	r5,zero
     b4c:	00009dc0 	call	9dc <check_fs>
	if (LD2PT(vol) && !fmt) fmt = 1;	/* Force non-SFD if the volume is forced partition */
	if (fmt == 1) {						/* Not an FAT-VBR, the physical drive can be partitioned */
     b50:	10c03fcc 	andi	r3,r2,255
     b54:	00800044 	movi	r2,1
     b58:	18807126 	beq	r3,r2,d20 <chk_mounted+0x250>
     b5c:	0025883a 	mov	r18,zero
		if (tbl[4]) {						/* Is the partition existing? */
			bsect = LD_DWORD(&tbl[8]);		/* Partition offset in LBA */
			fmt = check_fs(fs, bsect);		/* Check the partition */
		}
	}
	if (fmt == 3) return FR_DISK_ERR;
     b60:	008000c4 	movi	r2,3
     b64:	18811526 	beq	r3,r2,fbc <chk_mounted+0x4ec>
	if (fmt) return FR_NO_FILESYSTEM;		/* No FAT volume is found */
     b68:	1800701e 	bne	r3,zero,d2c <chk_mounted+0x25c>

	/* An FAT volume is found. Following code initializes the file system object */

	if (LD_WORD(fs->win+BPB_BytsPerSec) != SS(fs))		/* (BPB_BytsPerSec must be equal to the physical sector size) */
     b6c:	84400c04 	addi	r17,r16,48
     b70:	88800303 	ldbu	r2,12(r17)
     b74:	88c002c3 	ldbu	r3,11(r17)
     b78:	1004923a 	slli	r2,r2,8
     b7c:	10c4b03a 	or	r2,r2,r3
     b80:	10bfffcc 	andi	r2,r2,65535
     b84:	10a0001c 	xori	r2,r2,32768
     b88:	10a00004 	addi	r2,r2,-32768
     b8c:	00c08004 	movi	r3,512
     b90:	10c0661e 	bne	r2,r3,d2c <chk_mounted+0x25c>
		return FR_NO_FILESYSTEM;

	fasize = LD_WORD(fs->win+BPB_FATSz16);				/* Number of sectors per FAT */
     b94:	888005c3 	ldbu	r2,23(r17)
     b98:	89000583 	ldbu	r4,22(r17)
     b9c:	1004923a 	slli	r2,r2,8
     ba0:	1104b03a 	or	r2,r2,r4
	if (!fasize) fasize = LD_DWORD(fs->win+BPB_FATSz32);
     ba4:	10ffffcc 	andi	r3,r2,65535
     ba8:	18e0001c 	xori	r3,r3,32768
     bac:	18e00004 	addi	r3,r3,-32768
     bb0:	18008226 	beq	r3,zero,dbc <chk_mounted+0x2ec>
	/* An FAT volume is found. Following code initializes the file system object */

	if (LD_WORD(fs->win+BPB_BytsPerSec) != SS(fs))		/* (BPB_BytsPerSec must be equal to the physical sector size) */
		return FR_NO_FILESYSTEM;

	fasize = LD_WORD(fs->win+BPB_FATSz16);				/* Number of sectors per FAT */
     bb4:	123fffcc 	andi	r8,r2,65535
	if (!fasize) fasize = LD_DWORD(fs->win+BPB_FATSz32);
	fs->fsize = fasize;

	fs->n_fats = b = fs->win[BPB_NumFATs];				/* Number of FAT copies */
     bb8:	81801003 	ldbu	r6,64(r16)
	if (b != 1 && b != 2) return FR_NO_FILESYSTEM;		/* (Must be 1 or 2) */
     bbc:	00c00044 	movi	r3,1
	if (LD_WORD(fs->win+BPB_BytsPerSec) != SS(fs))		/* (BPB_BytsPerSec must be equal to the physical sector size) */
		return FR_NO_FILESYSTEM;

	fasize = LD_WORD(fs->win+BPB_FATSz16);				/* Number of sectors per FAT */
	if (!fasize) fasize = LD_DWORD(fs->win+BPB_FATSz32);
	fs->fsize = fasize;
     bc0:	82000715 	stw	r8,28(r16)

	fs->n_fats = b = fs->win[BPB_NumFATs];				/* Number of FAT copies */
	if (b != 1 && b != 2) return FR_NO_FILESYSTEM;		/* (Must be 1 or 2) */
     bc4:	30bfffc4 	addi	r2,r6,-1
     bc8:	10803fcc 	andi	r2,r2,255

	fasize = LD_WORD(fs->win+BPB_FATSz16);				/* Number of sectors per FAT */
	if (!fasize) fasize = LD_DWORD(fs->win+BPB_FATSz32);
	fs->fsize = fasize;

	fs->n_fats = b = fs->win[BPB_NumFATs];				/* Number of FAT copies */
     bcc:	818000c5 	stb	r6,3(r16)
	if (b != 1 && b != 2) return FR_NO_FILESYSTEM;		/* (Must be 1 or 2) */
     bd0:	18805636 	bltu	r3,r2,d2c <chk_mounted+0x25c>
	fasize *= b;										/* Number of sectors for FAT area */

	fs->csize = b = fs->win[BPB_SecPerClus];			/* Number of sectors per cluster */
     bd4:	80800f43 	ldbu	r2,61(r16)
	if (!b || (b & (b - 1))) return FR_NO_FILESYSTEM;	/* (Must be power of 2) */
     bd8:	1007883a 	mov	r3,r2

	fs->n_fats = b = fs->win[BPB_NumFATs];				/* Number of FAT copies */
	if (b != 1 && b != 2) return FR_NO_FILESYSTEM;		/* (Must be 1 or 2) */
	fasize *= b;										/* Number of sectors for FAT area */

	fs->csize = b = fs->win[BPB_SecPerClus];			/* Number of sectors per cluster */
     bdc:	80800085 	stb	r2,2(r16)
	if (!b || (b & (b - 1))) return FR_NO_FILESYSTEM;	/* (Must be power of 2) */
     be0:	10005226 	beq	r2,zero,d2c <chk_mounted+0x25c>
     be4:	10bfffc4 	addi	r2,r2,-1
     be8:	1884703a 	and	r2,r3,r2
     bec:	10004f1e 	bne	r2,zero,d2c <chk_mounted+0x25c>

	fs->n_rootdir = LD_WORD(fs->win+BPB_RootEntCnt);	/* Number of root directory entries */
     bf0:	88800483 	ldbu	r2,18(r17)
     bf4:	88c00443 	ldbu	r3,17(r17)
     bf8:	1004923a 	slli	r2,r2,8
     bfc:	10c4b03a 	or	r2,r2,r3
	if (fs->n_rootdir % (SS(fs) / SZ_DIR)) return FR_NO_FILESYSTEM;	/* (BPB_RootEntCnt must be sector aligned) */
     c00:	127fffcc 	andi	r9,r2,65535
     c04:	48c003cc 	andi	r3,r9,15
	fasize *= b;										/* Number of sectors for FAT area */

	fs->csize = b = fs->win[BPB_SecPerClus];			/* Number of sectors per cluster */
	if (!b || (b & (b - 1))) return FR_NO_FILESYSTEM;	/* (Must be power of 2) */

	fs->n_rootdir = LD_WORD(fs->win+BPB_RootEntCnt);	/* Number of root directory entries */
     c08:	8080020d 	sth	r2,8(r16)
	if (fs->n_rootdir % (SS(fs) / SZ_DIR)) return FR_NO_FILESYSTEM;	/* (BPB_RootEntCnt must be sector aligned) */
     c0c:	1800471e 	bne	r3,zero,d2c <chk_mounted+0x25c>

	tsect = LD_WORD(fs->win+BPB_TotSec16);				/* Number of sectors on the volume */
     c10:	88800503 	ldbu	r2,20(r17)
     c14:	890004c3 	ldbu	r4,19(r17)
     c18:	1004923a 	slli	r2,r2,8
     c1c:	1104b03a 	or	r2,r2,r4
	if (!tsect) tsect = LD_DWORD(fs->win+BPB_TotSec32);
     c20:	10ffffcc 	andi	r3,r2,65535
     c24:	18e0001c 	xori	r3,r3,32768
     c28:	18e00004 	addi	r3,r3,-32768
     c2c:	18007726 	beq	r3,zero,e0c <chk_mounted+0x33c>
	if (!b || (b & (b - 1))) return FR_NO_FILESYSTEM;	/* (Must be power of 2) */

	fs->n_rootdir = LD_WORD(fs->win+BPB_RootEntCnt);	/* Number of root directory entries */
	if (fs->n_rootdir % (SS(fs) / SZ_DIR)) return FR_NO_FILESYSTEM;	/* (BPB_RootEntCnt must be sector aligned) */

	tsect = LD_WORD(fs->win+BPB_TotSec16);				/* Number of sectors on the volume */
     c30:	11ffffcc 	andi	r7,r2,65535
	if (!tsect) tsect = LD_DWORD(fs->win+BPB_TotSec32);

	nrsv = LD_WORD(fs->win+BPB_RsvdSecCnt);				/* Number of reserved sectors */
     c34:	888003c3 	ldbu	r2,15(r17)
     c38:	89000383 	ldbu	r4,14(r17)
     c3c:	1004923a 	slli	r2,r2,8
     c40:	110ab03a 	or	r5,r2,r4
	if (!nrsv) return FR_NO_FILESYSTEM;					/* (BPB_RsvdSecCnt must not be 0) */
     c44:	28ffffcc 	andi	r3,r5,65535
     c48:	18e0001c 	xori	r3,r3,32768
     c4c:	18e00004 	addi	r3,r3,-32768
     c50:	18003626 	beq	r3,zero,d2c <chk_mounted+0x25c>
	if (!fasize) fasize = LD_DWORD(fs->win+BPB_FATSz32);
	fs->fsize = fasize;

	fs->n_fats = b = fs->win[BPB_NumFATs];				/* Number of FAT copies */
	if (b != 1 && b != 2) return FR_NO_FILESYSTEM;		/* (Must be 1 or 2) */
	fasize *= b;										/* Number of sectors for FAT area */
     c54:	30c03fcc 	andi	r3,r6,255

	nrsv = LD_WORD(fs->win+BPB_RsvdSecCnt);				/* Number of reserved sectors */
	if (!nrsv) return FR_NO_FILESYSTEM;					/* (BPB_RsvdSecCnt must not be 0) */

	/* Determine the FAT sub type */
	sysect = nrsv + fasize + fs->n_rootdir / (SS(fs) / SZ_DIR);	/* RSV+FAT+DIR */
     c58:	4804d13a 	srli	r2,r9,4
	if (!fasize) fasize = LD_DWORD(fs->win+BPB_FATSz32);
	fs->fsize = fasize;

	fs->n_fats = b = fs->win[BPB_NumFATs];				/* Number of FAT copies */
	if (b != 1 && b != 2) return FR_NO_FILESYSTEM;		/* (Must be 1 or 2) */
	fasize *= b;										/* Number of sectors for FAT area */
     c5c:	40d3383a 	mul	r9,r8,r3

	nrsv = LD_WORD(fs->win+BPB_RsvdSecCnt);				/* Number of reserved sectors */
	if (!nrsv) return FR_NO_FILESYSTEM;					/* (BPB_RsvdSecCnt must not be 0) */

	/* Determine the FAT sub type */
	sysect = nrsv + fasize + fs->n_rootdir / (SS(fs) / SZ_DIR);	/* RSV+FAT+DIR */
     c60:	2a3fffcc 	andi	r8,r5,65535
     c64:	4085883a 	add	r2,r8,r2
     c68:	488d883a 	add	r6,r9,r2
	if (tsect < sysect) return FR_NO_FILESYSTEM;		/* (Invalid volume size) */
     c6c:	39802f36 	bltu	r7,r6,d2c <chk_mounted+0x25c>
	nclst = (tsect - sysect) / fs->csize;				/* Number of clusters */
     c70:	80c00083 	ldbu	r3,2(r16)
     c74:	3985c83a 	sub	r2,r7,r6
     c78:	10c9203a 	divu	r4,r2,r3
	if (!nclst) return FR_NO_FILESYSTEM;				/* (Invalid volume size) */
     c7c:	20002b26 	beq	r4,zero,d2c <chk_mounted+0x25c>
	fmt = FS_FAT12;
	if (nclst >= MIN_FAT16) fmt = FS_FAT16;
     c80:	0083fd44 	movi	r2,4085
     c84:	1100cf36 	bltu	r2,r4,fc4 <chk_mounted+0x4f4>
     c88:	04c00044 	movi	r19,1
	if (fmt == FS_FAT32) {
		if (fs->n_rootdir) return FR_NO_FILESYSTEM;		/* (BPB_RootEntCnt must be 0) */
		fs->dirbase = LD_DWORD(fs->win+BPB_RootClus);	/* Root directory start cluster */
		szbfat = fs->n_fatent * 4;						/* (Required FAT size) */
	} else {
		if (!fs->n_rootdir)	return FR_NO_FILESYSTEM;	/* (BPB_RootEntCnt must not be 0) */
     c8c:	80c0020b 	ldhu	r3,8(r16)
	fmt = FS_FAT12;
	if (nclst >= MIN_FAT16) fmt = FS_FAT16;
	if (nclst >= MIN_FAT32) fmt = FS_FAT32;

	/* Boundaries and Limits */
	fs->n_fatent = nclst + 2;							/* Number of FAT entries */
     c90:	21400084 	addi	r5,r4,2
	fs->database = bsect + sysect;						/* Data start sector */
     c94:	9185883a 	add	r2,r18,r6
	fs->fatbase = bsect + nrsv; 						/* FAT start sector */
     c98:	9209883a 	add	r4,r18,r8
	if (nclst >= MIN_FAT16) fmt = FS_FAT16;
	if (nclst >= MIN_FAT32) fmt = FS_FAT32;

	/* Boundaries and Limits */
	fs->n_fatent = nclst + 2;							/* Number of FAT entries */
	fs->database = bsect + sysect;						/* Data start sector */
     c9c:	80800a15 	stw	r2,40(r16)
	fmt = FS_FAT12;
	if (nclst >= MIN_FAT16) fmt = FS_FAT16;
	if (nclst >= MIN_FAT32) fmt = FS_FAT32;

	/* Boundaries and Limits */
	fs->n_fatent = nclst + 2;							/* Number of FAT entries */
     ca0:	81400615 	stw	r5,24(r16)
	fs->database = bsect + sysect;						/* Data start sector */
	fs->fatbase = bsect + nrsv; 						/* FAT start sector */
     ca4:	81000815 	stw	r4,32(r16)
	if (fmt == FS_FAT32) {
		if (fs->n_rootdir) return FR_NO_FILESYSTEM;		/* (BPB_RootEntCnt must be 0) */
		fs->dirbase = LD_DWORD(fs->win+BPB_RootClus);	/* Root directory start cluster */
		szbfat = fs->n_fatent * 4;						/* (Required FAT size) */
	} else {
		if (!fs->n_rootdir)	return FR_NO_FILESYSTEM;	/* (BPB_RootEntCnt must not be 0) */
     ca8:	18002026 	beq	r3,zero,d2c <chk_mounted+0x25c>
		fs->dirbase = fs->fatbase + fasize;				/* Root directory start sector */
     cac:	4905883a 	add	r2,r9,r4
		szbfat = (fmt == FS_FAT16) ?					/* (Required FAT size) */
     cb0:	00c00084 	movi	r3,2
     cb4:	99003fcc 	andi	r4,r19,255
		if (fs->n_rootdir) return FR_NO_FILESYSTEM;		/* (BPB_RootEntCnt must be 0) */
		fs->dirbase = LD_DWORD(fs->win+BPB_RootClus);	/* Root directory start cluster */
		szbfat = fs->n_fatent * 4;						/* (Required FAT size) */
	} else {
		if (!fs->n_rootdir)	return FR_NO_FILESYSTEM;	/* (BPB_RootEntCnt must not be 0) */
		fs->dirbase = fs->fatbase + fasize;				/* Root directory start sector */
     cb8:	80800915 	stw	r2,36(r16)
		szbfat = (fmt == FS_FAT16) ?					/* (Required FAT size) */
     cbc:	20c0bd26 	beq	r4,r3,fb4 <chk_mounted+0x4e4>
     cc0:	2945883a 	add	r2,r5,r5
     cc4:	1145883a 	add	r2,r2,r5
     cc8:	1004d07a 	srli	r2,r2,1
     ccc:	28c0004c 	andi	r3,r5,1
     cd0:	10c5883a 	add	r2,r2,r3
			fs->n_fatent * 2 : fs->n_fatent * 3 / 2 + (fs->n_fatent & 1);
	}
	if (fs->fsize < (szbfat + (SS(fs) - 1)) / SS(fs))	/* (BPB_FATSz must not be less than required) */
     cd4:	10807fc4 	addi	r2,r2,511
     cd8:	1004d27a 	srli	r2,r2,9
     cdc:	80c00717 	ldw	r3,28(r16)
     ce0:	18801236 	bltu	r3,r2,d2c <chk_mounted+0x25c>
		return FR_NO_FILESYSTEM;

#if !_FS_READONLY
	/* Initialize cluster allocation information */
	fs->free_clust = 0xFFFFFFFF;
     ce4:	00ffffc4 	movi	r3,-1
     ce8:	80c00415 	stw	r3,16(r16)
	fs->last_clust = 0;

	/* Get fsinfo if available */
	if (fmt == FS_FAT32) {
     cec:	98803fcc 	andi	r2,r19,255
     cf0:	00c000c4 	movi	r3,3
		return FR_NO_FILESYSTEM;

#if !_FS_READONLY
	/* Initialize cluster allocation information */
	fs->free_clust = 0xFFFFFFFF;
	fs->last_clust = 0;
     cf4:	80000315 	stw	zero,12(r16)

	/* Get fsinfo if available */
	if (fmt == FS_FAT32) {
     cf8:	10c04f26 	beq	r2,r3,e38 <chk_mounted+0x368>
				fs->last_clust = LD_DWORD(fs->win+FSI_Nxt_Free);
				fs->free_clust = LD_DWORD(fs->win+FSI_Free_Count);
		}
	}
#endif
	fs->fs_type = fmt;		/* FAT sub-type */
     cfc:	84c00005 	stb	r19,0(r16)
	fs->id = ++Fsid;		/* File system mount ID */
     d00:	d0a0120b 	ldhu	r2,-32696(gp)
	fs->winsect = 0;		/* Invalidate sector cache */
	fs->wflag = 0;
     d04:	0007883a 	mov	r3,zero
		}
	}
#endif
	fs->fs_type = fmt;		/* FAT sub-type */
	fs->id = ++Fsid;		/* File system mount ID */
	fs->winsect = 0;		/* Invalidate sector cache */
     d08:	80000b15 	stw	zero,44(r16)
				fs->free_clust = LD_DWORD(fs->win+FSI_Free_Count);
		}
	}
#endif
	fs->fs_type = fmt;		/* FAT sub-type */
	fs->id = ++Fsid;		/* File system mount ID */
     d0c:	10800044 	addi	r2,r2,1
     d10:	d0a0120d 	sth	r2,-32696(gp)
     d14:	8080018d 	sth	r2,6(r16)
	fs->winsect = 0;		/* Invalidate sector cache */
	fs->wflag = 0;
     d18:	80000105 	stb	zero,4(r16)
     d1c:	00000406 	br	d30 <chk_mounted+0x260>
	if (LD2PT(vol) && !fmt) fmt = 1;	/* Force non-SFD if the volume is forced partition */
	if (fmt == 1) {						/* Not an FAT-VBR, the physical drive can be partitioned */
		/* Check the partition listed in the partition table */
		pi = LD2PT(vol);
		if (pi) pi--;
		tbl = &fs->win[MBR_Table + pi * SZ_PTE];/* Partition table */
     d20:	81407b84 	addi	r5,r16,494
		if (tbl[4]) {						/* Is the partition existing? */
     d24:	28800103 	ldbu	r2,4(r5)
     d28:	1000891e 	bne	r2,zero,f50 <chk_mounted+0x480>
#endif
#if _FS_SHARE				/* Clear file lock semaphores */
	clear_lock(fs);
#endif

	return FR_OK;
     d2c:	00c00344 	movi	r3,13
}
     d30:	1805883a 	mov	r2,r3
     d34:	dfc00417 	ldw	ra,16(sp)
     d38:	dcc00317 	ldw	r19,12(sp)
     d3c:	dc800217 	ldw	r18,8(sp)
     d40:	dc400117 	ldw	r17,4(sp)
     d44:	dc000017 	ldw	r16,0(sp)
     d48:	dec00504 	addi	sp,sp,20
     d4c:	f800283a 	ret
	/* Following code attempts to mount the volume. (analyze BPB and initialize the fs object) */

	fs->fs_type = 0;					/* Clear the file system object */
	fs->drv = LD2PD(vol);				/* Bind the logical drive and a physical drive */
	stat = disk_initialize(fs->drv);	/* Initialize low level disk I/O layer */
	if (stat & STA_NOINIT)				/* Check if the initialization succeeded */
     d50:	00c000c4 	movi	r3,3
#if _FS_SHARE				/* Clear file lock semaphores */
	clear_lock(fs);
#endif

	return FR_OK;
}
     d54:	1805883a 	mov	r2,r3
     d58:	dfc00417 	ldw	ra,16(sp)
     d5c:	dcc00317 	ldw	r19,12(sp)
     d60:	dc800217 	ldw	r18,8(sp)
     d64:	dc400117 	ldw	r17,4(sp)
     d68:	dc000017 	ldw	r16,0(sp)
     d6c:	dec00504 	addi	sp,sp,20
     d70:	f800283a 	ret
	if (!fs) return FR_NOT_ENABLED;		/* Is the file system object available? */

	ENTER_FF(fs);						/* Lock file system */

	if (fs->fs_type) {					/* If the logical drive has been mounted */
		stat = disk_status(fs->drv);
     d74:	81000043 	ldbu	r4,1(r16)
     d78:	000493c0 	call	493c <disk_status>
		if (!(stat & STA_NOINIT)) {		/* and the physical drive is kept initialized (has not been changed), */
     d7c:	10c03fcc 	andi	r3,r2,255
     d80:	1880004c 	andi	r2,r3,1
     d84:	103f631e 	bne	r2,zero,b14 <chk_mounted+0x44>
			if (!_FS_READONLY && chk_wp && (stat & STA_PROTECT))	/* Check write protection if needed */
     d88:	88803fcc 	andi	r2,r17,255
     d8c:	10008726 	beq	r2,zero,fac <chk_mounted+0x4dc>
     d90:	1880010c 	andi	r2,r3,4
     d94:	10008526 	beq	r2,zero,fac <chk_mounted+0x4dc>
#endif
#if _FS_SHARE				/* Clear file lock semaphores */
	clear_lock(fs);
#endif

	return FR_OK;
     d98:	00c00284 	movi	r3,10
}
     d9c:	1805883a 	mov	r2,r3
     da0:	dfc00417 	ldw	ra,16(sp)
     da4:	dcc00317 	ldw	r19,12(sp)
     da8:	dc800217 	ldw	r18,8(sp)
     dac:	dc400117 	ldw	r17,4(sp)
     db0:	dc000017 	ldw	r16,0(sp)
     db4:	dec00504 	addi	sp,sp,20
     db8:	f800283a 	ret

	if (LD_WORD(fs->win+BPB_BytsPerSec) != SS(fs))		/* (BPB_BytsPerSec must be equal to the physical sector size) */
		return FR_NO_FILESYSTEM;

	fasize = LD_WORD(fs->win+BPB_FATSz16);				/* Number of sectors per FAT */
	if (!fasize) fasize = LD_DWORD(fs->win+BPB_FATSz32);
     dbc:	888009c3 	ldbu	r2,39(r17)
     dc0:	88c00983 	ldbu	r3,38(r17)
     dc4:	89000943 	ldbu	r4,37(r17)
     dc8:	1004963a 	slli	r2,r2,24
     dcc:	1806943a 	slli	r3,r3,16
     dd0:	89400903 	ldbu	r5,36(r17)
     dd4:	2008923a 	slli	r4,r4,8
     dd8:	10c4b03a 	or	r2,r2,r3
     ddc:	1144b03a 	or	r2,r2,r5
     de0:	2090b03a 	or	r8,r4,r2
     de4:	003f7406 	br	bb8 <chk_mounted+0xe8>

	/* Check if the file system object is valid or not */
	if (vol >= _VOLUMES) 				/* Is the drive number valid? */
		return FR_INVALID_DRIVE;
	*rfs = fs = FatFs[vol];				/* Return pointer to the corresponding file system object */
	if (!fs) return FR_NOT_ENABLED;		/* Is the file system object available? */
     de8:	00c00304 	movi	r3,12
#if _FS_SHARE				/* Clear file lock semaphores */
	clear_lock(fs);
#endif

	return FR_OK;
}
     dec:	1805883a 	mov	r2,r3
     df0:	dfc00417 	ldw	ra,16(sp)
     df4:	dcc00317 	ldw	r19,12(sp)
     df8:	dc800217 	ldw	r18,8(sp)
     dfc:	dc400117 	ldw	r17,4(sp)
     e00:	dc000017 	ldw	r16,0(sp)
     e04:	dec00504 	addi	sp,sp,20
     e08:	f800283a 	ret

	fs->n_rootdir = LD_WORD(fs->win+BPB_RootEntCnt);	/* Number of root directory entries */
	if (fs->n_rootdir % (SS(fs) / SZ_DIR)) return FR_NO_FILESYSTEM;	/* (BPB_RootEntCnt must be sector aligned) */

	tsect = LD_WORD(fs->win+BPB_TotSec16);				/* Number of sectors on the volume */
	if (!tsect) tsect = LD_DWORD(fs->win+BPB_TotSec32);
     e0c:	888008c3 	ldbu	r2,35(r17)
     e10:	88c00883 	ldbu	r3,34(r17)
     e14:	89000843 	ldbu	r4,33(r17)
     e18:	1004963a 	slli	r2,r2,24
     e1c:	1806943a 	slli	r3,r3,16
     e20:	89400803 	ldbu	r5,32(r17)
     e24:	2008923a 	slli	r4,r4,8
     e28:	10c4b03a 	or	r2,r2,r3
     e2c:	1144b03a 	or	r2,r2,r5
     e30:	208eb03a 	or	r7,r4,r2
     e34:	003f7f06 	br	c34 <chk_mounted+0x164>
	fs->free_clust = 0xFFFFFFFF;
	fs->last_clust = 0;

	/* Get fsinfo if available */
	if (fmt == FS_FAT32) {
	 	fs->fsi_flag = 0;
     e38:	80000145 	stb	zero,5(r16)
		fs->fsi_sector = bsect + LD_WORD(fs->win+BPB_FSInfo);
     e3c:	89800c43 	ldbu	r6,49(r17)
     e40:	88800c03 	ldbu	r2,48(r17)
		if (disk_read(fs->drv, fs->win, fs->fsi_sector, 1) == RES_OK &&
     e44:	81000043 	ldbu	r4,1(r16)
	fs->last_clust = 0;

	/* Get fsinfo if available */
	if (fmt == FS_FAT32) {
	 	fs->fsi_flag = 0;
		fs->fsi_sector = bsect + LD_WORD(fs->win+BPB_FSInfo);
     e48:	300c923a 	slli	r6,r6,8
		if (disk_read(fs->drv, fs->win, fs->fsi_sector, 1) == RES_OK &&
     e4c:	880b883a 	mov	r5,r17
     e50:	01c00044 	movi	r7,1
	fs->last_clust = 0;

	/* Get fsinfo if available */
	if (fmt == FS_FAT32) {
	 	fs->fsi_flag = 0;
		fs->fsi_sector = bsect + LD_WORD(fs->win+BPB_FSInfo);
     e54:	308cb03a 	or	r6,r6,r2
     e58:	918d883a 	add	r6,r18,r6
     e5c:	81800515 	stw	r6,20(r16)
		if (disk_read(fs->drv, fs->win, fs->fsi_sector, 1) == RES_OK &&
     e60:	0004d0c0 	call	4d0c <disk_read>
     e64:	103fa51e 	bne	r2,zero,cfc <chk_mounted+0x22c>
     e68:	88807fc3 	ldbu	r2,511(r17)
     e6c:	88c07f83 	ldbu	r3,510(r17)
     e70:	1004923a 	slli	r2,r2,8
     e74:	10c4b03a 	or	r2,r2,r3
     e78:	10bfffcc 	andi	r2,r2,65535
     e7c:	10a0001c 	xori	r2,r2,32768
     e80:	10a00004 	addi	r2,r2,-32768
     e84:	00ea9544 	movi	r3,-21931
     e88:	10ff9c1e 	bne	r2,r3,cfc <chk_mounted+0x22c>
     e8c:	888000c3 	ldbu	r2,3(r17)
     e90:	88c00083 	ldbu	r3,2(r17)
     e94:	89000043 	ldbu	r4,1(r17)
     e98:	1004963a 	slli	r2,r2,24
     e9c:	1806943a 	slli	r3,r3,16
     ea0:	81400c03 	ldbu	r5,48(r16)
     ea4:	2008923a 	slli	r4,r4,8
     ea8:	10c4b03a 	or	r2,r2,r3
     eac:	1144b03a 	or	r2,r2,r5
     eb0:	2088b03a 	or	r4,r4,r2
     eb4:	00d05874 	movhi	r3,16737
     eb8:	18d49484 	addi	r3,r3,21074
     ebc:	20ff8f1e 	bne	r4,r3,cfc <chk_mounted+0x22c>
     ec0:	888079c3 	ldbu	r2,487(r17)
     ec4:	88c07983 	ldbu	r3,486(r17)
     ec8:	89007943 	ldbu	r4,485(r17)
     ecc:	1004963a 	slli	r2,r2,24
     ed0:	1806943a 	slli	r3,r3,16
     ed4:	89407903 	ldbu	r5,484(r17)
     ed8:	2008923a 	slli	r4,r4,8
     edc:	10c4b03a 	or	r2,r2,r3
     ee0:	1144b03a 	or	r2,r2,r5
     ee4:	2088b03a 	or	r4,r4,r2
     ee8:	00d85074 	movhi	r3,24897
     eec:	18dc9c84 	addi	r3,r3,29298
     ef0:	20ff821e 	bne	r4,r3,cfc <chk_mounted+0x22c>
			LD_WORD(fs->win+BS_55AA) == 0xAA55 &&
			LD_DWORD(fs->win+FSI_LeadSig) == 0x41615252 &&
			LD_DWORD(fs->win+FSI_StrucSig) == 0x61417272) {
				fs->last_clust = LD_DWORD(fs->win+FSI_Nxt_Free);
     ef4:	88807bc3 	ldbu	r2,495(r17)
     ef8:	89007b83 	ldbu	r4,494(r17)
     efc:	88c07b43 	ldbu	r3,493(r17)
     f00:	1004963a 	slli	r2,r2,24
     f04:	2008943a 	slli	r4,r4,16
     f08:	89407b03 	ldbu	r5,492(r17)
     f0c:	1806923a 	slli	r3,r3,8
     f10:	1104b03a 	or	r2,r2,r4
     f14:	1144b03a 	or	r2,r2,r5
     f18:	1886b03a 	or	r3,r3,r2
     f1c:	80c00315 	stw	r3,12(r16)
				fs->free_clust = LD_DWORD(fs->win+FSI_Free_Count);
     f20:	88807ac3 	ldbu	r2,491(r17)
     f24:	89007a83 	ldbu	r4,490(r17)
     f28:	88c07a43 	ldbu	r3,489(r17)
     f2c:	1004963a 	slli	r2,r2,24
     f30:	2008943a 	slli	r4,r4,16
     f34:	89407a03 	ldbu	r5,488(r17)
     f38:	1806923a 	slli	r3,r3,8
     f3c:	1104b03a 	or	r2,r2,r4
     f40:	1144b03a 	or	r2,r2,r5
     f44:	1886b03a 	or	r3,r3,r2
     f48:	80c00415 	stw	r3,16(r16)
     f4c:	003f6b06 	br	cfc <chk_mounted+0x22c>
		/* Check the partition listed in the partition table */
		pi = LD2PT(vol);
		if (pi) pi--;
		tbl = &fs->win[MBR_Table + pi * SZ_PTE];/* Partition table */
		if (tbl[4]) {						/* Is the partition existing? */
			bsect = LD_DWORD(&tbl[8]);		/* Partition offset in LBA */
     f50:	288002c3 	ldbu	r2,11(r5)
     f54:	28c00283 	ldbu	r3,10(r5)
     f58:	29000243 	ldbu	r4,9(r5)
     f5c:	1004963a 	slli	r2,r2,24
     f60:	1806943a 	slli	r3,r3,16
     f64:	29400203 	ldbu	r5,8(r5)
     f68:	2008923a 	slli	r4,r4,8
     f6c:	10c4b03a 	or	r2,r2,r3
     f70:	1144b03a 	or	r2,r2,r5
     f74:	20a4b03a 	or	r18,r4,r2
			fmt = check_fs(fs, bsect);		/* Check the partition */
     f78:	900b883a 	mov	r5,r18
     f7c:	8009883a 	mov	r4,r16
     f80:	00009dc0 	call	9dc <check_fs>
     f84:	10c03fcc 	andi	r3,r2,255
     f88:	003ef506 	br	b60 <chk_mounted+0x90>
	const TCHAR *p = *path;
	FATFS *fs;

	/* Get logical drive number from the path name */
	vol = p[0] - '0';					/* Is there a drive number? */
	if (vol <= 9 && p[1] == ':') {		/* Found a drive number, get and strip it */
     f8c:	38c00047 	ldb	r3,1(r7)
     f90:	00800e84 	movi	r2,58
     f94:	18beda1e 	bne	r3,r2,b00 <chk_mounted+0x30>
		p += 2; *path = p;				/* Return pointer to the path name */
     f98:	38800084 	addi	r2,r7,2
     f9c:	20800015 	stw	r2,0(r4)
		vol = 0;						/* Use drive 0 */
#endif
	}

	/* Check if the file system object is valid or not */
	if (vol >= _VOLUMES) 				/* Is the drive number valid? */
     fa0:	303ed726 	beq	r6,zero,b00 <chk_mounted+0x30>
     fa4:	00c002c4 	movi	r3,11
     fa8:	003f6106 	br	d30 <chk_mounted+0x260>
#endif
#if _FS_SHARE				/* Clear file lock semaphores */
	clear_lock(fs);
#endif

	return FR_OK;
     fac:	0007883a 	mov	r3,zero
     fb0:	003f5f06 	br	d30 <chk_mounted+0x260>
		fs->dirbase = LD_DWORD(fs->win+BPB_RootClus);	/* Root directory start cluster */
		szbfat = fs->n_fatent * 4;						/* (Required FAT size) */
	} else {
		if (!fs->n_rootdir)	return FR_NO_FILESYSTEM;	/* (BPB_RootEntCnt must not be 0) */
		fs->dirbase = fs->fatbase + fasize;				/* Root directory start sector */
		szbfat = (fmt == FS_FAT16) ?					/* (Required FAT size) */
     fb4:	2945883a 	add	r2,r5,r5
     fb8:	003f4606 	br	cd4 <chk_mounted+0x204>
		if (tbl[4]) {						/* Is the partition existing? */
			bsect = LD_DWORD(&tbl[8]);		/* Partition offset in LBA */
			fmt = check_fs(fs, bsect);		/* Check the partition */
		}
	}
	if (fmt == 3) return FR_DISK_ERR;
     fbc:	00c00044 	movi	r3,1
     fc0:	003f5b06 	br	d30 <chk_mounted+0x260>
	if (tsect < sysect) return FR_NO_FILESYSTEM;		/* (Invalid volume size) */
	nclst = (tsect - sysect) / fs->csize;				/* Number of clusters */
	if (!nclst) return FR_NO_FILESYSTEM;				/* (Invalid volume size) */
	fmt = FS_FAT12;
	if (nclst >= MIN_FAT16) fmt = FS_FAT16;
	if (nclst >= MIN_FAT32) fmt = FS_FAT32;
     fc4:	00bffd54 	movui	r2,65525
     fc8:	1100182e 	bgeu	r2,r4,102c <chk_mounted+0x55c>
	/* Boundaries and Limits */
	fs->n_fatent = nclst + 2;							/* Number of FAT entries */
	fs->database = bsect + sysect;						/* Data start sector */
	fs->fatbase = bsect + nrsv; 						/* FAT start sector */
	if (fmt == FS_FAT32) {
		if (fs->n_rootdir) return FR_NO_FILESYSTEM;		/* (BPB_RootEntCnt must be 0) */
     fcc:	8140020b 	ldhu	r5,8(r16)
	fmt = FS_FAT12;
	if (nclst >= MIN_FAT16) fmt = FS_FAT16;
	if (nclst >= MIN_FAT32) fmt = FS_FAT32;

	/* Boundaries and Limits */
	fs->n_fatent = nclst + 2;							/* Number of FAT entries */
     fd0:	20800084 	addi	r2,r4,2
	fs->database = bsect + sysect;						/* Data start sector */
     fd4:	9187883a 	add	r3,r18,r6
	fs->fatbase = bsect + nrsv; 						/* FAT start sector */
     fd8:	9209883a 	add	r4,r18,r8
	fmt = FS_FAT12;
	if (nclst >= MIN_FAT16) fmt = FS_FAT16;
	if (nclst >= MIN_FAT32) fmt = FS_FAT32;

	/* Boundaries and Limits */
	fs->n_fatent = nclst + 2;							/* Number of FAT entries */
     fdc:	80800615 	stw	r2,24(r16)
	fs->database = bsect + sysect;						/* Data start sector */
     fe0:	80c00a15 	stw	r3,40(r16)
	fs->fatbase = bsect + nrsv; 						/* FAT start sector */
     fe4:	81000815 	stw	r4,32(r16)
	if (fmt == FS_FAT32) {
		if (fs->n_rootdir) return FR_NO_FILESYSTEM;		/* (BPB_RootEntCnt must be 0) */
     fe8:	283f501e 	bne	r5,zero,d2c <chk_mounted+0x25c>
		fs->dirbase = LD_DWORD(fs->win+BPB_RootClus);	/* Root directory start cluster */
     fec:	88800bc3 	ldbu	r2,47(r17)
     ff0:	89000b83 	ldbu	r4,46(r17)
     ff4:	89400b43 	ldbu	r5,45(r17)
     ff8:	1004963a 	slli	r2,r2,24
     ffc:	2008943a 	slli	r4,r4,16
    1000:	89800b03 	ldbu	r6,44(r17)
		szbfat = fs->n_fatent * 4;						/* (Required FAT size) */
    1004:	80c00617 	ldw	r3,24(r16)
	fs->n_fatent = nclst + 2;							/* Number of FAT entries */
	fs->database = bsect + sysect;						/* Data start sector */
	fs->fatbase = bsect + nrsv; 						/* FAT start sector */
	if (fmt == FS_FAT32) {
		if (fs->n_rootdir) return FR_NO_FILESYSTEM;		/* (BPB_RootEntCnt must be 0) */
		fs->dirbase = LD_DWORD(fs->win+BPB_RootClus);	/* Root directory start cluster */
    1008:	280a923a 	slli	r5,r5,8
    100c:	1104b03a 	or	r2,r2,r4
    1010:	1184b03a 	or	r2,r2,r6
		szbfat = fs->n_fatent * 4;						/* (Required FAT size) */
    1014:	18c7883a 	add	r3,r3,r3
	fs->n_fatent = nclst + 2;							/* Number of FAT entries */
	fs->database = bsect + sysect;						/* Data start sector */
	fs->fatbase = bsect + nrsv; 						/* FAT start sector */
	if (fmt == FS_FAT32) {
		if (fs->n_rootdir) return FR_NO_FILESYSTEM;		/* (BPB_RootEntCnt must be 0) */
		fs->dirbase = LD_DWORD(fs->win+BPB_RootClus);	/* Root directory start cluster */
    1018:	288ab03a 	or	r5,r5,r2
		szbfat = fs->n_fatent * 4;						/* (Required FAT size) */
    101c:	04c000c4 	movi	r19,3
    1020:	18c5883a 	add	r2,r3,r3
	fs->n_fatent = nclst + 2;							/* Number of FAT entries */
	fs->database = bsect + sysect;						/* Data start sector */
	fs->fatbase = bsect + nrsv; 						/* FAT start sector */
	if (fmt == FS_FAT32) {
		if (fs->n_rootdir) return FR_NO_FILESYSTEM;		/* (BPB_RootEntCnt must be 0) */
		fs->dirbase = LD_DWORD(fs->win+BPB_RootClus);	/* Root directory start cluster */
    1024:	81400915 	stw	r5,36(r16)
    1028:	003f2a06 	br	cd4 <chk_mounted+0x204>
	if (tsect < sysect) return FR_NO_FILESYSTEM;		/* (Invalid volume size) */
	nclst = (tsect - sysect) / fs->csize;				/* Number of clusters */
	if (!nclst) return FR_NO_FILESYSTEM;				/* (Invalid volume size) */
	fmt = FS_FAT12;
	if (nclst >= MIN_FAT16) fmt = FS_FAT16;
	if (nclst >= MIN_FAT32) fmt = FS_FAT32;
    102c:	04c00084 	movi	r19,2
    1030:	003f1606 	br	c8c <chk_mounted+0x1bc>

00001034 <get_fileinfo>:
	BYTE nt, *dir;
	TCHAR *p, c;


	p = fno->fname;
	if (dj->sect) {
    1034:	20800417 	ldw	r2,16(r4)
static
void get_fileinfo (		/* No return code */
	DIR *dj,			/* Pointer to the directory object */
	FILINFO *fno	 	/* Pointer to the file information to be filled */
)
{
    1038:	defffa04 	addi	sp,sp,-24
    103c:	dcc00315 	stw	r19,12(sp)
    1040:	dfc00515 	stw	ra,20(sp)
    1044:	dd000415 	stw	r20,16(sp)
    1048:	dc800215 	stw	r18,8(sp)
    104c:	dc400115 	stw	r17,4(sp)
    1050:	dc000015 	stw	r16,0(sp)
    1054:	2017883a 	mov	r11,r4
    1058:	2827883a 	mov	r19,r5
	UINT i;
	BYTE nt, *dir;
	TCHAR *p, c;


	p = fno->fname;
    105c:	29800244 	addi	r6,r5,9
	if (dj->sect) {
    1060:	10004826 	beq	r2,zero,1184 <get_fileinfo+0x150>
		dir = dj->dir;
    1064:	22000517 	ldw	r8,20(r4)
		nt = dir[DIR_NTres];		/* NT flag */
    1068:	000f883a 	mov	r7,zero
    106c:	03400804 	movi	r13,32
    1070:	40c00303 	ldbu	r3,12(r8)
    1074:	03000144 	movi	r12,5
    1078:	03800644 	movi	r14,25
    107c:	1880020c 	andi	r2,r3,8
    1080:	1013003a 	cmpeq	r9,r2,zero
    1084:	02800204 	movi	r10,8
		for (i = 0; i < 8; i++) {	/* Copy name body */
			c = dir[i];
    1088:	41c5883a 	add	r2,r8,r7
    108c:	10800003 	ldbu	r2,0(r2)
			if (c == ' ') break;
			if (c == NDDE) c = (TCHAR)DDE;
    1090:	017ff944 	movi	r5,-27
	if (dj->sect) {
		dir = dj->dir;
		nt = dir[DIR_NTres];		/* NT flag */
		for (i = 0; i < 8; i++) {	/* Copy name body */
			c = dir[i];
			if (c == ' ') break;
    1094:	11003fcc 	andi	r4,r2,255
    1098:	23400b26 	beq	r4,r13,10c8 <get_fileinfo+0x94>
			if (c == NDDE) c = (TCHAR)DDE;
    109c:	23000126 	beq	r4,r12,10a4 <get_fileinfo+0x70>
	p = fno->fname;
	if (dj->sect) {
		dir = dj->dir;
		nt = dir[DIR_NTres];		/* NT flag */
		for (i = 0; i < 8; i++) {	/* Copy name body */
			c = dir[i];
    10a0:	100b883a 	mov	r5,r2
			if (c == ' ') break;
			if (c == NDDE) c = (TCHAR)DDE;
			if (_USE_LFN && (nt & NS_BODY) && IsUpper(c)) c += 0x20;
    10a4:	28bfefc4 	addi	r2,r5,-65

	p = fno->fname;
	if (dj->sect) {
		dir = dj->dir;
		nt = dir[DIR_NTres];		/* NT flag */
		for (i = 0; i < 8; i++) {	/* Copy name body */
    10a8:	39c00044 	addi	r7,r7,1
			c = dir[i];
			if (c == ' ') break;
			if (c == NDDE) c = (TCHAR)DDE;
			if (_USE_LFN && (nt & NS_BODY) && IsUpper(c)) c += 0x20;
    10ac:	10803fcc 	andi	r2,r2,255
    10b0:	4800021e 	bne	r9,zero,10bc <get_fileinfo+0x88>
    10b4:	70800136 	bltu	r14,r2,10bc <get_fileinfo+0x88>
    10b8:	29400804 	addi	r5,r5,32
			if (IsDBCS1(c) && i < 7 && IsDBCS2(dir[i+1]))
				c = (c << 8) | dir[++i];
			c = ff_convert(c, 1);
			if (!c) c = '?';
#endif
			*p++ = c;
    10bc:	31400005 	stb	r5,0(r6)
    10c0:	31800044 	addi	r6,r6,1

	p = fno->fname;
	if (dj->sect) {
		dir = dj->dir;
		nt = dir[DIR_NTres];		/* NT flag */
		for (i = 0; i < 8; i++) {	/* Copy name body */
    10c4:	3abff01e 	bne	r7,r10,1088 <get_fileinfo+0x54>
			c = ff_convert(c, 1);
			if (!c) c = '?';
#endif
			*p++ = c;
		}
		if (dir[8] != ' ') {		/* Copy name extension */
    10c8:	40800203 	ldbu	r2,8(r8)
    10cc:	01000804 	movi	r4,32
    10d0:	11001526 	beq	r2,r4,1128 <get_fileinfo+0xf4>
    10d4:	18c0040c 	andi	r3,r3,16
			*p++ = '.';
    10d8:	00800b84 	movi	r2,46
    10dc:	30800005 	stb	r2,0(r6)
    10e0:	31c00104 	addi	r7,r6,4
    10e4:	2013883a 	mov	r9,r4
    10e8:	1807003a 	cmpeq	r3,r3,zero
    10ec:	31800044 	addi	r6,r6,1
    10f0:	400b883a 	mov	r5,r8
    10f4:	02800644 	movi	r10,25
			for (i = 8; i < 11; i++) {
				c = dir[i];
    10f8:	29000203 	ldbu	r4,8(r5)
				if (IsDBCS1(c) && i < 10 && IsDBCS2(dir[i+1]))
					c = (c << 8) | dir[++i];
				c = ff_convert(c, 1);
				if (!c) c = '?';
#endif
				*p++ = c;
    10fc:	29400044 	addi	r5,r5,1
		}
		if (dir[8] != ' ') {		/* Copy name extension */
			*p++ = '.';
			for (i = 8; i < 11; i++) {
				c = dir[i];
				if (c == ' ') break;
    1100:	20803fcc 	andi	r2,r4,255
    1104:	12400826 	beq	r2,r9,1128 <get_fileinfo+0xf4>
				if (_USE_LFN && (nt & NS_EXT) && IsUpper(c)) c += 0x20;
    1108:	20bfefc4 	addi	r2,r4,-65
    110c:	10803fcc 	andi	r2,r2,255
    1110:	1800021e 	bne	r3,zero,111c <get_fileinfo+0xe8>
    1114:	50800136 	bltu	r10,r2,111c <get_fileinfo+0xe8>
    1118:	21000804 	addi	r4,r4,32
				if (IsDBCS1(c) && i < 10 && IsDBCS2(dir[i+1]))
					c = (c << 8) | dir[++i];
				c = ff_convert(c, 1);
				if (!c) c = '?';
#endif
				*p++ = c;
    111c:	31000005 	stb	r4,0(r6)
    1120:	31800044 	addi	r6,r6,1
#endif
			*p++ = c;
		}
		if (dir[8] != ' ') {		/* Copy name extension */
			*p++ = '.';
			for (i = 8; i < 11; i++) {
    1124:	31fff41e 	bne	r6,r7,10f8 <get_fileinfo+0xc4>
				if (!c) c = '?';
#endif
				*p++ = c;
			}
		}
		fno->fattrib = dir[DIR_Attr];				/* Attribute */
    1128:	40c002c3 	ldbu	r3,11(r8)
    112c:	98c00205 	stb	r3,8(r19)
		fno->fsize = LD_DWORD(dir+DIR_FileSize);	/* Size */
    1130:	408007c3 	ldbu	r2,31(r8)
    1134:	41000783 	ldbu	r4,30(r8)
    1138:	40c00743 	ldbu	r3,29(r8)
    113c:	1004963a 	slli	r2,r2,24
    1140:	2008943a 	slli	r4,r4,16
    1144:	41400703 	ldbu	r5,28(r8)
    1148:	1806923a 	slli	r3,r3,8
    114c:	1104b03a 	or	r2,r2,r4
    1150:	1144b03a 	or	r2,r2,r5
    1154:	1886b03a 	or	r3,r3,r2
    1158:	98c00015 	stw	r3,0(r19)
		fno->fdate = LD_WORD(dir+DIR_WrtDate);		/* Date */
    115c:	40800643 	ldbu	r2,25(r8)
    1160:	40c00603 	ldbu	r3,24(r8)
    1164:	1004923a 	slli	r2,r2,8
    1168:	10c4b03a 	or	r2,r2,r3
    116c:	9880010d 	sth	r2,4(r19)
		fno->ftime = LD_WORD(dir+DIR_WrtTime);		/* Time */
    1170:	40c005c3 	ldbu	r3,23(r8)
    1174:	40800583 	ldbu	r2,22(r8)
    1178:	1806923a 	slli	r3,r3,8
    117c:	1886b03a 	or	r3,r3,r2
    1180:	98c0018d 	sth	r3,6(r19)
	}
	*p = 0;		/* Terminate SFN str by a \0 */
    1184:	30000005 	stb	zero,0(r6)

#if _USE_LFN
	if (fno->lfname && fno->lfsize) {
    1188:	9c800617 	ldw	r18,24(r19)
    118c:	90002426 	beq	r18,zero,1220 <get_fileinfo+0x1ec>
    1190:	98800717 	ldw	r2,28(r19)
    1194:	10002226 	beq	r2,zero,1220 <get_fileinfo+0x1ec>
		TCHAR *tp = fno->lfname;
		WCHAR w, *lfn;

		i = 0;
		if (dj->sect && dj->lfn_idx != 0xFFFF) {/* Get LFN if available */
    1198:	58800417 	ldw	r2,16(r11)
    119c:	10001d26 	beq	r2,zero,1214 <get_fileinfo+0x1e0>
    11a0:	58c0080b 	ldhu	r3,32(r11)
    11a4:	00bfffd4 	movui	r2,65535
    11a8:	18801a26 	beq	r3,r2,1214 <get_fileinfo+0x1e0>
			lfn = dj->lfn;
    11ac:	58800717 	ldw	r2,28(r11)
			while ((w = *lfn++) != 0) {			/* Get an LFN char */
    11b0:	1100000b 	ldhu	r4,0(r2)
    11b4:	20001726 	beq	r4,zero,1214 <get_fileinfo+0x1e0>
    11b8:	14400084 	addi	r17,r2,2
    11bc:	0021883a 	mov	r16,zero
    11c0:	05003fc4 	movi	r20,255
    11c4:	00000c06 	br	11f8 <get_fileinfo+0x1c4>
#if !_LFN_UNICODE
				w = ff_convert(w, 0);			/* Unicode -> OEM conversion */
				if (!w) { i = 0; break; }		/* Could not convert, no LFN */
				if (_DF1S && w >= 0x100)		/* Put 1st byte if it is a DBC (always false on SBCS cfg) */
    11c8:	a080022e 	bgeu	r20,r2,11d4 <get_fileinfo+0x1a0>
					tp[i++] = (TCHAR)(w >> 8);
    11cc:	19000005 	stb	r4,0(r3)
    11d0:	84000044 	addi	r16,r16,1
#endif
				if (i >= fno->lfsize - 1) { i = 0; break; }	/* Buffer overflow, no LFN */
    11d4:	98800717 	ldw	r2,28(r19)
				tp[i++] = (TCHAR)w;
    11d8:	9407883a 	add	r3,r18,r16
				w = ff_convert(w, 0);			/* Unicode -> OEM conversion */
				if (!w) { i = 0; break; }		/* Could not convert, no LFN */
				if (_DF1S && w >= 0x100)		/* Put 1st byte if it is a DBC (always false on SBCS cfg) */
					tp[i++] = (TCHAR)(w >> 8);
#endif
				if (i >= fno->lfsize - 1) { i = 0; break; }	/* Buffer overflow, no LFN */
    11dc:	10bfffc4 	addi	r2,r2,-1
    11e0:	80800c2e 	bgeu	r16,r2,1214 <get_fileinfo+0x1e0>
				tp[i++] = (TCHAR)w;
    11e4:	19400005 	stb	r5,0(r3)
		WCHAR w, *lfn;

		i = 0;
		if (dj->sect && dj->lfn_idx != 0xFFFF) {/* Get LFN if available */
			lfn = dj->lfn;
			while ((w = *lfn++) != 0) {			/* Get an LFN char */
    11e8:	8900000b 	ldhu	r4,0(r17)
				if (!w) { i = 0; break; }		/* Could not convert, no LFN */
				if (_DF1S && w >= 0x100)		/* Put 1st byte if it is a DBC (always false on SBCS cfg) */
					tp[i++] = (TCHAR)(w >> 8);
#endif
				if (i >= fno->lfsize - 1) { i = 0; break; }	/* Buffer overflow, no LFN */
				tp[i++] = (TCHAR)w;
    11ec:	84000044 	addi	r16,r16,1
		WCHAR w, *lfn;

		i = 0;
		if (dj->sect && dj->lfn_idx != 0xFFFF) {/* Get LFN if available */
			lfn = dj->lfn;
			while ((w = *lfn++) != 0) {			/* Get an LFN char */
    11f0:	20001326 	beq	r4,zero,1240 <get_fileinfo+0x20c>
    11f4:	8c400084 	addi	r17,r17,2
#if !_LFN_UNICODE
				w = ff_convert(w, 0);			/* Unicode -> OEM conversion */
    11f8:	000b883a 	mov	r5,zero
    11fc:	00050400 	call	5040 <ff_convert>
    1200:	100b883a 	mov	r5,r2
				if (!w) { i = 0; break; }		/* Could not convert, no LFN */
    1204:	10bfffcc 	andi	r2,r2,65535
				if (_DF1S && w >= 0x100)		/* Put 1st byte if it is a DBC (always false on SBCS cfg) */
					tp[i++] = (TCHAR)(w >> 8);
    1208:	1008d23a 	srli	r4,r2,8
    120c:	9407883a 	add	r3,r18,r16
		if (dj->sect && dj->lfn_idx != 0xFFFF) {/* Get LFN if available */
			lfn = dj->lfn;
			while ((w = *lfn++) != 0) {			/* Get an LFN char */
#if !_LFN_UNICODE
				w = ff_convert(w, 0);			/* Unicode -> OEM conversion */
				if (!w) { i = 0; break; }		/* Could not convert, no LFN */
    1210:	103fed1e 	bne	r2,zero,11c8 <get_fileinfo+0x194>
		WCHAR w, *lfn;

		i = 0;
		if (dj->sect && dj->lfn_idx != 0xFFFF) {/* Get LFN if available */
			lfn = dj->lfn;
			while ((w = *lfn++) != 0) {			/* Get an LFN char */
    1214:	0005883a 	mov	r2,zero
#endif
				if (i >= fno->lfsize - 1) { i = 0; break; }	/* Buffer overflow, no LFN */
				tp[i++] = (TCHAR)w;
			}
		}
		tp[i] = 0;	/* Terminate the LFN str by a \0 */
    1218:	1485883a 	add	r2,r2,r18
    121c:	10000005 	stb	zero,0(r2)
	}
#endif
}
    1220:	dfc00517 	ldw	ra,20(sp)
    1224:	dd000417 	ldw	r20,16(sp)
    1228:	dcc00317 	ldw	r19,12(sp)
    122c:	dc800217 	ldw	r18,8(sp)
    1230:	dc400117 	ldw	r17,4(sp)
    1234:	dc000017 	ldw	r16,0(sp)
    1238:	dec00604 	addi	sp,sp,24
    123c:	f800283a 	ret
		WCHAR w, *lfn;

		i = 0;
		if (dj->sect && dj->lfn_idx != 0xFFFF) {/* Get LFN if available */
			lfn = dj->lfn;
			while ((w = *lfn++) != 0) {			/* Get an LFN char */
    1240:	8005883a 	mov	r2,r16
    1244:	003ff406 	br	1218 <get_fileinfo+0x1e4>

00001248 <move_window>:
static
FRESULT move_window (
	FATFS *fs,		/* File system object */
	DWORD sector	/* Sector number to make appearance in the fs->win[] */
)					/* Move to zero only writes back dirty window */
{
    1248:	defff904 	addi	sp,sp,-28
    124c:	dc800215 	stw	r18,8(sp)
	DWORD wsect;


	wsect = fs->winsect;
    1250:	24800b17 	ldw	r18,44(r4)
static
FRESULT move_window (
	FATFS *fs,		/* File system object */
	DWORD sector	/* Sector number to make appearance in the fs->win[] */
)					/* Move to zero only writes back dirty window */
{
    1254:	dcc00315 	stw	r19,12(sp)
    1258:	dc000015 	stw	r16,0(sp)
    125c:	dfc00615 	stw	ra,24(sp)
    1260:	dd400515 	stw	r21,20(sp)
    1264:	dd000415 	stw	r20,16(sp)
    1268:	dc400115 	stw	r17,4(sp)
    126c:	2021883a 	mov	r16,r4
    1270:	2827883a 	mov	r19,r5
	DWORD wsect;


	wsect = fs->winsect;
	if (wsect != sector) {	/* Changed current window */
    1274:	91400326 	beq	r18,r5,1284 <move_window+0x3c>
#if !_FS_READONLY
		if (fs->wflag) {	/* Write back dirty window if needed */
    1278:	20800103 	ldbu	r2,4(r4)
    127c:	1000131e 	bne	r2,zero,12cc <move_window+0x84>
					disk_write(fs->drv, fs->win, wsect, 1);
				}
			}
		}
#endif
		if (sector) {
    1280:	98000a1e 	bne	r19,zero,12ac <move_window+0x64>
			if (disk_read(fs->drv, fs->win, sector, 1) != RES_OK)
				return FR_DISK_ERR;
			fs->winsect = sector;
    1284:	0005883a 	mov	r2,zero
		}
	}

	return FR_OK;
}
    1288:	dfc00617 	ldw	ra,24(sp)
    128c:	dd400517 	ldw	r21,20(sp)
    1290:	dd000417 	ldw	r20,16(sp)
    1294:	dcc00317 	ldw	r19,12(sp)
    1298:	dc800217 	ldw	r18,8(sp)
    129c:	dc400117 	ldw	r17,4(sp)
    12a0:	dc000017 	ldw	r16,0(sp)
    12a4:	dec00704 	addi	sp,sp,28
    12a8:	f800283a 	ret
				}
			}
		}
#endif
		if (sector) {
			if (disk_read(fs->drv, fs->win, sector, 1) != RES_OK)
    12ac:	81000043 	ldbu	r4,1(r16)
    12b0:	81400c04 	addi	r5,r16,48
    12b4:	980d883a 	mov	r6,r19
    12b8:	01c00044 	movi	r7,1
    12bc:	0004d0c0 	call	4d0c <disk_read>
    12c0:	10001f1e 	bne	r2,zero,1340 <move_window+0xf8>
				return FR_DISK_ERR;
			fs->winsect = sector;
    12c4:	84c00b15 	stw	r19,44(r16)
    12c8:	003fef06 	br	1288 <move_window+0x40>

	wsect = fs->winsect;
	if (wsect != sector) {	/* Changed current window */
#if !_FS_READONLY
		if (fs->wflag) {	/* Write back dirty window if needed */
			if (disk_write(fs->drv, fs->win, wsect, 1) != RES_OK)
    12cc:	21000043 	ldbu	r4,1(r4)
    12d0:	85000c04 	addi	r20,r16,48
    12d4:	05400044 	movi	r21,1
    12d8:	a00b883a 	mov	r5,r20
    12dc:	900d883a 	mov	r6,r18
    12e0:	a80f883a 	mov	r7,r21
    12e4:	0004b8c0 	call	4b8c <disk_write>
    12e8:	1000151e 	bne	r2,zero,1340 <move_window+0xf8>
				return FR_DISK_ERR;
			fs->wflag = 0;
			if (wsect < (fs->fatbase + fs->fsize)) {	/* In FAT area */
    12ec:	80800817 	ldw	r2,32(r16)
    12f0:	80c00717 	ldw	r3,28(r16)
	if (wsect != sector) {	/* Changed current window */
#if !_FS_READONLY
		if (fs->wflag) {	/* Write back dirty window if needed */
			if (disk_write(fs->drv, fs->win, wsect, 1) != RES_OK)
				return FR_DISK_ERR;
			fs->wflag = 0;
    12f4:	80000105 	stb	zero,4(r16)
			if (wsect < (fs->fatbase + fs->fsize)) {	/* In FAT area */
    12f8:	10c5883a 	add	r2,r2,r3
    12fc:	90bfe02e 	bgeu	r18,r2,1280 <move_window+0x38>
				BYTE nf;
				for (nf = fs->n_fats; nf > 1; nf--) {	/* Reflect the change to all FAT copies */
    1300:	844000c3 	ldbu	r17,3(r16)
    1304:	88803fcc 	andi	r2,r17,255
    1308:	a8800236 	bltu	r21,r2,1314 <move_window+0xcc>
    130c:	003fdc06 	br	1280 <move_window+0x38>
    1310:	80c00717 	ldw	r3,28(r16)
					wsect += fs->fsize;
					disk_write(fs->drv, fs->win, wsect, 1);
    1314:	81000043 	ldbu	r4,1(r16)
				return FR_DISK_ERR;
			fs->wflag = 0;
			if (wsect < (fs->fatbase + fs->fsize)) {	/* In FAT area */
				BYTE nf;
				for (nf = fs->n_fats; nf > 1; nf--) {	/* Reflect the change to all FAT copies */
					wsect += fs->fsize;
    1318:	90e5883a 	add	r18,r18,r3
					disk_write(fs->drv, fs->win, wsect, 1);
    131c:	a00b883a 	mov	r5,r20
    1320:	900d883a 	mov	r6,r18
    1324:	01c00044 	movi	r7,1
			if (disk_write(fs->drv, fs->win, wsect, 1) != RES_OK)
				return FR_DISK_ERR;
			fs->wflag = 0;
			if (wsect < (fs->fatbase + fs->fsize)) {	/* In FAT area */
				BYTE nf;
				for (nf = fs->n_fats; nf > 1; nf--) {	/* Reflect the change to all FAT copies */
    1328:	8c7fffc4 	addi	r17,r17,-1
					wsect += fs->fsize;
					disk_write(fs->drv, fs->win, wsect, 1);
    132c:	0004b8c0 	call	4b8c <disk_write>
			if (disk_write(fs->drv, fs->win, wsect, 1) != RES_OK)
				return FR_DISK_ERR;
			fs->wflag = 0;
			if (wsect < (fs->fatbase + fs->fsize)) {	/* In FAT area */
				BYTE nf;
				for (nf = fs->n_fats; nf > 1; nf--) {	/* Reflect the change to all FAT copies */
    1330:	88c03fcc 	andi	r3,r17,255
    1334:	1d7ff61e 	bne	r3,r21,1310 <move_window+0xc8>
					disk_write(fs->drv, fs->win, wsect, 1);
				}
			}
		}
#endif
		if (sector) {
    1338:	983fd226 	beq	r19,zero,1284 <move_window+0x3c>
    133c:	003fdb06 	br	12ac <move_window+0x64>
			if (disk_read(fs->drv, fs->win, sector, 1) != RES_OK)
				return FR_DISK_ERR;
			fs->winsect = sector;
    1340:	00800044 	movi	r2,1
    1344:	003fd006 	br	1288 <move_window+0x40>

00001348 <put_fat>:
FRESULT put_fat (
	FATFS *fs,	/* File system object */
	DWORD clst,	/* Cluster# to be changed in range of 2 to fs->n_fatent - 1 */
	DWORD val	/* New value to mark the cluster */
)
{
    1348:	defff904 	addi	sp,sp,-28
    134c:	dc000015 	stw	r16,0(sp)
    1350:	2821883a 	mov	r16,r5
	UINT bc;
	BYTE *p;
	FRESULT res;


	if (clst < 2 || clst >= fs->n_fatent) {	/* Check range */
    1354:	01400044 	movi	r5,1
FRESULT put_fat (
	FATFS *fs,	/* File system object */
	DWORD clst,	/* Cluster# to be changed in range of 2 to fs->n_fatent - 1 */
	DWORD val	/* New value to mark the cluster */
)
{
    1358:	dcc00315 	stw	r19,12(sp)
    135c:	dc800215 	stw	r18,8(sp)
    1360:	dfc00615 	stw	ra,24(sp)
    1364:	dd400515 	stw	r21,20(sp)
    1368:	dd000415 	stw	r20,16(sp)
    136c:	dc400115 	stw	r17,4(sp)
    1370:	3027883a 	mov	r19,r6
    1374:	2025883a 	mov	r18,r4
	UINT bc;
	BYTE *p;
	FRESULT res;


	if (clst < 2 || clst >= fs->n_fatent) {	/* Check range */
    1378:	2c00152e 	bgeu	r5,r16,13d0 <put_fat+0x88>
    137c:	20800617 	ldw	r2,24(r4)
    1380:	8080132e 	bgeu	r16,r2,13d0 <put_fat+0x88>
		res = FR_INT_ERR;

	} else {
		switch (fs->fs_type) {
    1384:	24400003 	ldbu	r17,0(r4)
    1388:	00c00084 	movi	r3,2
    138c:	88c01226 	beq	r17,r3,13d8 <put_fat+0x90>
    1390:	008000c4 	movi	r2,3
    1394:	88801e26 	beq	r17,r2,1410 <put_fat+0xc8>
    1398:	89403526 	beq	r17,r5,1470 <put_fat+0x128>
    139c:	1811883a 	mov	r8,r3
			break;

		default :
			res = FR_INT_ERR;
		}
		fs->wflag = 1;
    13a0:	00800044 	movi	r2,1
    13a4:	90800105 	stb	r2,4(r18)
	}

	return res;
}
    13a8:	4005883a 	mov	r2,r8
    13ac:	dfc00617 	ldw	ra,24(sp)
    13b0:	dd400517 	ldw	r21,20(sp)
    13b4:	dd000417 	ldw	r20,16(sp)
    13b8:	dcc00317 	ldw	r19,12(sp)
    13bc:	dc800217 	ldw	r18,8(sp)
    13c0:	dc400117 	ldw	r17,4(sp)
    13c4:	dc000017 	ldw	r16,0(sp)
    13c8:	dec00704 	addi	sp,sp,28
    13cc:	f800283a 	ret
			break;

		default :
			res = FR_INT_ERR;
		}
		fs->wflag = 1;
    13d0:	02000084 	movi	r8,2
    13d4:	003ff406 	br	13a8 <put_fat+0x60>
			p = &fs->win[bc % SS(fs)];
			*p = (clst & 1) ? (BYTE)(val >> 4) : ((*p & 0xF0) | ((BYTE)(val >> 8) & 0x0F));
			break;

		case FS_FAT16 :
			res = move_window(fs, fs->fatbase + (clst / (SS(fs) / 2)));
    13d8:	20800817 	ldw	r2,32(r4)
    13dc:	800ad23a 	srli	r5,r16,8
    13e0:	288b883a 	add	r5,r5,r2
    13e4:	00012480 	call	1248 <move_window>
    13e8:	1011883a 	mov	r8,r2
			if (res != FR_OK) break;
    13ec:	103fec1e 	bne	r2,zero,13a0 <put_fat+0x58>
			p = &fs->win[clst * 2 % SS(fs)];
    13f0:	8405883a 	add	r2,r16,r16
			ST_WORD(p, (WORD)val);
    13f4:	9808d23a 	srli	r4,r19,8
			break;

		case FS_FAT16 :
			res = move_window(fs, fs->fatbase + (clst / (SS(fs) / 2)));
			if (res != FR_OK) break;
			p = &fs->win[clst * 2 % SS(fs)];
    13f8:	10807fcc 	andi	r2,r2,511
    13fc:	90c00c04 	addi	r3,r18,48
    1400:	1887883a 	add	r3,r3,r2
			ST_WORD(p, (WORD)val);
    1404:	19000045 	stb	r4,1(r3)
    1408:	1cc00005 	stb	r19,0(r3)
    140c:	003fe406 	br	13a0 <put_fat+0x58>
			break;

		case FS_FAT32 :
			res = move_window(fs, fs->fatbase + (clst / (SS(fs) / 4)));
    1410:	20800817 	ldw	r2,32(r4)
    1414:	800ad1fa 	srli	r5,r16,7
    1418:	288b883a 	add	r5,r5,r2
    141c:	00012480 	call	1248 <move_window>
    1420:	1011883a 	mov	r8,r2
			if (res != FR_OK) break;
    1424:	103fde1e 	bne	r2,zero,13a0 <put_fat+0x58>
			p = &fs->win[clst * 4 % SS(fs)];
    1428:	8405883a 	add	r2,r16,r16
    142c:	1085883a 	add	r2,r2,r2
    1430:	10807fcc 	andi	r2,r2,511
    1434:	90c00c04 	addi	r3,r18,48
    1438:	1887883a 	add	r3,r3,r2
			val |= LD_DWORD(p) & 0xF0000000;
    143c:	1c4f883a 	add	r7,r3,r17
    1440:	38800003 	ldbu	r2,0(r7)
    1444:	1004963a 	slli	r2,r2,24
    1448:	10bc002c 	andhi	r2,r2,61440
    144c:	14c4b03a 	or	r2,r2,r19
			ST_DWORD(p, val);
    1450:	1008d23a 	srli	r4,r2,8
    1454:	100ad43a 	srli	r5,r2,16
    1458:	100cd63a 	srli	r6,r2,24
    145c:	19000045 	stb	r4,1(r3)
    1460:	19400085 	stb	r5,2(r3)
    1464:	18800005 	stb	r2,0(r3)
    1468:	39800005 	stb	r6,0(r7)
    146c:	003fcc06 	br	13a0 <put_fat+0x58>
		res = FR_INT_ERR;

	} else {
		switch (fs->fs_type) {
		case FS_FAT12 :
			bc = clst; bc += bc / 2;
    1470:	8004d07a 	srli	r2,r16,1
			res = move_window(fs, fs->fatbase + (bc / SS(fs)));
    1474:	20c00817 	ldw	r3,32(r4)
		res = FR_INT_ERR;

	} else {
		switch (fs->fs_type) {
		case FS_FAT12 :
			bc = clst; bc += bc / 2;
    1478:	80a9883a 	add	r20,r16,r2
			res = move_window(fs, fs->fatbase + (bc / SS(fs)));
    147c:	a00ad27a 	srli	r5,r20,9
    1480:	28cb883a 	add	r5,r5,r3
    1484:	00012480 	call	1248 <move_window>
    1488:	1011883a 	mov	r8,r2
			if (res != FR_OK) break;
    148c:	103fc41e 	bne	r2,zero,13a0 <put_fat+0x58>
			p = &fs->win[bc % SS(fs)];
			*p = (clst & 1) ? ((*p & 0x0F) | ((BYTE)val << 4)) : (BYTE)val;
    1490:	846a703a 	and	r21,r16,r17
		switch (fs->fs_type) {
		case FS_FAT12 :
			bc = clst; bc += bc / 2;
			res = move_window(fs, fs->fatbase + (bc / SS(fs)));
			if (res != FR_OK) break;
			p = &fs->win[bc % SS(fs)];
    1494:	a0807fcc 	andi	r2,r20,511
    1498:	94400c04 	addi	r17,r18,48
    149c:	8889883a 	add	r4,r17,r2
			*p = (clst & 1) ? ((*p & 0x0F) | ((BYTE)val << 4)) : (BYTE)val;
    14a0:	a8001626 	beq	r21,zero,14fc <put_fat+0x1b4>
    14a4:	20c00003 	ldbu	r3,0(r4)
    14a8:	98803fcc 	andi	r2,r19,255
    14ac:	1004913a 	slli	r2,r2,4
    14b0:	18c003cc 	andi	r3,r3,15
    14b4:	1886b03a 	or	r3,r3,r2
    14b8:	20c00005 	stb	r3,0(r4)
			bc++;
    14bc:	a4000044 	addi	r16,r20,1
			fs->wflag = 1;
			res = move_window(fs, fs->fatbase + (bc / SS(fs)));
    14c0:	90c00817 	ldw	r3,32(r18)
    14c4:	800ad27a 	srli	r5,r16,9
			res = move_window(fs, fs->fatbase + (bc / SS(fs)));
			if (res != FR_OK) break;
			p = &fs->win[bc % SS(fs)];
			*p = (clst & 1) ? ((*p & 0x0F) | ((BYTE)val << 4)) : (BYTE)val;
			bc++;
			fs->wflag = 1;
    14c8:	00800044 	movi	r2,1
    14cc:	90800105 	stb	r2,4(r18)
			res = move_window(fs, fs->fatbase + (bc / SS(fs)));
    14d0:	28cb883a 	add	r5,r5,r3
    14d4:	9009883a 	mov	r4,r18
    14d8:	00012480 	call	1248 <move_window>
    14dc:	1011883a 	mov	r8,r2
			if (res != FR_OK) break;
    14e0:	103faf1e 	bne	r2,zero,13a0 <put_fat+0x58>
			p = &fs->win[bc % SS(fs)];
    14e4:	80807fcc 	andi	r2,r16,511
    14e8:	888b883a 	add	r5,r17,r2
			*p = (clst & 1) ? (BYTE)(val >> 4) : ((*p & 0xF0) | ((BYTE)(val >> 8) & 0x0F));
    14ec:	a8000526 	beq	r21,zero,1504 <put_fat+0x1bc>
    14f0:	9806d13a 	srli	r3,r19,4
    14f4:	28c00005 	stb	r3,0(r5)
    14f8:	003fa906 	br	13a0 <put_fat+0x58>
		case FS_FAT12 :
			bc = clst; bc += bc / 2;
			res = move_window(fs, fs->fatbase + (bc / SS(fs)));
			if (res != FR_OK) break;
			p = &fs->win[bc % SS(fs)];
			*p = (clst & 1) ? ((*p & 0x0F) | ((BYTE)val << 4)) : (BYTE)val;
    14fc:	9807883a 	mov	r3,r19
    1500:	003fed06 	br	14b8 <put_fat+0x170>
			bc++;
			fs->wflag = 1;
			res = move_window(fs, fs->fatbase + (bc / SS(fs)));
			if (res != FR_OK) break;
			p = &fs->win[bc % SS(fs)];
			*p = (clst & 1) ? (BYTE)(val >> 4) : ((*p & 0xF0) | ((BYTE)(val >> 8) & 0x0F));
    1504:	28c00003 	ldbu	r3,0(r5)
    1508:	9804d23a 	srli	r2,r19,8
    150c:	013ffc04 	movi	r4,-16
    1510:	1906703a 	and	r3,r3,r4
    1514:	108003cc 	andi	r2,r2,15
    1518:	1886b03a 	or	r3,r3,r2
    151c:	28c00005 	stb	r3,0(r5)
    1520:	003f9f06 	br	13a0 <put_fat+0x58>

00001524 <get_fat>:

DWORD get_fat (	/* 0xFFFFFFFF:Disk error, 1:Internal error, Else:Cluster status */
	FATFS *fs,	/* File system object */
	DWORD clst	/* Cluster# to get the link information */
)
{
    1524:	defffa04 	addi	sp,sp,-24
	UINT wc, bc;
	BYTE *p;


	if (clst < 2 || clst >= fs->n_fatent)	/* Chack range */
    1528:	00c00044 	movi	r3,1

DWORD get_fat (	/* 0xFFFFFFFF:Disk error, 1:Internal error, Else:Cluster status */
	FATFS *fs,	/* File system object */
	DWORD clst	/* Cluster# to get the link information */
)
{
    152c:	dc400115 	stw	r17,4(sp)
    1530:	dc000015 	stw	r16,0(sp)
    1534:	dfc00515 	stw	ra,20(sp)
    1538:	dd000415 	stw	r20,16(sp)
    153c:	dcc00315 	stw	r19,12(sp)
    1540:	dc800215 	stw	r18,8(sp)
    1544:	2821883a 	mov	r16,r5
    1548:	2023883a 	mov	r17,r4
	UINT wc, bc;
	BYTE *p;


	if (clst < 2 || clst >= fs->n_fatent)	/* Chack range */
    154c:	1940602e 	bgeu	r3,r5,16d0 <get_fat+0x1ac>
    1550:	20800617 	ldw	r2,24(r4)
    1554:	28805e2e 	bgeu	r5,r2,16d0 <get_fat+0x1ac>
		return 1;

	switch (fs->fs_type) {
    1558:	24800003 	ldbu	r18,0(r4)
    155c:	00800084 	movi	r2,2
    1560:	90800c26 	beq	r18,r2,1594 <get_fat+0x70>
    1564:	008000c4 	movi	r2,3
    1568:	90801f26 	beq	r18,r2,15e8 <get_fat+0xc4>
    156c:	90c03d26 	beq	r18,r3,1664 <get_fat+0x140>
		return LD_WORD(p);

	case FS_FAT32 :
		if (move_window(fs, fs->fatbase + (clst / (SS(fs) / 4)))) break;
		p = &fs->win[clst * 4 % SS(fs)];
		return LD_DWORD(p) & 0x0FFFFFFF;
    1570:	00bfffc4 	movi	r2,-1
	}

	return 0xFFFFFFFF;	/* An error occurred at the disk I/O layer */
}
    1574:	dfc00517 	ldw	ra,20(sp)
    1578:	dd000417 	ldw	r20,16(sp)
    157c:	dcc00317 	ldw	r19,12(sp)
    1580:	dc800217 	ldw	r18,8(sp)
    1584:	dc400117 	ldw	r17,4(sp)
    1588:	dc000017 	ldw	r16,0(sp)
    158c:	dec00604 	addi	sp,sp,24
    1590:	f800283a 	ret
		if (move_window(fs, fs->fatbase + (bc / SS(fs)))) break;
		wc |= fs->win[bc % SS(fs)] << 8;
		return (clst & 1) ? (wc >> 4) : (wc & 0xFFF);

	case FS_FAT16 :
		if (move_window(fs, fs->fatbase + (clst / (SS(fs) / 2)))) break;
    1594:	2804d23a 	srli	r2,r5,8
    1598:	21400817 	ldw	r5,32(r4)
    159c:	114b883a 	add	r5,r2,r5
    15a0:	00012480 	call	1248 <move_window>
    15a4:	103ff21e 	bne	r2,zero,1570 <get_fat+0x4c>
		p = &fs->win[clst * 2 % SS(fs)];
    15a8:	8405883a 	add	r2,r16,r16
    15ac:	89000c04 	addi	r4,r17,48
    15b0:	10807fcc 	andi	r2,r2,511
    15b4:	2089883a 	add	r4,r4,r2
		return LD_WORD(p);
    15b8:	20c00043 	ldbu	r3,1(r4)
    15bc:	20800003 	ldbu	r2,0(r4)
    15c0:	1806923a 	slli	r3,r3,8
    15c4:	1884b03a 	or	r2,r3,r2
		p = &fs->win[clst * 4 % SS(fs)];
		return LD_DWORD(p) & 0x0FFFFFFF;
	}

	return 0xFFFFFFFF;	/* An error occurred at the disk I/O layer */
}
    15c8:	dfc00517 	ldw	ra,20(sp)
    15cc:	dd000417 	ldw	r20,16(sp)
    15d0:	dcc00317 	ldw	r19,12(sp)
    15d4:	dc800217 	ldw	r18,8(sp)
    15d8:	dc400117 	ldw	r17,4(sp)
    15dc:	dc000017 	ldw	r16,0(sp)
    15e0:	dec00604 	addi	sp,sp,24
    15e4:	f800283a 	ret
		if (move_window(fs, fs->fatbase + (clst / (SS(fs) / 2)))) break;
		p = &fs->win[clst * 2 % SS(fs)];
		return LD_WORD(p);

	case FS_FAT32 :
		if (move_window(fs, fs->fatbase + (clst / (SS(fs) / 4)))) break;
    15e8:	2804d1fa 	srli	r2,r5,7
    15ec:	21400817 	ldw	r5,32(r4)
    15f0:	114b883a 	add	r5,r2,r5
    15f4:	00012480 	call	1248 <move_window>
    15f8:	103fdd1e 	bne	r2,zero,1570 <get_fat+0x4c>
		p = &fs->win[clst * 4 % SS(fs)];
    15fc:	8405883a 	add	r2,r16,r16
    1600:	1085883a 	add	r2,r2,r2
    1604:	89000c04 	addi	r4,r17,48
    1608:	10807fcc 	andi	r2,r2,511
    160c:	2089883a 	add	r4,r4,r2
		return LD_DWORD(p) & 0x0FFFFFFF;
    1610:	20c000c3 	ldbu	r3,3(r4)
    1614:	20800083 	ldbu	r2,2(r4)
    1618:	21400043 	ldbu	r5,1(r4)
    161c:	1806963a 	slli	r3,r3,24
    1620:	1004943a 	slli	r2,r2,16
    1624:	21800003 	ldbu	r6,0(r4)
    1628:	280a923a 	slli	r5,r5,8
    162c:	1886b03a 	or	r3,r3,r2
    1630:	1986b03a 	or	r3,r3,r6
    1634:	28cab03a 	or	r5,r5,r3
    1638:	00840034 	movhi	r2,4096
    163c:	10bfffc4 	addi	r2,r2,-1
    1640:	2884703a 	and	r2,r5,r2
	}

	return 0xFFFFFFFF;	/* An error occurred at the disk I/O layer */
}
    1644:	dfc00517 	ldw	ra,20(sp)
    1648:	dd000417 	ldw	r20,16(sp)
    164c:	dcc00317 	ldw	r19,12(sp)
    1650:	dc800217 	ldw	r18,8(sp)
    1654:	dc400117 	ldw	r17,4(sp)
    1658:	dc000017 	ldw	r16,0(sp)
    165c:	dec00604 	addi	sp,sp,24
    1660:	f800283a 	ret
	if (clst < 2 || clst >= fs->n_fatent)	/* Chack range */
		return 1;

	switch (fs->fs_type) {
	case FS_FAT12 :
		bc = (UINT)clst; bc += bc / 2;
    1664:	28c4d83a 	srl	r2,r5,r3
		if (move_window(fs, fs->fatbase + (bc / SS(fs)))) break;
    1668:	20c00817 	ldw	r3,32(r4)
	if (clst < 2 || clst >= fs->n_fatent)	/* Chack range */
		return 1;

	switch (fs->fs_type) {
	case FS_FAT12 :
		bc = (UINT)clst; bc += bc / 2;
    166c:	28a7883a 	add	r19,r5,r2
		if (move_window(fs, fs->fatbase + (bc / SS(fs)))) break;
    1670:	980ad27a 	srli	r5,r19,9
    1674:	28cb883a 	add	r5,r5,r3
    1678:	00012480 	call	1248 <move_window>
    167c:	103fbc1e 	bne	r2,zero,1570 <get_fat+0x4c>
		wc = fs->win[bc % SS(fs)]; bc++;
    1680:	9ca9883a 	add	r20,r19,r18
		if (move_window(fs, fs->fatbase + (bc / SS(fs)))) break;
    1684:	a006d27a 	srli	r3,r20,9
    1688:	89400817 	ldw	r5,32(r17)

	switch (fs->fs_type) {
	case FS_FAT12 :
		bc = (UINT)clst; bc += bc / 2;
		if (move_window(fs, fs->fatbase + (bc / SS(fs)))) break;
		wc = fs->win[bc % SS(fs)]; bc++;
    168c:	98807fcc 	andi	r2,r19,511
    1690:	1445883a 	add	r2,r2,r17
		if (move_window(fs, fs->fatbase + (bc / SS(fs)))) break;
    1694:	194b883a 	add	r5,r3,r5
    1698:	8809883a 	mov	r4,r17

	switch (fs->fs_type) {
	case FS_FAT12 :
		bc = (UINT)clst; bc += bc / 2;
		if (move_window(fs, fs->fatbase + (bc / SS(fs)))) break;
		wc = fs->win[bc % SS(fs)]; bc++;
    169c:	14c00c03 	ldbu	r19,48(r2)
		if (move_window(fs, fs->fatbase + (bc / SS(fs)))) break;
    16a0:	00012480 	call	1248 <move_window>
    16a4:	103fb21e 	bne	r2,zero,1570 <get_fat+0x4c>
		wc |= fs->win[bc % SS(fs)] << 8;
    16a8:	a0807fcc 	andi	r2,r20,511
    16ac:	1445883a 	add	r2,r2,r17
    16b0:	10c00c03 	ldbu	r3,48(r2)
		return (clst & 1) ? (wc >> 4) : (wc & 0xFFF);
    16b4:	8488703a 	and	r4,r16,r18

	switch (fs->fs_type) {
	case FS_FAT12 :
		bc = (UINT)clst; bc += bc / 2;
		if (move_window(fs, fs->fatbase + (bc / SS(fs)))) break;
		wc = fs->win[bc % SS(fs)]; bc++;
    16b8:	98803fcc 	andi	r2,r19,255
		if (move_window(fs, fs->fatbase + (bc / SS(fs)))) break;
		wc |= fs->win[bc % SS(fs)] << 8;
    16bc:	1806923a 	slli	r3,r3,8
    16c0:	10c4b03a 	or	r2,r2,r3
		return (clst & 1) ? (wc >> 4) : (wc & 0xFFF);
    16c4:	20000b1e 	bne	r4,zero,16f4 <get_fat+0x1d0>
    16c8:	1083ffcc 	andi	r2,r2,4095
    16cc:	003fa906 	br	1574 <get_fat+0x50>
		return LD_WORD(p);

	case FS_FAT32 :
		if (move_window(fs, fs->fatbase + (clst / (SS(fs) / 4)))) break;
		p = &fs->win[clst * 4 % SS(fs)];
		return LD_DWORD(p) & 0x0FFFFFFF;
    16d0:	00800044 	movi	r2,1
	}

	return 0xFFFFFFFF;	/* An error occurred at the disk I/O layer */
}
    16d4:	dfc00517 	ldw	ra,20(sp)
    16d8:	dd000417 	ldw	r20,16(sp)
    16dc:	dcc00317 	ldw	r19,12(sp)
    16e0:	dc800217 	ldw	r18,8(sp)
    16e4:	dc400117 	ldw	r17,4(sp)
    16e8:	dc000017 	ldw	r16,0(sp)
    16ec:	dec00604 	addi	sp,sp,24
    16f0:	f800283a 	ret
		bc = (UINT)clst; bc += bc / 2;
		if (move_window(fs, fs->fatbase + (bc / SS(fs)))) break;
		wc = fs->win[bc % SS(fs)]; bc++;
		if (move_window(fs, fs->fatbase + (bc / SS(fs)))) break;
		wc |= fs->win[bc % SS(fs)] << 8;
		return (clst & 1) ? (wc >> 4) : (wc & 0xFFF);
    16f4:	1004d13a 	srli	r2,r2,4
    16f8:	003f9e06 	br	1574 <get_fat+0x50>

000016fc <f_getfree>:
FRESULT f_getfree (
	const TCHAR *path,	/* Pointer to the logical drive number (root dir) */
	DWORD *nclst,		/* Pointer to the variable to return number of free clusters */
	FATFS **fatfs		/* Pointer to pointer to corresponding file system object to return */
)
{
    16fc:	defff704 	addi	sp,sp,-36
    1700:	dd800715 	stw	r22,28(sp)
    1704:	dc800315 	stw	r18,12(sp)
    1708:	d9000015 	stw	r4,0(sp)
    170c:	3025883a 	mov	r18,r6
    1710:	282d883a 	mov	r22,r5
	UINT i;
	BYTE fat, *p;


	/* Get drive number */
	res = chk_mounted(&path, fatfs, 0);
    1714:	d809883a 	mov	r4,sp
    1718:	300b883a 	mov	r5,r6
    171c:	000d883a 	mov	r6,zero
FRESULT f_getfree (
	const TCHAR *path,	/* Pointer to the logical drive number (root dir) */
	DWORD *nclst,		/* Pointer to the variable to return number of free clusters */
	FATFS **fatfs		/* Pointer to pointer to corresponding file system object to return */
)
{
    1720:	dcc00415 	stw	r19,16(sp)
    1724:	dfc00815 	stw	ra,32(sp)
    1728:	dd400615 	stw	r21,24(sp)
    172c:	dd000515 	stw	r20,20(sp)
    1730:	dc400215 	stw	r17,8(sp)
    1734:	dc000115 	stw	r16,4(sp)
	UINT i;
	BYTE fat, *p;


	/* Get drive number */
	res = chk_mounted(&path, fatfs, 0);
    1738:	0000ad00 	call	ad0 <chk_mounted>
    173c:	1027883a 	mov	r19,r2
	if (res == FR_OK) {
    1740:	1000261e 	bne	r2,zero,17dc <f_getfree+0xe0>
		/* If free_clust is valid, return it without full cluster scan */
		if ((*fatfs)->free_clust <= (*fatfs)->n_fatent - 2) {
    1744:	91c00017 	ldw	r7,0(r18)
    1748:	3c000617 	ldw	r16,24(r7)
    174c:	38c00417 	ldw	r3,16(r7)
    1750:	80bfff84 	addi	r2,r16,-2
    1754:	10c02c2e 	bgeu	r2,r3,1808 <f_getfree+0x10c>
			*nclst = (*fatfs)->free_clust;
		} else {
			/* Get number of free clusters */
			fat = (*fatfs)->fs_type;
			n = 0;
			if (fat == FS_FAT12) {
    1758:	3c400003 	ldbu	r17,0(r7)
    175c:	00800044 	movi	r2,1
    1760:	88804626 	beq	r17,r2,187c <f_getfree+0x180>
					if (stat == 1) { res = FR_INT_ERR; break; }
					if (stat == 0) n++;
				} while (++clst < (*fatfs)->n_fatent);
			} else {
				clst = (*fatfs)->n_fatent;
				sect = (*fatfs)->fatbase;
    1764:	3d000817 	ldw	r20,32(r7)
    1768:	002b883a 	mov	r21,zero
    176c:	0011883a 	mov	r8,zero
    1770:	000d883a 	mov	r6,zero
				i = 0; p = 0;
				do {
					if (!i) {
    1774:	40002626 	beq	r8,zero,1810 <f_getfree+0x114>
						res = move_window(*fatfs, sect++);
						if (res != FR_OK) break;
						p = (*fatfs)->win;
						i = SS(*fatfs);
					}
					if (fat == FS_FAT16) {
    1778:	00800084 	movi	r2,2
    177c:	88802f26 	beq	r17,r2,183c <f_getfree+0x140>
						if (LD_WORD(p) == 0) n++;
						p += 2; i -= 2;
					} else {
						if ((LD_DWORD(p) & 0x0FFFFFFF) == 0) n++;
    1780:	308000c3 	ldbu	r2,3(r6)
    1784:	31000083 	ldbu	r4,2(r6)
    1788:	30c00043 	ldbu	r3,1(r6)
    178c:	1004963a 	slli	r2,r2,24
    1790:	2008943a 	slli	r4,r4,16
    1794:	31400003 	ldbu	r5,0(r6)
    1798:	1806923a 	slli	r3,r3,8
    179c:	1104b03a 	or	r2,r2,r4
    17a0:	1144b03a 	or	r2,r2,r5
    17a4:	1886b03a 	or	r3,r3,r2
    17a8:	01040034 	movhi	r4,4096
    17ac:	213fffc4 	addi	r4,r4,-1
    17b0:	1906703a 	and	r3,r3,r4
    17b4:	1800011e 	bne	r3,zero,17bc <f_getfree+0xc0>
    17b8:	ad400044 	addi	r21,r21,1
						p += 4; i -= 4;
    17bc:	31800104 	addi	r6,r6,4
    17c0:	423fff04 	addi	r8,r8,-4
					}
				} while (--clst);
    17c4:	843fffc4 	addi	r16,r16,-1
    17c8:	803fea1e 	bne	r16,zero,1774 <f_getfree+0x78>
			}
			(*fatfs)->free_clust = n;
			if (fat == FS_FAT32) (*fatfs)->fsi_flag = 1;
    17cc:	008000c4 	movi	r2,3
						if ((LD_DWORD(p) & 0x0FFFFFFF) == 0) n++;
						p += 4; i -= 4;
					}
				} while (--clst);
			}
			(*fatfs)->free_clust = n;
    17d0:	3d400415 	stw	r21,16(r7)
			if (fat == FS_FAT32) (*fatfs)->fsi_flag = 1;
    17d4:	88802526 	beq	r17,r2,186c <f_getfree+0x170>
			*nclst = n;
    17d8:	b5400015 	stw	r21,0(r22)
		}
	}
	LEAVE_FF(*fatfs, res);
}
    17dc:	9805883a 	mov	r2,r19
    17e0:	dfc00817 	ldw	ra,32(sp)
    17e4:	dd800717 	ldw	r22,28(sp)
    17e8:	dd400617 	ldw	r21,24(sp)
    17ec:	dd000517 	ldw	r20,20(sp)
    17f0:	dcc00417 	ldw	r19,16(sp)
    17f4:	dc800317 	ldw	r18,12(sp)
    17f8:	dc400217 	ldw	r17,8(sp)
    17fc:	dc000117 	ldw	r16,4(sp)
    1800:	dec00904 	addi	sp,sp,36
    1804:	f800283a 	ret
	/* Get drive number */
	res = chk_mounted(&path, fatfs, 0);
	if (res == FR_OK) {
		/* If free_clust is valid, return it without full cluster scan */
		if ((*fatfs)->free_clust <= (*fatfs)->n_fatent - 2) {
			*nclst = (*fatfs)->free_clust;
    1808:	b0c00015 	stw	r3,0(r22)
    180c:	003ff306 	br	17dc <f_getfree+0xe0>
				clst = (*fatfs)->n_fatent;
				sect = (*fatfs)->fatbase;
				i = 0; p = 0;
				do {
					if (!i) {
						res = move_window(*fatfs, sect++);
    1810:	91000017 	ldw	r4,0(r18)
    1814:	a00b883a 	mov	r5,r20
    1818:	00012480 	call	1248 <move_window>
    181c:	1027883a 	mov	r19,r2
						if (res != FR_OK) break;
    1820:	1000281e 	bne	r2,zero,18c4 <f_getfree+0x1c8>
						p = (*fatfs)->win;
    1824:	91c00017 	ldw	r7,0(r18)
						i = SS(*fatfs);
					}
					if (fat == FS_FAT16) {
    1828:	00800084 	movi	r2,2
				clst = (*fatfs)->n_fatent;
				sect = (*fatfs)->fatbase;
				i = 0; p = 0;
				do {
					if (!i) {
						res = move_window(*fatfs, sect++);
    182c:	a5000044 	addi	r20,r20,1
						if (res != FR_OK) break;
						p = (*fatfs)->win;
    1830:	02008004 	movi	r8,512
    1834:	39800c04 	addi	r6,r7,48
						i = SS(*fatfs);
					}
					if (fat == FS_FAT16) {
    1838:	88bfd11e 	bne	r17,r2,1780 <f_getfree+0x84>
						if (LD_WORD(p) == 0) n++;
    183c:	30800043 	ldbu	r2,1(r6)
    1840:	30c00003 	ldbu	r3,0(r6)
    1844:	1004923a 	slli	r2,r2,8
    1848:	10c4b03a 	or	r2,r2,r3
    184c:	10bfffcc 	andi	r2,r2,65535
    1850:	10a0001c 	xori	r2,r2,32768
    1854:	10a00004 	addi	r2,r2,-32768
    1858:	1000011e 	bne	r2,zero,1860 <f_getfree+0x164>
    185c:	ad400044 	addi	r21,r21,1
						p += 2; i -= 2;
    1860:	344d883a 	add	r6,r6,r17
    1864:	4451c83a 	sub	r8,r8,r17
    1868:	003fd606 	br	17c4 <f_getfree+0xc8>
						p += 4; i -= 4;
					}
				} while (--clst);
			}
			(*fatfs)->free_clust = n;
			if (fat == FS_FAT32) (*fatfs)->fsi_flag = 1;
    186c:	00800044 	movi	r2,1
    1870:	38800145 	stb	r2,5(r7)
			*nclst = n;
    1874:	b5400015 	stw	r21,0(r22)
    1878:	003fd806 	br	17dc <f_getfree+0xe0>
    187c:	8829883a 	mov	r20,r17
			*nclst = (*fatfs)->free_clust;
		} else {
			/* Get number of free clusters */
			fat = (*fatfs)->fs_type;
			n = 0;
			if (fat == FS_FAT12) {
    1880:	002b883a 	mov	r21,zero
    1884:	04000084 	movi	r16,2
    1888:	047fffc4 	movi	r17,-1
				clst = 2;
				do {
					stat = get_fat(*fatfs, clst);
    188c:	91000017 	ldw	r4,0(r18)
    1890:	800b883a 	mov	r5,r16
					if (stat == 0xFFFFFFFF) { res = FR_DISK_ERR; break; }
					if (stat == 1) { res = FR_INT_ERR; break; }
					if (stat == 0) n++;
				} while (++clst < (*fatfs)->n_fatent);
    1894:	84000044 	addi	r16,r16,1
			fat = (*fatfs)->fs_type;
			n = 0;
			if (fat == FS_FAT12) {
				clst = 2;
				do {
					stat = get_fat(*fatfs, clst);
    1898:	00015240 	call	1524 <get_fat>
					if (stat == 0xFFFFFFFF) { res = FR_DISK_ERR; break; }
    189c:	14400b26 	beq	r2,r17,18cc <f_getfree+0x1d0>
					if (stat == 1) { res = FR_INT_ERR; break; }
    18a0:	15000e26 	beq	r2,r20,18dc <f_getfree+0x1e0>
					if (stat == 0) n++;
    18a4:	1000011e 	bne	r2,zero,18ac <f_getfree+0x1b0>
    18a8:	ad400044 	addi	r21,r21,1
				} while (++clst < (*fatfs)->n_fatent);
    18ac:	91c00017 	ldw	r7,0(r18)
    18b0:	38800617 	ldw	r2,24(r7)
    18b4:	80bff536 	bltu	r16,r2,188c <f_getfree+0x190>
						if ((LD_DWORD(p) & 0x0FFFFFFF) == 0) n++;
						p += 4; i -= 4;
					}
				} while (--clst);
			}
			(*fatfs)->free_clust = n;
    18b8:	3d400415 	stw	r21,16(r7)
			if (fat == FS_FAT32) (*fatfs)->fsi_flag = 1;
			*nclst = n;
    18bc:	b5400015 	stw	r21,0(r22)
    18c0:	003fc606 	br	17dc <f_getfree+0xe0>
    18c4:	91c00017 	ldw	r7,0(r18)
    18c8:	003fc006 	br	17cc <f_getfree+0xd0>
    18cc:	91c00017 	ldw	r7,0(r18)
    18d0:	04c00044 	movi	r19,1
						if ((LD_DWORD(p) & 0x0FFFFFFF) == 0) n++;
						p += 4; i -= 4;
					}
				} while (--clst);
			}
			(*fatfs)->free_clust = n;
    18d4:	3d400415 	stw	r21,16(r7)
    18d8:	003ff806 	br	18bc <f_getfree+0x1c0>
    18dc:	91c00017 	ldw	r7,0(r18)
			if (fat == FS_FAT12) {
				clst = 2;
				do {
					stat = get_fat(*fatfs, clst);
					if (stat == 0xFFFFFFFF) { res = FR_DISK_ERR; break; }
					if (stat == 1) { res = FR_INT_ERR; break; }
    18e0:	04c00084 	movi	r19,2
						if ((LD_DWORD(p) & 0x0FFFFFFF) == 0) n++;
						p += 4; i -= 4;
					}
				} while (--clst);
			}
			(*fatfs)->free_clust = n;
    18e4:	3d400415 	stw	r21,16(r7)
    18e8:	003ff406 	br	18bc <f_getfree+0x1c0>

000018ec <f_read>:
	FIL *fp, 		/* Pointer to the file object */
	void *buff,		/* Pointer to data buffer */
	UINT btr,		/* Number of bytes to read */
	UINT *br		/* Pointer to number of bytes read */
)
{
    18ec:	defff604 	addi	sp,sp,-40
    18f0:	dc400115 	stw	r17,4(sp)
    18f4:	2023883a 	mov	r17,r4
    18f8:	dc800215 	stw	r18,8(sp)
	BYTE csect, *rbuff = buff;


	*br = 0;	/* Initialize byte counter */

	res = validate(fp->fs, fp->id);				/* Check validity */
    18fc:	21000017 	ldw	r4,0(r4)
	FIL *fp, 		/* Pointer to the file object */
	void *buff,		/* Pointer to data buffer */
	UINT btr,		/* Number of bytes to read */
	UINT *br		/* Pointer to number of bytes read */
)
{
    1900:	2825883a 	mov	r18,r5
	BYTE csect, *rbuff = buff;


	*br = 0;	/* Initialize byte counter */

	res = validate(fp->fs, fp->id);				/* Check validity */
    1904:	8940010b 	ldhu	r5,4(r17)
	DWORD clst, sect, remain;
	UINT rcnt, cc;
	BYTE csect, *rbuff = buff;


	*br = 0;	/* Initialize byte counter */
    1908:	38000015 	stw	zero,0(r7)
	FIL *fp, 		/* Pointer to the file object */
	void *buff,		/* Pointer to data buffer */
	UINT btr,		/* Number of bytes to read */
	UINT *br		/* Pointer to number of bytes read */
)
{
    190c:	df000815 	stw	fp,32(sp)
    1910:	ddc00715 	stw	r23,28(sp)
    1914:	dc000015 	stw	r16,0(sp)
    1918:	dfc00915 	stw	ra,36(sp)
    191c:	dd800615 	stw	r22,24(sp)
    1920:	dd400515 	stw	r21,20(sp)
    1924:	dd000415 	stw	r20,16(sp)
    1928:	dcc00315 	stw	r19,12(sp)
    192c:	382f883a 	mov	r23,r7
    1930:	3021883a 	mov	r16,r6
	BYTE csect, *rbuff = buff;


	*br = 0;	/* Initialize byte counter */

	res = validate(fp->fs, fp->id);				/* Check validity */
    1934:	00009800 	call	980 <validate>
    1938:	1039883a 	mov	fp,r2
	if (res != FR_OK) LEAVE_FF(fp->fs, res);
    193c:	1000751e 	bne	r2,zero,1b14 <f_read+0x228>
	if (fp->flag & FA__ERROR)					/* Aborted file? */
    1940:	88c00183 	ldbu	r3,6(r17)
    1944:	18803fcc 	andi	r2,r3,255
    1948:	1080201c 	xori	r2,r2,128
    194c:	10bfe004 	addi	r2,r2,-128
    1950:	10006f16 	blt	r2,zero,1b10 <f_read+0x224>
		LEAVE_FF(fp->fs, FR_INT_ERR);
	if (!(fp->flag & FA_READ)) 					/* Check access mode */
    1954:	1880004c 	andi	r2,r3,1
    1958:	10007d26 	beq	r2,zero,1b50 <f_read+0x264>
    195c:	88800317 	ldw	r2,12(r17)
    1960:	89000217 	ldw	r4,8(r17)
    1964:	1129c83a 	sub	r20,r2,r4
    1968:	85007736 	bltu	r16,r20,1b48 <f_read+0x25c>
		LEAVE_FF(fp->fs, FR_DENIED);
	remain = fp->fsize - fp->fptr;
	if (btr > remain) btr = (UINT)remain;		/* Truncate btr by remaining bytes */

	for ( ;  btr;								/* Repeat until all data read */
    196c:	a0006926 	beq	r20,zero,1b14 <f_read+0x228>
		rbuff += rcnt, fp->fptr += rcnt, *br += rcnt, btr -= rcnt) {
		if ((fp->fptr % SS(fp->fs)) == 0) {		/* On the sector boundary? */
    1970:	20807fcc 	andi	r2,r4,511
)
{
	FRESULT res;
	DWORD clst, sect, remain;
	UINT rcnt, cc;
	BYTE csect, *rbuff = buff;
    1974:	902d883a 	mov	r22,r18
	remain = fp->fsize - fp->fptr;
	if (btr > remain) btr = (UINT)remain;		/* Truncate btr by remaining bytes */

	for ( ;  btr;								/* Repeat until all data read */
		rbuff += rcnt, fp->fptr += rcnt, *br += rcnt, btr -= rcnt) {
		if ((fp->fptr % SS(fp->fs)) == 0) {		/* On the sector boundary? */
    1978:	1000331e 	bne	r2,zero,1a48 <f_read+0x15c>
			csect = (BYTE)(fp->fptr / SS(fp->fs) & (fp->fs->csize - 1));	/* Sector offset in the cluster */
    197c:	8c000017 	ldw	r16,0(r17)
    1980:	2006d27a 	srli	r3,r4,9
    1984:	80800083 	ldbu	r2,2(r16)
    1988:	10bfffc4 	addi	r2,r2,-1
    198c:	1886703a 	and	r3,r3,r2
			if (!csect) {						/* On the cluster boundary? */
    1990:	1cc03fcc 	andi	r19,r3,255
    1994:	9800081e 	bne	r19,zero,19b8 <f_read+0xcc>
				if (fp->fptr == 0) {			/* On the top of the file? */
    1998:	2000541e 	bne	r4,zero,1aec <f_read+0x200>
					clst = fp->sclust;			/* Follow from the origin */
    199c:	88c00417 	ldw	r3,16(r17)
						clst = clmt_clust(fp, fp->fptr);	/* Get cluster# from the CLMT */
					else
#endif
						clst = get_fat(fp->fs, fp->clust);	/* Follow cluster chain on the FAT */
				}
				if (clst < 2) ABORT(fp->fs, FR_INT_ERR);
    19a0:	01000044 	movi	r4,1
    19a4:	20c06c2e 	bgeu	r4,r3,1b58 <f_read+0x26c>
				if (clst == 0xFFFFFFFF) ABORT(fp->fs, FR_DISK_ERR);
    19a8:	00bfffc4 	movi	r2,-1
    19ac:	18807626 	beq	r3,r2,1b88 <f_read+0x29c>
    19b0:	8c000017 	ldw	r16,0(r17)
				fp->clust = clst;				/* Update current cluster */
    19b4:	88c00515 	stw	r3,20(r17)
			}
			sect = clust2sect(fp->fs, fp->clust);	/* Get current sector */
    19b8:	89400517 	ldw	r5,20(r17)
    19bc:	8009883a 	mov	r4,r16
    19c0:	00007900 	call	790 <clust2sect>
			if (!sect) ABORT(fp->fs, FR_INT_ERR);
    19c4:	10006426 	beq	r2,zero,1b58 <f_read+0x26c>
			sect += csect;
			cc = btr / SS(fp->fs);				/* When remaining bytes >= sector size, */
    19c8:	a024d27a 	srli	r18,r20,9
				if (clst == 0xFFFFFFFF) ABORT(fp->fs, FR_DISK_ERR);
				fp->clust = clst;				/* Update current cluster */
			}
			sect = clust2sect(fp->fs, fp->clust);	/* Get current sector */
			if (!sect) ABORT(fp->fs, FR_INT_ERR);
			sect += csect;
    19cc:	14eb883a 	add	r21,r2,r19
			cc = btr / SS(fp->fs);				/* When remaining bytes >= sector size, */
			if (cc) {							/* Read maximum contiguous sectors directly */
    19d0:	90002526 	beq	r18,zero,1a68 <f_read+0x17c>
				if (csect + cc > fp->fs->csize)	/* Clip at cluster boundary */
    19d4:	80c00083 	ldbu	r3,2(r16)
    19d8:	94c5883a 	add	r2,r18,r19
    19dc:	1880012e 	bgeu	r3,r2,19e4 <f_read+0xf8>
					cc = fp->fs->csize - csect;
    19e0:	1ce5c83a 	sub	r18,r3,r19
				if (disk_read(fp->fs->drv, rbuff, sect, (BYTE)cc) != RES_OK)
    19e4:	81000043 	ldbu	r4,1(r16)
    19e8:	b00b883a 	mov	r5,r22
    19ec:	a80d883a 	mov	r6,r21
    19f0:	91c03fcc 	andi	r7,r18,255
    19f4:	0004d0c0 	call	4d0c <disk_read>
    19f8:	10005d1e 	bne	r2,zero,1b70 <f_read+0x284>
#if !_FS_READONLY && _FS_MINIMIZE <= 2			/* Replace one of the read sectors with cached data if it contains a dirty sector */
#if _FS_TINY
				if (fp->fs->wflag && fp->fs->winsect - sect < cc)
					mem_cpy(rbuff + ((fp->fs->winsect - sect) * SS(fp->fs)), fp->fs->win, SS(fp->fs));
#else
				if ((fp->flag & FA__DIRTY) && fp->dsect - sect < cc)
    19fc:	88800183 	ldbu	r2,6(r17)
    1a00:	1080100c 	andi	r2,r2,64
    1a04:	10000326 	beq	r2,zero,1a14 <f_read+0x128>
    1a08:	88800617 	ldw	r2,24(r17)
    1a0c:	1545c83a 	sub	r2,r2,r21
    1a10:	14800f36 	bltu	r2,r18,1a50 <f_read+0x164>
					mem_cpy(rbuff + ((fp->dsect - sect) * SS(fp->fs)), fp->buf, SS(fp->fs));
#endif
#endif
				rcnt = SS(fp->fs) * cc;			/* Number of bytes transferred */
    1a14:	9020927a 	slli	r16,r18,9
		LEAVE_FF(fp->fs, FR_DENIED);
	remain = fp->fsize - fp->fptr;
	if (btr > remain) btr = (UINT)remain;		/* Truncate btr by remaining bytes */

	for ( ;  btr;								/* Repeat until all data read */
		rbuff += rcnt, fp->fptr += rcnt, *br += rcnt, btr -= rcnt) {
    1a18:	89000217 	ldw	r4,8(r17)
    1a1c:	b8c00017 	ldw	r3,0(r23)
    1a20:	a429c83a 	sub	r20,r20,r16
    1a24:	2405883a 	add	r2,r4,r16
    1a28:	1c07883a 	add	r3,r3,r16
    1a2c:	1009883a 	mov	r4,r2
    1a30:	b8c00015 	stw	r3,0(r23)
    1a34:	88800215 	stw	r2,8(r17)
	if (!(fp->flag & FA_READ)) 					/* Check access mode */
		LEAVE_FF(fp->fs, FR_DENIED);
	remain = fp->fsize - fp->fptr;
	if (btr > remain) btr = (UINT)remain;		/* Truncate btr by remaining bytes */

	for ( ;  btr;								/* Repeat until all data read */
    1a38:	a0003626 	beq	r20,zero,1b14 <f_read+0x228>
		rbuff += rcnt, fp->fptr += rcnt, *br += rcnt, btr -= rcnt) {
		if ((fp->fptr % SS(fp->fs)) == 0) {		/* On the sector boundary? */
    1a3c:	20807fcc 	andi	r2,r4,511
		LEAVE_FF(fp->fs, FR_DENIED);
	remain = fp->fsize - fp->fptr;
	if (btr > remain) btr = (UINT)remain;		/* Truncate btr by remaining bytes */

	for ( ;  btr;								/* Repeat until all data read */
		rbuff += rcnt, fp->fptr += rcnt, *br += rcnt, btr -= rcnt) {
    1a40:	b42d883a 	add	r22,r22,r16
		if ((fp->fptr % SS(fp->fs)) == 0) {		/* On the sector boundary? */
    1a44:	103fcd26 	beq	r2,zero,197c <f_read+0x90>
    1a48:	8c800904 	addi	r18,r17,36
    1a4c:	00001d06 	br	1ac4 <f_read+0x1d8>
#if _FS_TINY
				if (fp->fs->wflag && fp->fs->winsect - sect < cc)
					mem_cpy(rbuff + ((fp->fs->winsect - sect) * SS(fp->fs)), fp->fs->win, SS(fp->fs));
#else
				if ((fp->flag & FA__DIRTY) && fp->dsect - sect < cc)
					mem_cpy(rbuff + ((fp->dsect - sect) * SS(fp->fs)), fp->buf, SS(fp->fs));
    1a50:	1008927a 	slli	r4,r2,9
    1a54:	89400904 	addi	r5,r17,36
    1a58:	01808004 	movi	r6,512
    1a5c:	2589883a 	add	r4,r4,r22
    1a60:	00007240 	call	724 <mem_cpy>
    1a64:	003feb06 	br	1a14 <f_read+0x128>
#endif
				rcnt = SS(fp->fs) * cc;			/* Number of bytes transferred */
				continue;
			}
#if !_FS_TINY
			if (fp->dsect != sect) {			/* Load data sector if not in cache */
    1a68:	89800617 	ldw	r6,24(r17)
    1a6c:	a9802626 	beq	r21,r6,1b08 <f_read+0x21c>
#if !_FS_READONLY
				if (fp->flag & FA__DIRTY) {		/* Write-back dirty sector cache */
    1a70:	88800183 	ldbu	r2,6(r17)
    1a74:	1080100c 	andi	r2,r2,64
    1a78:	10002126 	beq	r2,zero,1b00 <f_read+0x214>
					if (disk_write(fp->fs->drv, fp->buf, fp->dsect, 1) != RES_OK)
    1a7c:	81000043 	ldbu	r4,1(r16)
    1a80:	8c800904 	addi	r18,r17,36
    1a84:	900b883a 	mov	r5,r18
    1a88:	01c00044 	movi	r7,1
    1a8c:	0004b8c0 	call	4b8c <disk_write>
    1a90:	1000371e 	bne	r2,zero,1b70 <f_read+0x284>
						ABORT(fp->fs, FR_DISK_ERR);
					fp->flag &= ~FA__DIRTY;
    1a94:	88800183 	ldbu	r2,6(r17)
    1a98:	8c000017 	ldw	r16,0(r17)
    1a9c:	10802fcc 	andi	r2,r2,191
    1aa0:	88800185 	stb	r2,6(r17)
				}
#endif
				if (disk_read(fp->fs->drv, fp->buf, sect, 1) != RES_OK)	/* Fill sector cache */
    1aa4:	81000043 	ldbu	r4,1(r16)
    1aa8:	900b883a 	mov	r5,r18
    1aac:	a80d883a 	mov	r6,r21
    1ab0:	01c00044 	movi	r7,1
    1ab4:	0004d0c0 	call	4d0c <disk_read>
    1ab8:	10002d1e 	bne	r2,zero,1b70 <f_read+0x284>
    1abc:	89000217 	ldw	r4,8(r17)
					ABORT(fp->fs, FR_DISK_ERR);
			}
#endif
			fp->dsect = sect;
    1ac0:	8d400615 	stw	r21,24(r17)
		}
		rcnt = SS(fp->fs) - (fp->fptr % SS(fp->fs));	/* Get partial sector data from sector buffer */
    1ac4:	20c07fcc 	andi	r3,r4,511
    1ac8:	00808004 	movi	r2,512
    1acc:	10e1c83a 	sub	r16,r2,r3
    1ad0:	a400012e 	bgeu	r20,r16,1ad8 <f_read+0x1ec>
    1ad4:	a021883a 	mov	r16,r20
#if _FS_TINY
		if (move_window(fp->fs, fp->dsect))		/* Move sector window */
			ABORT(fp->fs, FR_DISK_ERR);
		mem_cpy(rbuff, &fp->fs->win[fp->fptr % SS(fp->fs)], rcnt);	/* Pick partial sector */
#else
		mem_cpy(rbuff, &fp->buf[fp->fptr % SS(fp->fs)], rcnt);	/* Pick partial sector */
    1ad8:	90cb883a 	add	r5,r18,r3
    1adc:	b009883a 	mov	r4,r22
    1ae0:	800d883a 	mov	r6,r16
    1ae4:	00007240 	call	724 <mem_cpy>
    1ae8:	003fcb06 	br	1a18 <f_read+0x12c>
#if _USE_FASTSEEK
					if (fp->cltbl)
						clst = clmt_clust(fp, fp->fptr);	/* Get cluster# from the CLMT */
					else
#endif
						clst = get_fat(fp->fs, fp->clust);	/* Follow cluster chain on the FAT */
    1aec:	89400517 	ldw	r5,20(r17)
    1af0:	8009883a 	mov	r4,r16
    1af4:	00015240 	call	1524 <get_fat>
    1af8:	1007883a 	mov	r3,r2
    1afc:	003fa806 	br	19a0 <f_read+0xb4>
    1b00:	8c800904 	addi	r18,r17,36
    1b04:	003fe706 	br	1aa4 <f_read+0x1b8>
    1b08:	8c800904 	addi	r18,r17,36
    1b0c:	003feb06 	br	1abc <f_read+0x1d0>
		LEAVE_FF(fp->fs, FR_DENIED);
	remain = fp->fsize - fp->fptr;
	if (btr > remain) btr = (UINT)remain;		/* Truncate btr by remaining bytes */

	for ( ;  btr;								/* Repeat until all data read */
		rbuff += rcnt, fp->fptr += rcnt, *br += rcnt, btr -= rcnt) {
    1b10:	07000084 	movi	fp,2
		mem_cpy(rbuff, &fp->buf[fp->fptr % SS(fp->fs)], rcnt);	/* Pick partial sector */
#endif
	}

	LEAVE_FF(fp->fs, FR_OK);
}
    1b14:	e005883a 	mov	r2,fp
    1b18:	dfc00917 	ldw	ra,36(sp)
    1b1c:	df000817 	ldw	fp,32(sp)
    1b20:	ddc00717 	ldw	r23,28(sp)
    1b24:	dd800617 	ldw	r22,24(sp)
    1b28:	dd400517 	ldw	r21,20(sp)
    1b2c:	dd000417 	ldw	r20,16(sp)
    1b30:	dcc00317 	ldw	r19,12(sp)
    1b34:	dc800217 	ldw	r18,8(sp)
    1b38:	dc400117 	ldw	r17,4(sp)
    1b3c:	dc000017 	ldw	r16,0(sp)
    1b40:	dec00a04 	addi	sp,sp,40
    1b44:	f800283a 	ret

	res = validate(fp->fs, fp->id);				/* Check validity */
	if (res != FR_OK) LEAVE_FF(fp->fs, res);
	if (fp->flag & FA__ERROR)					/* Aborted file? */
		LEAVE_FF(fp->fs, FR_INT_ERR);
	if (!(fp->flag & FA_READ)) 					/* Check access mode */
    1b48:	8029883a 	mov	r20,r16
    1b4c:	003f8706 	br	196c <f_read+0x80>
    1b50:	070001c4 	movi	fp,7
    1b54:	003fef06 	br	1b14 <f_read+0x228>
				if (clst < 2) ABORT(fp->fs, FR_INT_ERR);
				if (clst == 0xFFFFFFFF) ABORT(fp->fs, FR_DISK_ERR);
				fp->clust = clst;				/* Update current cluster */
			}
			sect = clust2sect(fp->fs, fp->clust);	/* Get current sector */
			if (!sect) ABORT(fp->fs, FR_INT_ERR);
    1b58:	88800183 	ldbu	r2,6(r17)
    1b5c:	00ffe004 	movi	r3,-128
    1b60:	07000084 	movi	fp,2
    1b64:	10c4b03a 	or	r2,r2,r3
    1b68:	88800185 	stb	r2,6(r17)
    1b6c:	003fe906 	br	1b14 <f_read+0x228>
						ABORT(fp->fs, FR_DISK_ERR);
					fp->flag &= ~FA__DIRTY;
				}
#endif
				if (disk_read(fp->fs->drv, fp->buf, sect, 1) != RES_OK)	/* Fill sector cache */
					ABORT(fp->fs, FR_DISK_ERR);
    1b70:	88800183 	ldbu	r2,6(r17)
    1b74:	00ffe004 	movi	r3,-128
    1b78:	07000044 	movi	fp,1
    1b7c:	10c4b03a 	or	r2,r2,r3
    1b80:	88800185 	stb	r2,6(r17)
    1b84:	003fe306 	br	1b14 <f_read+0x228>
					else
#endif
						clst = get_fat(fp->fs, fp->clust);	/* Follow cluster chain on the FAT */
				}
				if (clst < 2) ABORT(fp->fs, FR_INT_ERR);
				if (clst == 0xFFFFFFFF) ABORT(fp->fs, FR_DISK_ERR);
    1b88:	88800183 	ldbu	r2,6(r17)
    1b8c:	00ffe004 	movi	r3,-128
    1b90:	2039883a 	mov	fp,r4
    1b94:	10c4b03a 	or	r2,r2,r3
    1b98:	88800185 	stb	r2,6(r17)
    1b9c:	003fdd06 	br	1b14 <f_read+0x228>

00001ba0 <dir_sdi>:
	DWORD clst;
	WORD ic;


	dj->index = idx;
	clst = dj->sclust;
    1ba0:	20c00217 	ldw	r3,8(r4)
static
FRESULT dir_sdi (
	DIR *dj,		/* Pointer to directory object */
	WORD idx		/* Directory index number */
)
{
    1ba4:	defff704 	addi	sp,sp,-36
	WORD ic;


	dj->index = idx;
	clst = dj->sclust;
	if (clst == 1 || clst >= dj->fs->n_fatent)	/* Check start cluster range */
    1ba8:	00800044 	movi	r2,1
static
FRESULT dir_sdi (
	DIR *dj,		/* Pointer to directory object */
	WORD idx		/* Directory index number */
)
{
    1bac:	dc800215 	stw	r18,8(sp)
    1bb0:	dc400115 	stw	r17,4(sp)
    1bb4:	dfc00815 	stw	ra,32(sp)
    1bb8:	ddc00715 	stw	r23,28(sp)
    1bbc:	dd800615 	stw	r22,24(sp)
    1bc0:	dd400515 	stw	r21,20(sp)
    1bc4:	dd000415 	stw	r20,16(sp)
    1bc8:	dcc00315 	stw	r19,12(sp)
    1bcc:	dc000015 	stw	r16,0(sp)
    1bd0:	2025883a 	mov	r18,r4
	DWORD clst;
	WORD ic;


	dj->index = idx;
    1bd4:	2140018d 	sth	r5,6(r4)
static
FRESULT dir_sdi (
	DIR *dj,		/* Pointer to directory object */
	WORD idx		/* Directory index number */
)
{
    1bd8:	2823883a 	mov	r17,r5
	WORD ic;


	dj->index = idx;
	clst = dj->sclust;
	if (clst == 1 || clst >= dj->fs->n_fatent)	/* Check start cluster range */
    1bdc:	18801f26 	beq	r3,r2,1c5c <dir_sdi+0xbc>
    1be0:	24000017 	ldw	r16,0(r4)
    1be4:	80800617 	ldw	r2,24(r16)
    1be8:	18801c2e 	bgeu	r3,r2,1c5c <dir_sdi+0xbc>
		return FR_INT_ERR;
	if (!clst && dj->fs->fs_type == FS_FAT32)	/* Replace cluster# 0 with root cluster# if in FAT32 */
    1bec:	18002826 	beq	r3,zero,1c90 <dir_sdi+0xf0>
		if (idx >= dj->fs->n_rootdir)		/* Index is out of range */
			return FR_INT_ERR;
		dj->sect = dj->fs->dirbase + idx / (SS(dj->fs) / SZ_DIR);	/* Sector# */
	}
	else {				/* Dynamic table (sub-dirs or root-dir in FAT32) */
		ic = SS(dj->fs) / SZ_DIR * dj->fs->csize;	/* Entries per cluster */
    1bf0:	80800083 	ldbu	r2,2(r16)
		while (idx >= ic) {	/* Follow cluster chain */
    1bf4:	8cffffcc 	andi	r19,r17,65535
		if (idx >= dj->fs->n_rootdir)		/* Index is out of range */
			return FR_INT_ERR;
		dj->sect = dj->fs->dirbase + idx / (SS(dj->fs) / SZ_DIR);	/* Sector# */
	}
	else {				/* Dynamic table (sub-dirs or root-dir in FAT32) */
		ic = SS(dj->fs) / SZ_DIR * dj->fs->csize;	/* Entries per cluster */
    1bf8:	1004913a 	slli	r2,r2,4
		while (idx >= ic) {	/* Follow cluster chain */
    1bfc:	157fffcc 	andi	r21,r2,65535
		if (idx >= dj->fs->n_rootdir)		/* Index is out of range */
			return FR_INT_ERR;
		dj->sect = dj->fs->dirbase + idx / (SS(dj->fs) / SZ_DIR);	/* Sector# */
	}
	else {				/* Dynamic table (sub-dirs or root-dir in FAT32) */
		ic = SS(dj->fs) / SZ_DIR * dj->fs->csize;	/* Entries per cluster */
    1c00:	1029883a 	mov	r20,r2
		while (idx >= ic) {	/* Follow cluster chain */
    1c04:	9d403536 	bltu	r19,r21,1cdc <dir_sdi+0x13c>
    1c08:	88a3c83a 	sub	r17,r17,r2
    1c0c:	00a7c83a 	sub	r19,zero,r2
    1c10:	05ffffc4 	movi	r23,-1
    1c14:	05800044 	movi	r22,1
    1c18:	00000606 	br	1c34 <dir_sdi+0x94>
			clst = get_fat(dj->fs, clst);				/* Get next cluster */
			if (clst == 0xFFFFFFFF) return FR_DISK_ERR;	/* Disk error */
			if (clst < 2 || clst >= dj->fs->n_fatent)	/* Reached to end of table or int error */
    1c1c:	b0c00f2e 	bgeu	r22,r3,1c5c <dir_sdi+0xbc>
    1c20:	94000017 	ldw	r16,0(r18)
    1c24:	80800617 	ldw	r2,24(r16)
    1c28:	18800c2e 	bgeu	r3,r2,1c5c <dir_sdi+0xbc>
			return FR_INT_ERR;
		dj->sect = dj->fs->dirbase + idx / (SS(dj->fs) / SZ_DIR);	/* Sector# */
	}
	else {				/* Dynamic table (sub-dirs or root-dir in FAT32) */
		ic = SS(dj->fs) / SZ_DIR * dj->fs->csize;	/* Entries per cluster */
		while (idx >= ic) {	/* Follow cluster chain */
    1c2c:	2d402a36 	bltu	r5,r21,1cd8 <dir_sdi+0x138>
    1c30:	2023883a 	mov	r17,r4
			clst = get_fat(dj->fs, clst);				/* Get next cluster */
    1c34:	91000017 	ldw	r4,0(r18)
    1c38:	180b883a 	mov	r5,r3
    1c3c:	00015240 	call	1524 <get_fat>
			if (clst == 0xFFFFFFFF) return FR_DISK_ERR;	/* Disk error */
			if (clst < 2 || clst >= dj->fs->n_fatent)	/* Reached to end of table or int error */
    1c40:	8cc9883a 	add	r4,r17,r19
		dj->sect = dj->fs->dirbase + idx / (SS(dj->fs) / SZ_DIR);	/* Sector# */
	}
	else {				/* Dynamic table (sub-dirs or root-dir in FAT32) */
		ic = SS(dj->fs) / SZ_DIR * dj->fs->csize;	/* Entries per cluster */
		while (idx >= ic) {	/* Follow cluster chain */
			clst = get_fat(dj->fs, clst);				/* Get next cluster */
    1c44:	1007883a 	mov	r3,r2
			return FR_INT_ERR;
		dj->sect = dj->fs->dirbase + idx / (SS(dj->fs) / SZ_DIR);	/* Sector# */
	}
	else {				/* Dynamic table (sub-dirs or root-dir in FAT32) */
		ic = SS(dj->fs) / SZ_DIR * dj->fs->csize;	/* Entries per cluster */
		while (idx >= ic) {	/* Follow cluster chain */
    1c48:	2505883a 	add	r2,r4,r20
    1c4c:	117fffcc 	andi	r5,r2,65535
			clst = get_fat(dj->fs, clst);				/* Get next cluster */
			if (clst == 0xFFFFFFFF) return FR_DISK_ERR;	/* Disk error */
    1c50:	1dfff21e 	bne	r3,r23,1c1c <dir_sdi+0x7c>
    1c54:	01000044 	movi	r4,1
    1c58:	00000106 	br	1c60 <dir_sdi+0xc0>
		dj->sect = clust2sect(dj->fs, clst) + idx / (SS(dj->fs) / SZ_DIR);	/* Sector# */
	}

	dj->dir = dj->fs->win + (idx % (SS(dj->fs) / SZ_DIR)) * SZ_DIR;	/* Ptr to the entry in the sector */

	return FR_OK;	/* Seek succeeded */
    1c5c:	01000084 	movi	r4,2
}
    1c60:	2005883a 	mov	r2,r4
    1c64:	dfc00817 	ldw	ra,32(sp)
    1c68:	ddc00717 	ldw	r23,28(sp)
    1c6c:	dd800617 	ldw	r22,24(sp)
    1c70:	dd400517 	ldw	r21,20(sp)
    1c74:	dd000417 	ldw	r20,16(sp)
    1c78:	dcc00317 	ldw	r19,12(sp)
    1c7c:	dc800217 	ldw	r18,8(sp)
    1c80:	dc400117 	ldw	r17,4(sp)
    1c84:	dc000017 	ldw	r16,0(sp)
    1c88:	dec00904 	addi	sp,sp,36
    1c8c:	f800283a 	ret

	dj->index = idx;
	clst = dj->sclust;
	if (clst == 1 || clst >= dj->fs->n_fatent)	/* Check start cluster range */
		return FR_INT_ERR;
	if (!clst && dj->fs->fs_type == FS_FAT32)	/* Replace cluster# 0 with root cluster# if in FAT32 */
    1c90:	80c00003 	ldbu	r3,0(r16)
    1c94:	008000c4 	movi	r2,3
    1c98:	18801826 	beq	r3,r2,1cfc <dir_sdi+0x15c>
		clst = dj->fs->dirbase;

	if (clst == 0) {	/* Static table (root-dir in FAT12/16) */
		dj->clust = clst;
		if (idx >= dj->fs->n_rootdir)		/* Index is out of range */
    1c9c:	8080020b 	ldhu	r2,8(r16)
    1ca0:	8cffffcc 	andi	r19,r17,65535
		return FR_INT_ERR;
	if (!clst && dj->fs->fs_type == FS_FAT32)	/* Replace cluster# 0 with root cluster# if in FAT32 */
		clst = dj->fs->dirbase;

	if (clst == 0) {	/* Static table (root-dir in FAT12/16) */
		dj->clust = clst;
    1ca4:	90000315 	stw	zero,12(r18)
		if (idx >= dj->fs->n_rootdir)		/* Index is out of range */
    1ca8:	98bfec2e 	bgeu	r19,r2,1c5c <dir_sdi+0xbc>
			return FR_INT_ERR;
		dj->sect = dj->fs->dirbase + idx / (SS(dj->fs) / SZ_DIR);	/* Sector# */
    1cac:	80800917 	ldw	r2,36(r16)
    1cb0:	9806d13a 	srli	r3,r19,4
    1cb4:	10c5883a 	add	r2,r2,r3
    1cb8:	90800415 	stw	r2,16(r18)
		}
		dj->clust = clst;
		dj->sect = clust2sect(dj->fs, clst) + idx / (SS(dj->fs) / SZ_DIR);	/* Sector# */
	}

	dj->dir = dj->fs->win + (idx % (SS(dj->fs) / SZ_DIR)) * SZ_DIR;	/* Ptr to the entry in the sector */
    1cbc:	98c003cc 	andi	r3,r19,15
    1cc0:	1806917a 	slli	r3,r3,5
    1cc4:	80800c04 	addi	r2,r16,48
    1cc8:	0009883a 	mov	r4,zero
    1ccc:	10c5883a 	add	r2,r2,r3
    1cd0:	90800515 	stw	r2,20(r18)
    1cd4:	003fe206 	br	1c60 <dir_sdi+0xc0>
    1cd8:	8cffffcc 	andi	r19,r17,65535
			if (clst < 2 || clst >= dj->fs->n_fatent)	/* Reached to end of table or int error */
				return FR_INT_ERR;
			idx -= ic;
		}
		dj->clust = clst;
		dj->sect = clust2sect(dj->fs, clst) + idx / (SS(dj->fs) / SZ_DIR);	/* Sector# */
    1cdc:	91000017 	ldw	r4,0(r18)
			if (clst == 0xFFFFFFFF) return FR_DISK_ERR;	/* Disk error */
			if (clst < 2 || clst >= dj->fs->n_fatent)	/* Reached to end of table or int error */
				return FR_INT_ERR;
			idx -= ic;
		}
		dj->clust = clst;
    1ce0:	90c00315 	stw	r3,12(r18)
		dj->sect = clust2sect(dj->fs, clst) + idx / (SS(dj->fs) / SZ_DIR);	/* Sector# */
    1ce4:	180b883a 	mov	r5,r3
    1ce8:	00007900 	call	790 <clust2sect>
    1cec:	9806d13a 	srli	r3,r19,4
    1cf0:	10c5883a 	add	r2,r2,r3
    1cf4:	90800415 	stw	r2,16(r18)
    1cf8:	003ff006 	br	1cbc <dir_sdi+0x11c>
	dj->index = idx;
	clst = dj->sclust;
	if (clst == 1 || clst >= dj->fs->n_fatent)	/* Check start cluster range */
		return FR_INT_ERR;
	if (!clst && dj->fs->fs_type == FS_FAT32)	/* Replace cluster# 0 with root cluster# if in FAT32 */
		clst = dj->fs->dirbase;
    1cfc:	80c00917 	ldw	r3,36(r16)

	if (clst == 0) {	/* Static table (root-dir in FAT12/16) */
    1d00:	183fbb1e 	bne	r3,zero,1bf0 <dir_sdi+0x50>
    1d04:	003fe506 	br	1c9c <dir_sdi+0xfc>

00001d08 <create_chain>:
static
DWORD create_chain (	/* 0:No free cluster, 1:Internal error, 0xFFFFFFFF:Disk error, >=2:New cluster# */
	FATFS *fs,			/* File system object */
	DWORD clst			/* Cluster# to stretch. 0 means create a new chain. */
)
{
    1d08:	defff904 	addi	sp,sp,-28
    1d0c:	dd400515 	stw	r21,20(sp)
    1d10:	dc800215 	stw	r18,8(sp)
    1d14:	dfc00615 	stw	ra,24(sp)
    1d18:	dd000415 	stw	r20,16(sp)
    1d1c:	dcc00315 	stw	r19,12(sp)
    1d20:	dc400115 	stw	r17,4(sp)
    1d24:	dc000015 	stw	r16,0(sp)
    1d28:	282b883a 	mov	r21,r5
    1d2c:	2025883a 	mov	r18,r4
	DWORD cs, ncl, scl;
	FRESULT res;


	if (clst == 0) {		/* Create a new chain */
    1d30:	2800231e 	bne	r5,zero,1dc0 <create_chain+0xb8>
		scl = fs->last_clust;			/* Get suggested start point */
    1d34:	24400317 	ldw	r17,12(r4)
		if (!scl || scl >= fs->n_fatent) scl = 1;
    1d38:	88001e1e 	bne	r17,zero,1db4 <create_chain+0xac>
    1d3c:	20800617 	ldw	r2,24(r4)
	}
	else {					/* Stretch the current chain */
		cs = get_fat(fs, clst);			/* Check the cluster status */
		if (cs < 2) return 1;			/* It is an invalid cluster */
		if (cs < fs->n_fatent) return cs;	/* It is already followed by next cluster */
    1d40:	04400044 	movi	r17,1
    1d44:	8821883a 	mov	r16,r17
    1d48:	04c00044 	movi	r19,1
    1d4c:	053fffc4 	movi	r20,-1
    1d50:	00000106 	br	1d58 <create_chain+0x50>
    1d54:	90800617 	ldw	r2,24(r18)
		scl = clst;
	}

	ncl = scl;				/* Start cluster */
	for (;;) {
		ncl++;							/* Next cluster */
    1d58:	84000044 	addi	r16,r16,1
		if (ncl >= fs->n_fatent) {		/* Wrap around */
			ncl = 2;
			if (ncl > scl) return 0;	/* No free cluster */
		}
		cs = get_fat(fs, ncl);			/* Get the cluster status */
    1d5c:	9009883a 	mov	r4,r18
	}

	ncl = scl;				/* Start cluster */
	for (;;) {
		ncl++;							/* Next cluster */
		if (ncl >= fs->n_fatent) {		/* Wrap around */
    1d60:	80800236 	bltu	r16,r2,1d6c <create_chain+0x64>
			ncl = 2;
			if (ncl > scl) return 0;	/* No free cluster */
    1d64:	9c40082e 	bgeu	r19,r17,1d88 <create_chain+0x80>
    1d68:	04000084 	movi	r16,2
		}
		cs = get_fat(fs, ncl);			/* Get the cluster status */
    1d6c:	800b883a 	mov	r5,r16
    1d70:	00015240 	call	1524 <get_fat>
    1d74:	1007883a 	mov	r3,r2
		if (cs == 0) break;				/* Found a free cluster */
    1d78:	10001926 	beq	r2,zero,1de0 <create_chain+0xd8>
		if (cs == 0xFFFFFFFF || cs == 1)/* An error occurred */
    1d7c:	15000326 	beq	r2,r20,1d8c <create_chain+0x84>
    1d80:	14c00226 	beq	r2,r19,1d8c <create_chain+0x84>
			return cs;
		if (ncl == scl) return 0;		/* No free cluster */
    1d84:	847ff31e 	bne	r16,r17,1d54 <create_chain+0x4c>
		if (fs->free_clust != 0xFFFFFFFF) {
			fs->free_clust--;
			fs->fsi_flag = 1;
		}
	} else {
		ncl = (res == FR_DISK_ERR) ? 0xFFFFFFFF : 1;
    1d88:	0007883a 	mov	r3,zero
	}

	return ncl;		/* Return new cluster number or error code */
}
    1d8c:	1805883a 	mov	r2,r3
    1d90:	dfc00617 	ldw	ra,24(sp)
    1d94:	dd400517 	ldw	r21,20(sp)
    1d98:	dd000417 	ldw	r20,16(sp)
    1d9c:	dcc00317 	ldw	r19,12(sp)
    1da0:	dc800217 	ldw	r18,8(sp)
    1da4:	dc400117 	ldw	r17,4(sp)
    1da8:	dc000017 	ldw	r16,0(sp)
    1dac:	dec00704 	addi	sp,sp,28
    1db0:	f800283a 	ret
	FRESULT res;


	if (clst == 0) {		/* Create a new chain */
		scl = fs->last_clust;			/* Get suggested start point */
		if (!scl || scl >= fs->n_fatent) scl = 1;
    1db4:	20800617 	ldw	r2,24(r4)
    1db8:	88bfe12e 	bgeu	r17,r2,1d40 <create_chain+0x38>
    1dbc:	003fe106 	br	1d44 <create_chain+0x3c>
	}
	else {					/* Stretch the current chain */
		cs = get_fat(fs, clst);			/* Check the cluster status */
    1dc0:	00015240 	call	1524 <get_fat>
    1dc4:	1007883a 	mov	r3,r2
		if (cs < 2) return 1;			/* It is an invalid cluster */
    1dc8:	00800044 	movi	r2,1
    1dcc:	10c01f2e 	bgeu	r2,r3,1e4c <create_chain+0x144>
		if (cs < fs->n_fatent) return cs;	/* It is already followed by next cluster */
    1dd0:	90800617 	ldw	r2,24(r18)
    1dd4:	18bfed36 	bltu	r3,r2,1d8c <create_chain+0x84>
    1dd8:	a823883a 	mov	r17,r21
    1ddc:	003fd906 	br	1d44 <create_chain+0x3c>
		if (cs == 0xFFFFFFFF || cs == 1)/* An error occurred */
			return cs;
		if (ncl == scl) return 0;		/* No free cluster */
	}

	res = put_fat(fs, ncl, 0x0FFFFFFF);	/* Mark the new cluster "last link" */
    1de0:	9009883a 	mov	r4,r18
    1de4:	800b883a 	mov	r5,r16
    1de8:	01840034 	movhi	r6,4096
    1dec:	31bfffc4 	addi	r6,r6,-1
    1df0:	00013480 	call	1348 <put_fat>
    1df4:	1007883a 	mov	r3,r2
	if (res == FR_OK && clst != 0) {
    1df8:	1000101e 	bne	r2,zero,1e3c <create_chain+0x134>
    1dfc:	a800091e 	bne	r21,zero,1e24 <create_chain+0x11c>
		res = put_fat(fs, clst, ncl);	/* Link it to the previous one if needed */
	}
	if (res == FR_OK) {
		fs->last_clust = ncl;			/* Update FSINFO */
		if (fs->free_clust != 0xFFFFFFFF) {
    1e00:	90c00417 	ldw	r3,16(r18)
    1e04:	00bfffc4 	movi	r2,-1
	res = put_fat(fs, ncl, 0x0FFFFFFF);	/* Mark the new cluster "last link" */
	if (res == FR_OK && clst != 0) {
		res = put_fat(fs, clst, ncl);	/* Link it to the previous one if needed */
	}
	if (res == FR_OK) {
		fs->last_clust = ncl;			/* Update FSINFO */
    1e08:	94000315 	stw	r16,12(r18)
		if (fs->free_clust != 0xFFFFFFFF) {
    1e0c:	18801126 	beq	r3,r2,1e54 <create_chain+0x14c>
			fs->free_clust--;
    1e10:	18bfffc4 	addi	r2,r3,-1
			fs->fsi_flag = 1;
    1e14:	8007883a 	mov	r3,r16
    1e18:	94c00145 	stb	r19,5(r18)
		res = put_fat(fs, clst, ncl);	/* Link it to the previous one if needed */
	}
	if (res == FR_OK) {
		fs->last_clust = ncl;			/* Update FSINFO */
		if (fs->free_clust != 0xFFFFFFFF) {
			fs->free_clust--;
    1e1c:	90800415 	stw	r2,16(r18)
    1e20:	003fda06 	br	1d8c <create_chain+0x84>
		if (ncl == scl) return 0;		/* No free cluster */
	}

	res = put_fat(fs, ncl, 0x0FFFFFFF);	/* Mark the new cluster "last link" */
	if (res == FR_OK && clst != 0) {
		res = put_fat(fs, clst, ncl);	/* Link it to the previous one if needed */
    1e24:	a80b883a 	mov	r5,r21
    1e28:	9009883a 	mov	r4,r18
    1e2c:	800d883a 	mov	r6,r16
    1e30:	00013480 	call	1348 <put_fat>
    1e34:	1007883a 	mov	r3,r2
	}
	if (res == FR_OK) {
    1e38:	103ff126 	beq	r2,zero,1e00 <create_chain+0xf8>
		if (fs->free_clust != 0xFFFFFFFF) {
			fs->free_clust--;
			fs->fsi_flag = 1;
		}
	} else {
		ncl = (res == FR_DISK_ERR) ? 0xFFFFFFFF : 1;
    1e3c:	00800044 	movi	r2,1
    1e40:	1880021e 	bne	r3,r2,1e4c <create_chain+0x144>
    1e44:	00ffffc4 	movi	r3,-1
    1e48:	003fd006 	br	1d8c <create_chain+0x84>
    1e4c:	00c00044 	movi	r3,1
    1e50:	003fce06 	br	1d8c <create_chain+0x84>
	if (res == FR_OK && clst != 0) {
		res = put_fat(fs, clst, ncl);	/* Link it to the previous one if needed */
	}
	if (res == FR_OK) {
		fs->last_clust = ncl;			/* Update FSINFO */
		if (fs->free_clust != 0xFFFFFFFF) {
    1e54:	8007883a 	mov	r3,r16
    1e58:	003fcc06 	br	1d8c <create_chain+0x84>

00001e5c <f_lseek>:

FRESULT f_lseek (
	FIL *fp,		/* Pointer to the file object */
	DWORD ofs		/* File pointer from top of file */
)
{
    1e5c:	defff904 	addi	sp,sp,-28
    1e60:	dc400115 	stw	r17,4(sp)
    1e64:	2023883a 	mov	r17,r4
    1e68:	dcc00315 	stw	r19,12(sp)
	FRESULT res;


	res = validate(fp->fs, fp->id);		/* Check validity of the object */
    1e6c:	21000017 	ldw	r4,0(r4)

FRESULT f_lseek (
	FIL *fp,		/* Pointer to the file object */
	DWORD ofs		/* File pointer from top of file */
)
{
    1e70:	2827883a 	mov	r19,r5
	FRESULT res;


	res = validate(fp->fs, fp->id);		/* Check validity of the object */
    1e74:	8940010b 	ldhu	r5,4(r17)

FRESULT f_lseek (
	FIL *fp,		/* Pointer to the file object */
	DWORD ofs		/* File pointer from top of file */
)
{
    1e78:	dd400515 	stw	r21,20(sp)
    1e7c:	dfc00615 	stw	ra,24(sp)
    1e80:	dd000415 	stw	r20,16(sp)
    1e84:	dc800215 	stw	r18,8(sp)
    1e88:	dc000015 	stw	r16,0(sp)
	FRESULT res;


	res = validate(fp->fs, fp->id);		/* Check validity of the object */
    1e8c:	00009800 	call	980 <validate>
    1e90:	102b883a 	mov	r21,r2
	if (res != FR_OK) LEAVE_FF(fp->fs, res);
    1e94:	10005c1e 	bne	r2,zero,2008 <f_lseek+0x1ac>
	if (fp->flag & FA__ERROR)			/* Check abort flag */
    1e98:	88c00183 	ldbu	r3,6(r17)
    1e9c:	18803fcc 	andi	r2,r3,255
    1ea0:	1080201c 	xori	r2,r2,128
    1ea4:	10bfe004 	addi	r2,r2,-128
    1ea8:	10007316 	blt	r2,zero,2078 <f_lseek+0x21c>

	/* Normal Seek */
	{
		DWORD clst, bcs, nsect, ifptr;

		if (ofs > fp->fsize					/* In read-only mode, clip offset with the file size */
    1eac:	89400317 	ldw	r5,12(r17)
    1eb0:	2cc0032e 	bgeu	r5,r19,1ec0 <f_lseek+0x64>
    1eb4:	1880008c 	andi	r2,r3,2
    1eb8:	1000011e 	bne	r2,zero,1ec0 <f_lseek+0x64>
    1ebc:	2827883a 	mov	r19,r5
#if !_FS_READONLY
			 && !(fp->flag & FA_WRITE)
#endif
			) ofs = fp->fsize;

		ifptr = fp->fptr;
    1ec0:	88c00217 	ldw	r3,8(r17)
		fp->fptr = nsect = 0;
    1ec4:	88000215 	stw	zero,8(r17)
		if (ofs) {
    1ec8:	98004f26 	beq	r19,zero,2008 <f_lseek+0x1ac>
			bcs = (DWORD)fp->fs->csize * SS(fp->fs);	/* Cluster size (byte) */
    1ecc:	89000017 	ldw	r4,0(r17)
    1ed0:	20800083 	ldbu	r2,2(r4)
    1ed4:	1024927a 	slli	r18,r2,9
			if (ifptr > 0 &&
    1ed8:	18000526 	beq	r3,zero,1ef0 <f_lseek+0x94>
    1edc:	197fffc4 	addi	r5,r3,-1
    1ee0:	98bfffc4 	addi	r2,r19,-1
    1ee4:	1485203a 	divu	r2,r2,r18
    1ee8:	2c87203a 	divu	r3,r5,r18
    1eec:	10c0502e 	bgeu	r2,r3,2030 <f_lseek+0x1d4>
				(ofs - 1) / bcs >= (ifptr - 1) / bcs) {	/* When seek to same or following cluster, */
				fp->fptr = (ifptr - 1) & ~(bcs - 1);	/* start from the current cluster */
				ofs -= fp->fptr;
				clst = fp->clust;
			} else {									/* When seek to back cluster, */
				clst = fp->sclust;						/* start from the first cluster */
    1ef0:	89800417 	ldw	r6,16(r17)
#if !_FS_READONLY
				if (clst == 0) {						/* If no cluster chain, create a new chain */
    1ef4:	30005526 	beq	r6,zero,204c <f_lseek+0x1f0>
					if (clst == 1) ABORT(fp->fs, FR_INT_ERR);
					if (clst == 0xFFFFFFFF) ABORT(fp->fs, FR_DISK_ERR);
					fp->sclust = clst;
				}
#endif
				fp->clust = clst;
    1ef8:	89800515 	stw	r6,20(r17)
			}
			if (clst != 0) {
    1efc:	30002026 	beq	r6,zero,1f80 <f_lseek+0x124>
				while (ofs > bcs) {						/* Cluster following loop */
    1f00:	94c06b2e 	bgeu	r18,r19,20b0 <f_lseek+0x254>
    1f04:	9ca7c83a 	sub	r19,r19,r18
    1f08:	04a9c83a 	sub	r20,zero,r18
    1f0c:	00001306 	br	1f5c <f_lseek+0x100>
#if !_FS_READONLY
					if (fp->flag & FA_WRITE) {			/* Check if in write mode or not */
						clst = create_chain(fp->fs, clst);	/* Force stretch if in write mode */
    1f10:	89000017 	ldw	r4,0(r17)
    1f14:	0001d080 	call	1d08 <create_chain>
    1f18:	100d883a 	mov	r6,r2
						if (clst == 0) {				/* When disk gets full, clip file size */
    1f1c:	10007326 	beq	r2,zero,20ec <f_lseek+0x290>
#endif
						clst = get_fat(fp->fs, clst);	/* Follow cluster chain if not in write mode */
					if (clst == 0xFFFFFFFF) ABORT(fp->fs, FR_DISK_ERR);
					if (clst <= 1 || clst >= fp->fs->n_fatent) ABORT(fp->fs, FR_INT_ERR);
					fp->clust = clst;
					fp->fptr += bcs;
    1f20:	a4cb883a 	add	r5,r20,r19
							ofs = bcs; break;
						}
					} else
#endif
						clst = get_fat(fp->fs, clst);	/* Follow cluster chain if not in write mode */
					if (clst == 0xFFFFFFFF) ABORT(fp->fs, FR_DISK_ERR);
    1f24:	00bfffc4 	movi	r2,-1
				}
#endif
				fp->clust = clst;
			}
			if (clst != 0) {
				while (ofs > bcs) {						/* Cluster following loop */
    1f28:	9149883a 	add	r4,r18,r5
							ofs = bcs; break;
						}
					} else
#endif
						clst = get_fat(fp->fs, clst);	/* Follow cluster chain if not in write mode */
					if (clst == 0xFFFFFFFF) ABORT(fp->fs, FR_DISK_ERR);
    1f2c:	30805426 	beq	r6,r2,2080 <f_lseek+0x224>
					if (clst <= 1 || clst >= fp->fs->n_fatent) ABORT(fp->fs, FR_INT_ERR);
    1f30:	00800044 	movi	r2,1
    1f34:	1180582e 	bgeu	r2,r6,2098 <f_lseek+0x23c>
    1f38:	88800017 	ldw	r2,0(r17)
    1f3c:	10c00617 	ldw	r3,24(r2)
    1f40:	30c0552e 	bgeu	r6,r3,2098 <f_lseek+0x23c>
					fp->clust = clst;
					fp->fptr += bcs;
    1f44:	8c000217 	ldw	r16,8(r17)
					} else
#endif
						clst = get_fat(fp->fs, clst);	/* Follow cluster chain if not in write mode */
					if (clst == 0xFFFFFFFF) ABORT(fp->fs, FR_DISK_ERR);
					if (clst <= 1 || clst >= fp->fs->n_fatent) ABORT(fp->fs, FR_INT_ERR);
					fp->clust = clst;
    1f48:	89800515 	stw	r6,20(r17)
					fp->fptr += bcs;
    1f4c:	84a1883a 	add	r16,r16,r18
    1f50:	8c000215 	stw	r16,8(r17)
				}
#endif
				fp->clust = clst;
			}
			if (clst != 0) {
				while (ofs > bcs) {						/* Cluster following loop */
    1f54:	9100572e 	bgeu	r18,r4,20b4 <f_lseek+0x258>
    1f58:	2827883a 	mov	r19,r5
#if !_FS_READONLY
					if (fp->flag & FA_WRITE) {			/* Check if in write mode or not */
    1f5c:	88800183 	ldbu	r2,6(r17)
						clst = create_chain(fp->fs, clst);	/* Force stretch if in write mode */
    1f60:	300b883a 	mov	r5,r6
				fp->clust = clst;
			}
			if (clst != 0) {
				while (ofs > bcs) {						/* Cluster following loop */
#if !_FS_READONLY
					if (fp->flag & FA_WRITE) {			/* Check if in write mode or not */
    1f64:	1080008c 	andi	r2,r2,2
    1f68:	103fe91e 	bne	r2,zero,1f10 <f_lseek+0xb4>
						if (clst == 0) {				/* When disk gets full, clip file size */
							ofs = bcs; break;
						}
					} else
#endif
						clst = get_fat(fp->fs, clst);	/* Follow cluster chain if not in write mode */
    1f6c:	89000017 	ldw	r4,0(r17)
    1f70:	300b883a 	mov	r5,r6
    1f74:	00015240 	call	1524 <get_fat>
    1f78:	100d883a 	mov	r6,r2
    1f7c:	003fe806 	br	1f20 <f_lseek+0xc4>
    1f80:	8c000217 	ldw	r16,8(r17)
				}
				fp->fptr += ofs;
				if (ofs % SS(fp->fs)) {
					nsect = clust2sect(fp->fs, clst);	/* Current sector */
					if (!nsect) ABORT(fp->fs, FR_INT_ERR);
					nsect += ofs / SS(fp->fs);
    1f84:	0025883a 	mov	r18,zero
				}
			}
		}
		if (fp->fptr % SS(fp->fs) && nsect != fp->dsect) {	/* Fill sector cache if needed */
    1f88:	80807fcc 	andi	r2,r16,511
    1f8c:	10001826 	beq	r2,zero,1ff0 <f_lseek+0x194>
    1f90:	89800617 	ldw	r6,24(r17)
    1f94:	91801626 	beq	r18,r6,1ff0 <f_lseek+0x194>
#if !_FS_TINY
#if !_FS_READONLY
			if (fp->flag & FA__DIRTY) {			/* Write-back dirty sector cache */
    1f98:	88800183 	ldbu	r2,6(r17)
    1f9c:	1080100c 	andi	r2,r2,64
    1fa0:	10005026 	beq	r2,zero,20e4 <f_lseek+0x288>
				if (disk_write(fp->fs->drv, fp->buf, fp->dsect, 1) != RES_OK)
    1fa4:	88800017 	ldw	r2,0(r17)
    1fa8:	8c000904 	addi	r16,r17,36
    1fac:	800b883a 	mov	r5,r16
    1fb0:	11000043 	ldbu	r4,1(r2)
    1fb4:	01c00044 	movi	r7,1
    1fb8:	0004b8c0 	call	4b8c <disk_write>
    1fbc:	1000301e 	bne	r2,zero,2080 <f_lseek+0x224>
					ABORT(fp->fs, FR_DISK_ERR);
				fp->flag &= ~FA__DIRTY;
    1fc0:	88800183 	ldbu	r2,6(r17)
    1fc4:	10802fcc 	andi	r2,r2,191
    1fc8:	88800185 	stb	r2,6(r17)
			}
#endif
			if (disk_read(fp->fs->drv, fp->buf, nsect, 1) != RES_OK)	/* Fill sector cache */
    1fcc:	88800017 	ldw	r2,0(r17)
    1fd0:	800b883a 	mov	r5,r16
    1fd4:	900d883a 	mov	r6,r18
    1fd8:	11000043 	ldbu	r4,1(r2)
    1fdc:	01c00044 	movi	r7,1
    1fe0:	0004d0c0 	call	4d0c <disk_read>
    1fe4:	1000261e 	bne	r2,zero,2080 <f_lseek+0x224>
    1fe8:	8c000217 	ldw	r16,8(r17)
				ABORT(fp->fs, FR_DISK_ERR);
#endif
			fp->dsect = nsect;
    1fec:	8c800615 	stw	r18,24(r17)
		}
#if !_FS_READONLY
		if (fp->fptr > fp->fsize) {			/* Set file change flag if the file size is extended */
    1ff0:	88800317 	ldw	r2,12(r17)
    1ff4:	1400042e 	bgeu	r2,r16,2008 <f_lseek+0x1ac>
			fp->fsize = fp->fptr;
			fp->flag |= FA__WRITTEN;
    1ff8:	88800183 	ldbu	r2,6(r17)
#endif
			fp->dsect = nsect;
		}
#if !_FS_READONLY
		if (fp->fptr > fp->fsize) {			/* Set file change flag if the file size is extended */
			fp->fsize = fp->fptr;
    1ffc:	8c000315 	stw	r16,12(r17)
			fp->flag |= FA__WRITTEN;
    2000:	10800814 	ori	r2,r2,32
    2004:	88800185 	stb	r2,6(r17)
		}
#endif
	}

	LEAVE_FF(fp->fs, res);
}
    2008:	a805883a 	mov	r2,r21
    200c:	dfc00617 	ldw	ra,24(sp)
    2010:	dd400517 	ldw	r21,20(sp)
    2014:	dd000417 	ldw	r20,16(sp)
    2018:	dcc00317 	ldw	r19,12(sp)
    201c:	dc800217 	ldw	r18,8(sp)
    2020:	dc400117 	ldw	r17,4(sp)
    2024:	dc000017 	ldw	r16,0(sp)
    2028:	dec00704 	addi	sp,sp,28
    202c:	f800283a 	ret
			bcs = (DWORD)fp->fs->csize * SS(fp->fs);	/* Cluster size (byte) */
			if (ifptr > 0 &&
				(ofs - 1) / bcs >= (ifptr - 1) / bcs) {	/* When seek to same or following cluster, */
				fp->fptr = (ifptr - 1) & ~(bcs - 1);	/* start from the current cluster */
				ofs -= fp->fptr;
				clst = fp->clust;
    2030:	89800517 	ldw	r6,20(r17)
		fp->fptr = nsect = 0;
		if (ofs) {
			bcs = (DWORD)fp->fs->csize * SS(fp->fs);	/* Cluster size (byte) */
			if (ifptr > 0 &&
				(ofs - 1) / bcs >= (ifptr - 1) / bcs) {	/* When seek to same or following cluster, */
				fp->fptr = (ifptr - 1) & ~(bcs - 1);	/* start from the current cluster */
    2034:	0485c83a 	sub	r2,zero,r18
    2038:	28a0703a 	and	r16,r5,r2
				ofs -= fp->fptr;
    203c:	9c27c83a 	sub	r19,r19,r16
		fp->fptr = nsect = 0;
		if (ofs) {
			bcs = (DWORD)fp->fs->csize * SS(fp->fs);	/* Cluster size (byte) */
			if (ifptr > 0 &&
				(ofs - 1) / bcs >= (ifptr - 1) / bcs) {	/* When seek to same or following cluster, */
				fp->fptr = (ifptr - 1) & ~(bcs - 1);	/* start from the current cluster */
    2040:	8c000215 	stw	r16,8(r17)
					fp->sclust = clst;
				}
#endif
				fp->clust = clst;
			}
			if (clst != 0) {
    2044:	303fce26 	beq	r6,zero,1f80 <f_lseek+0x124>
    2048:	003fad06 	br	1f00 <f_lseek+0xa4>
				clst = fp->clust;
			} else {									/* When seek to back cluster, */
				clst = fp->sclust;						/* start from the first cluster */
#if !_FS_READONLY
				if (clst == 0) {						/* If no cluster chain, create a new chain */
					clst = create_chain(fp->fs, 0);
    204c:	000b883a 	mov	r5,zero
    2050:	0001d080 	call	1d08 <create_chain>
					if (clst == 1) ABORT(fp->fs, FR_INT_ERR);
    2054:	00c00044 	movi	r3,1
				clst = fp->clust;
			} else {									/* When seek to back cluster, */
				clst = fp->sclust;						/* start from the first cluster */
#if !_FS_READONLY
				if (clst == 0) {						/* If no cluster chain, create a new chain */
					clst = create_chain(fp->fs, 0);
    2058:	100d883a 	mov	r6,r2
					if (clst == 1) ABORT(fp->fs, FR_INT_ERR);
    205c:	10c0261e 	bne	r2,r3,20f8 <f_lseek+0x29c>
					ofs -= bcs;
				}
				fp->fptr += ofs;
				if (ofs % SS(fp->fs)) {
					nsect = clust2sect(fp->fs, clst);	/* Current sector */
					if (!nsect) ABORT(fp->fs, FR_INT_ERR);
    2060:	88800183 	ldbu	r2,6(r17)
    2064:	00ffe004 	movi	r3,-128
    2068:	05400084 	movi	r21,2
    206c:	10c4b03a 	or	r2,r2,r3
    2070:	88800185 	stb	r2,6(r17)
    2074:	003fe406 	br	2008 <f_lseek+0x1ac>
	FRESULT res;


	res = validate(fp->fs, fp->id);		/* Check validity of the object */
	if (res != FR_OK) LEAVE_FF(fp->fs, res);
	if (fp->flag & FA__ERROR)			/* Check abort flag */
    2078:	05400084 	movi	r21,2
    207c:	003fe206 	br	2008 <f_lseek+0x1ac>
							ofs = bcs; break;
						}
					} else
#endif
						clst = get_fat(fp->fs, clst);	/* Follow cluster chain if not in write mode */
					if (clst == 0xFFFFFFFF) ABORT(fp->fs, FR_DISK_ERR);
    2080:	88800183 	ldbu	r2,6(r17)
    2084:	00ffe004 	movi	r3,-128
    2088:	05400044 	movi	r21,1
    208c:	10c4b03a 	or	r2,r2,r3
    2090:	88800185 	stb	r2,6(r17)
    2094:	003fdc06 	br	2008 <f_lseek+0x1ac>
					if (clst <= 1 || clst >= fp->fs->n_fatent) ABORT(fp->fs, FR_INT_ERR);
    2098:	88c00183 	ldbu	r3,6(r17)
    209c:	00bfe004 	movi	r2,-128
    20a0:	05400084 	movi	r21,2
    20a4:	1886b03a 	or	r3,r3,r2
    20a8:	88c00185 	stb	r3,6(r17)
    20ac:	003fd606 	br	2008 <f_lseek+0x1ac>
    20b0:	8c000217 	ldw	r16,8(r17)
					fp->clust = clst;
					fp->fptr += bcs;
					ofs -= bcs;
				}
				fp->fptr += ofs;
    20b4:	84e1883a 	add	r16,r16,r19
				if (ofs % SS(fp->fs)) {
    20b8:	98807fcc 	andi	r2,r19,511
					if (clst <= 1 || clst >= fp->fs->n_fatent) ABORT(fp->fs, FR_INT_ERR);
					fp->clust = clst;
					fp->fptr += bcs;
					ofs -= bcs;
				}
				fp->fptr += ofs;
    20bc:	8c000215 	stw	r16,8(r17)
				if (ofs % SS(fp->fs)) {
    20c0:	103fb026 	beq	r2,zero,1f84 <f_lseek+0x128>
					nsect = clust2sect(fp->fs, clst);	/* Current sector */
    20c4:	89000017 	ldw	r4,0(r17)
    20c8:	300b883a 	mov	r5,r6
    20cc:	00007900 	call	790 <clust2sect>
    20d0:	1007883a 	mov	r3,r2
					if (!nsect) ABORT(fp->fs, FR_INT_ERR);
    20d4:	103fe226 	beq	r2,zero,2060 <f_lseek+0x204>
					nsect += ofs / SS(fp->fs);
    20d8:	9804d27a 	srli	r2,r19,9
    20dc:	18a5883a 	add	r18,r3,r2
    20e0:	003fa906 	br	1f88 <f_lseek+0x12c>
    20e4:	8c000904 	addi	r16,r17,36
    20e8:	003fb806 	br	1fcc <f_lseek+0x170>
    20ec:	8c000217 	ldw	r16,8(r17)
				}
#endif
				fp->clust = clst;
			}
			if (clst != 0) {
				while (ofs > bcs) {						/* Cluster following loop */
    20f0:	9027883a 	mov	r19,r18
    20f4:	003fef06 	br	20b4 <f_lseek+0x258>
				clst = fp->sclust;						/* start from the first cluster */
#if !_FS_READONLY
				if (clst == 0) {						/* If no cluster chain, create a new chain */
					clst = create_chain(fp->fs, 0);
					if (clst == 1) ABORT(fp->fs, FR_INT_ERR);
					if (clst == 0xFFFFFFFF) ABORT(fp->fs, FR_DISK_ERR);
    20f8:	00bfffc4 	movi	r2,-1
    20fc:	30800326 	beq	r6,r2,210c <f_lseek+0x2b0>
					fp->sclust = clst;
    2100:	89800415 	stw	r6,16(r17)
				}
#endif
				fp->clust = clst;
    2104:	89800515 	stw	r6,20(r17)
    2108:	003f7c06 	br	1efc <f_lseek+0xa0>
				clst = fp->sclust;						/* start from the first cluster */
#if !_FS_READONLY
				if (clst == 0) {						/* If no cluster chain, create a new chain */
					clst = create_chain(fp->fs, 0);
					if (clst == 1) ABORT(fp->fs, FR_INT_ERR);
					if (clst == 0xFFFFFFFF) ABORT(fp->fs, FR_DISK_ERR);
    210c:	88800183 	ldbu	r2,6(r17)
    2110:	182b883a 	mov	r21,r3
    2114:	00ffe004 	movi	r3,-128
    2118:	10c4b03a 	or	r2,r2,r3
    211c:	88800185 	stb	r2,6(r17)
    2120:	003fb906 	br	2008 <f_lseek+0x1ac>

00002124 <f_write>:
	FIL *fp,			/* Pointer to the file object */
	const void *buff,	/* Pointer to the data to be written */
	UINT btw,			/* Number of bytes to write */
	UINT *bw			/* Pointer to number of bytes written */
)
{
    2124:	defff604 	addi	sp,sp,-40
    2128:	dc400115 	stw	r17,4(sp)
    212c:	2023883a 	mov	r17,r4
    2130:	dc000015 	stw	r16,0(sp)
	BYTE csect;


	*bw = 0;	/* Initialize byte counter */

	res = validate(fp->fs, fp->id);			/* Check validity */
    2134:	21000017 	ldw	r4,0(r4)
	FIL *fp,			/* Pointer to the file object */
	const void *buff,	/* Pointer to the data to be written */
	UINT btw,			/* Number of bytes to write */
	UINT *bw			/* Pointer to number of bytes written */
)
{
    2138:	2821883a 	mov	r16,r5
	BYTE csect;


	*bw = 0;	/* Initialize byte counter */

	res = validate(fp->fs, fp->id);			/* Check validity */
    213c:	8940010b 	ldhu	r5,4(r17)
	UINT wcnt, cc;
	const BYTE *wbuff = buff;
	BYTE csect;


	*bw = 0;	/* Initialize byte counter */
    2140:	38000015 	stw	zero,0(r7)
	FIL *fp,			/* Pointer to the file object */
	const void *buff,	/* Pointer to the data to be written */
	UINT btw,			/* Number of bytes to write */
	UINT *bw			/* Pointer to number of bytes written */
)
{
    2144:	df000815 	stw	fp,32(sp)
    2148:	ddc00715 	stw	r23,28(sp)
    214c:	dd400515 	stw	r21,20(sp)
    2150:	dfc00915 	stw	ra,36(sp)
    2154:	dd800615 	stw	r22,24(sp)
    2158:	dd000415 	stw	r20,16(sp)
    215c:	dcc00315 	stw	r19,12(sp)
    2160:	dc800215 	stw	r18,8(sp)
    2164:	382f883a 	mov	r23,r7
    2168:	302b883a 	mov	r21,r6
	BYTE csect;


	*bw = 0;	/* Initialize byte counter */

	res = validate(fp->fs, fp->id);			/* Check validity */
    216c:	00009800 	call	980 <validate>
    2170:	1039883a 	mov	fp,r2
	if (res != FR_OK) LEAVE_FF(fp->fs, res);
    2174:	1000551e 	bne	r2,zero,22cc <f_write+0x1a8>
	if (fp->flag & FA__ERROR)				/* Aborted file? */
    2178:	89400183 	ldbu	r5,6(r17)
    217c:	28803fcc 	andi	r2,r5,255
    2180:	1080201c 	xori	r2,r2,128
    2184:	10bfe004 	addi	r2,r2,-128
    2188:	1000ab16 	blt	r2,zero,2438 <f_write+0x314>
		LEAVE_FF(fp->fs, FR_INT_ERR);
	if (!(fp->flag & FA_WRITE))				/* Check access mode */
    218c:	2880008c 	andi	r2,r5,2
    2190:	10009526 	beq	r2,zero,23e8 <f_write+0x2c4>
		LEAVE_FF(fp->fs, FR_DENIED);
	if ((DWORD)(fp->fsize + btw) < fp->fsize) btw = 0;	/* File size cannot reach 4GB */
    2194:	88c00317 	ldw	r3,12(r17)
    2198:	1d45883a 	add	r2,r3,r21
    219c:	10c05f36 	bltu	r2,r3,231c <f_write+0x1f8>

	for ( ;  btw;							/* Repeat until all data written */
    21a0:	a8005e26 	beq	r21,zero,231c <f_write+0x1f8>
    21a4:	89000217 	ldw	r4,8(r17)
)
{
	FRESULT res;
	DWORD clst, sect;
	UINT wcnt, cc;
	const BYTE *wbuff = buff;
    21a8:	802d883a 	mov	r22,r16
		LEAVE_FF(fp->fs, FR_DENIED);
	if ((DWORD)(fp->fsize + btw) < fp->fsize) btw = 0;	/* File size cannot reach 4GB */

	for ( ;  btw;							/* Repeat until all data written */
		wbuff += wcnt, fp->fptr += wcnt, *bw += wcnt, btw -= wcnt) {
		if ((fp->fptr % SS(fp->fs)) == 0) {	/* On the sector boundary? */
    21ac:	20807fcc 	andi	r2,r4,511
    21b0:	10003e1e 	bne	r2,zero,22ac <f_write+0x188>
			csect = (BYTE)(fp->fptr / SS(fp->fs) & (fp->fs->csize - 1));	/* Sector offset in the cluster */
    21b4:	8c000017 	ldw	r16,0(r17)
    21b8:	2006d27a 	srli	r3,r4,9
    21bc:	80800083 	ldbu	r2,2(r16)
    21c0:	10bfffc4 	addi	r2,r2,-1
    21c4:	1886703a 	and	r3,r3,r2
			if (!csect) {					/* On the cluster boundary? */
    21c8:	1d003fcc 	andi	r20,r3,255
    21cc:	a000091e 	bne	r20,zero,21f4 <f_write+0xd0>
				if (fp->fptr == 0) {		/* On the top of the file? */
    21d0:	20004b1e 	bne	r4,zero,2300 <f_write+0x1dc>
					clst = fp->sclust;		/* Follow from the origin */
    21d4:	88c00417 	ldw	r3,16(r17)
					if (clst == 0)			/* When no cluster is allocated, */
    21d8:	18007326 	beq	r3,zero,23a8 <f_write+0x284>
					else
#endif
						clst = create_chain(fp->fs, fp->clust);	/* Follow or stretch cluster chain on the FAT */
				}
				if (clst == 0) break;		/* Could not allocate a new cluster (disk full) */
				if (clst == 1) ABORT(fp->fs, FR_INT_ERR);
    21dc:	01000044 	movi	r4,1
    21e0:	19008326 	beq	r3,r4,23f0 <f_write+0x2cc>
				if (clst == 0xFFFFFFFF) ABORT(fp->fs, FR_DISK_ERR);
    21e4:	00bfffc4 	movi	r2,-1
    21e8:	18808d26 	beq	r3,r2,2420 <f_write+0x2fc>
    21ec:	8c000017 	ldw	r16,0(r17)
				fp->clust = clst;			/* Update current cluster */
    21f0:	88c00515 	stw	r3,20(r17)
			}
#if _FS_TINY
			if (fp->fs->winsect == fp->dsect && move_window(fp->fs, 0))	/* Write-back sector cache */
				ABORT(fp->fs, FR_DISK_ERR);
#else
			if (fp->flag & FA__DIRTY) {		/* Write-back sector cache */
    21f4:	88800183 	ldbu	r2,6(r17)
    21f8:	1080100c 	andi	r2,r2,64
    21fc:	10000b26 	beq	r2,zero,222c <f_write+0x108>
				if (disk_write(fp->fs->drv, fp->buf, fp->dsect, 1) != RES_OK)
    2200:	81000043 	ldbu	r4,1(r16)
    2204:	89800617 	ldw	r6,24(r17)
    2208:	89400904 	addi	r5,r17,36
    220c:	01c00044 	movi	r7,1
    2210:	0004b8c0 	call	4b8c <disk_write>
    2214:	10007c1e 	bne	r2,zero,2408 <f_write+0x2e4>
					ABORT(fp->fs, FR_DISK_ERR);
				fp->flag &= ~FA__DIRTY;
    2218:	88800183 	ldbu	r2,6(r17)
    221c:	00ffefc4 	movi	r3,-65
    2220:	8c000017 	ldw	r16,0(r17)
    2224:	10c4703a 	and	r2,r2,r3
    2228:	88800185 	stb	r2,6(r17)
			}
#endif
			sect = clust2sect(fp->fs, fp->clust);	/* Get current sector */
    222c:	89400517 	ldw	r5,20(r17)
    2230:	8009883a 	mov	r4,r16
    2234:	00007900 	call	790 <clust2sect>
			if (!sect) ABORT(fp->fs, FR_INT_ERR);
    2238:	10006d26 	beq	r2,zero,23f0 <f_write+0x2cc>
			sect += csect;
			cc = btw / SS(fp->fs);			/* When remaining bytes >= sector size, */
    223c:	a824d27a 	srli	r18,r21,9
				fp->flag &= ~FA__DIRTY;
			}
#endif
			sect = clust2sect(fp->fs, fp->clust);	/* Get current sector */
			if (!sect) ABORT(fp->fs, FR_INT_ERR);
			sect += csect;
    2240:	1527883a 	add	r19,r2,r20
			cc = btw / SS(fp->fs);			/* When remaining bytes >= sector size, */
			if (cc) {						/* Write maximum contiguous sectors directly */
    2244:	90004126 	beq	r18,zero,234c <f_write+0x228>
				if (csect + cc > fp->fs->csize)	/* Clip at cluster boundary */
    2248:	80c00083 	ldbu	r3,2(r16)
    224c:	9505883a 	add	r2,r18,r20
    2250:	1880012e 	bgeu	r3,r2,2258 <f_write+0x134>
					cc = fp->fs->csize - csect;
    2254:	1d25c83a 	sub	r18,r3,r20
				if (disk_write(fp->fs->drv, wbuff, sect, (BYTE)cc) != RES_OK)
    2258:	81000043 	ldbu	r4,1(r16)
    225c:	b00b883a 	mov	r5,r22
    2260:	980d883a 	mov	r6,r19
    2264:	91c03fcc 	andi	r7,r18,255
    2268:	0004b8c0 	call	4b8c <disk_write>
    226c:	1000661e 	bne	r2,zero,2408 <f_write+0x2e4>
				if (fp->fs->winsect - sect < cc) {	/* Refill sector cache if it gets invalidated by the direct write */
					mem_cpy(fp->fs->win, wbuff + ((fp->fs->winsect - sect) * SS(fp->fs)), SS(fp->fs));
					fp->fs->wflag = 0;
				}
#else
				if (fp->dsect - sect < cc) { /* Refill sector cache if it gets invalidated by the direct write */
    2270:	88800617 	ldw	r2,24(r17)
    2274:	14c5c83a 	sub	r2,r2,r19
    2278:	14802a36 	bltu	r2,r18,2324 <f_write+0x200>
					mem_cpy(fp->buf, wbuff + ((fp->dsect - sect) * SS(fp->fs)), SS(fp->fs));
					fp->flag &= ~FA__DIRTY;
				}
#endif
				wcnt = SS(fp->fs) * cc;		/* Number of bytes transferred */
    227c:	9020927a 	slli	r16,r18,9
	if (!(fp->flag & FA_WRITE))				/* Check access mode */
		LEAVE_FF(fp->fs, FR_DENIED);
	if ((DWORD)(fp->fsize + btw) < fp->fsize) btw = 0;	/* File size cannot reach 4GB */

	for ( ;  btw;							/* Repeat until all data written */
		wbuff += wcnt, fp->fptr += wcnt, *bw += wcnt, btw -= wcnt) {
    2280:	89000217 	ldw	r4,8(r17)
    2284:	b8800017 	ldw	r2,0(r23)
    2288:	ac2bc83a 	sub	r21,r21,r16
    228c:	2409883a 	add	r4,r4,r16
    2290:	1405883a 	add	r2,r2,r16
    2294:	b8800015 	stw	r2,0(r23)
    2298:	89000215 	stw	r4,8(r17)
		LEAVE_FF(fp->fs, FR_INT_ERR);
	if (!(fp->flag & FA_WRITE))				/* Check access mode */
		LEAVE_FF(fp->fs, FR_DENIED);
	if ((DWORD)(fp->fsize + btw) < fp->fsize) btw = 0;	/* File size cannot reach 4GB */

	for ( ;  btw;							/* Repeat until all data written */
    229c:	a8000526 	beq	r21,zero,22b4 <f_write+0x190>
		wbuff += wcnt, fp->fptr += wcnt, *bw += wcnt, btw -= wcnt) {
		if ((fp->fptr % SS(fp->fs)) == 0) {	/* On the sector boundary? */
    22a0:	20807fcc 	andi	r2,r4,511
	if (!(fp->flag & FA_WRITE))				/* Check access mode */
		LEAVE_FF(fp->fs, FR_DENIED);
	if ((DWORD)(fp->fsize + btw) < fp->fsize) btw = 0;	/* File size cannot reach 4GB */

	for ( ;  btw;							/* Repeat until all data written */
		wbuff += wcnt, fp->fptr += wcnt, *bw += wcnt, btw -= wcnt) {
    22a4:	b42d883a 	add	r22,r22,r16
		if ((fp->fptr % SS(fp->fs)) == 0) {	/* On the sector boundary? */
    22a8:	103fc226 	beq	r2,zero,21b4 <f_write+0x90>
    22ac:	8c800904 	addi	r18,r17,36
    22b0:	00002d06 	br	2368 <f_write+0x244>
    22b4:	89400183 	ldbu	r5,6(r17)
    22b8:	88c00317 	ldw	r3,12(r17)
		mem_cpy(&fp->buf[fp->fptr % SS(fp->fs)], wbuff, wcnt);	/* Fit partial sector */
		fp->flag |= FA__DIRTY;
#endif
	}

	if (fp->fptr > fp->fsize) fp->fsize = fp->fptr;	/* Update file size if needed */
    22bc:	1900012e 	bgeu	r3,r4,22c4 <f_write+0x1a0>
    22c0:	89000315 	stw	r4,12(r17)
	fp->flag |= FA__WRITTEN;						/* Set file change flag */
    22c4:	28800814 	ori	r2,r5,32
    22c8:	88800185 	stb	r2,6(r17)

	LEAVE_FF(fp->fs, FR_OK);
}
    22cc:	e005883a 	mov	r2,fp
    22d0:	dfc00917 	ldw	ra,36(sp)
    22d4:	df000817 	ldw	fp,32(sp)
    22d8:	ddc00717 	ldw	r23,28(sp)
    22dc:	dd800617 	ldw	r22,24(sp)
    22e0:	dd400517 	ldw	r21,20(sp)
    22e4:	dd000417 	ldw	r20,16(sp)
    22e8:	dcc00317 	ldw	r19,12(sp)
    22ec:	dc800217 	ldw	r18,8(sp)
    22f0:	dc400117 	ldw	r17,4(sp)
    22f4:	dc000017 	ldw	r16,0(sp)
    22f8:	dec00a04 	addi	sp,sp,40
    22fc:	f800283a 	ret
#if _USE_FASTSEEK
					if (fp->cltbl)
						clst = clmt_clust(fp, fp->fptr);	/* Get cluster# from the CLMT */
					else
#endif
						clst = create_chain(fp->fs, fp->clust);	/* Follow or stretch cluster chain on the FAT */
    2300:	89400517 	ldw	r5,20(r17)
    2304:	8009883a 	mov	r4,r16
    2308:	0001d080 	call	1d08 <create_chain>
    230c:	1007883a 	mov	r3,r2
				}
				if (clst == 0) break;		/* Could not allocate a new cluster (disk full) */
    2310:	183fb21e 	bne	r3,zero,21dc <f_write+0xb8>
    2314:	89400183 	ldbu	r5,6(r17)
    2318:	88c00317 	ldw	r3,12(r17)
    231c:	89000217 	ldw	r4,8(r17)
    2320:	003fe606 	br	22bc <f_write+0x198>
					mem_cpy(fp->fs->win, wbuff + ((fp->fs->winsect - sect) * SS(fp->fs)), SS(fp->fs));
					fp->fs->wflag = 0;
				}
#else
				if (fp->dsect - sect < cc) { /* Refill sector cache if it gets invalidated by the direct write */
					mem_cpy(fp->buf, wbuff + ((fp->dsect - sect) * SS(fp->fs)), SS(fp->fs));
    2324:	100a927a 	slli	r5,r2,9
    2328:	89000904 	addi	r4,r17,36
    232c:	01808004 	movi	r6,512
    2330:	b14b883a 	add	r5,r22,r5
    2334:	00007240 	call	724 <mem_cpy>
					fp->flag &= ~FA__DIRTY;
    2338:	88800183 	ldbu	r2,6(r17)
    233c:	00ffefc4 	movi	r3,-65
    2340:	10c4703a 	and	r2,r2,r3
    2344:	88800185 	stb	r2,6(r17)
    2348:	003fcc06 	br	227c <f_write+0x158>
			if (fp->fptr >= fp->fsize) {	/* Avoid silly cache filling at growing edge */
				if (move_window(fp->fs, 0)) ABORT(fp->fs, FR_DISK_ERR);
				fp->fs->winsect = sect;
			}
#else
			if (fp->dsect != sect) {		/* Fill sector cache with file data */
    234c:	88800617 	ldw	r2,24(r17)
    2350:	98801226 	beq	r19,r2,239c <f_write+0x278>
				if (fp->fptr < fp->fsize &&
    2354:	89000217 	ldw	r4,8(r17)
    2358:	88800317 	ldw	r2,12(r17)
    235c:	20801936 	bltu	r4,r2,23c4 <f_write+0x2a0>
    2360:	8c800904 	addi	r18,r17,36
					disk_read(fp->fs->drv, fp->buf, sect, 1) != RES_OK)
						ABORT(fp->fs, FR_DISK_ERR);
			}
#endif
			fp->dsect = sect;
    2364:	8cc00615 	stw	r19,24(r17)
		}
		wcnt = SS(fp->fs) - (fp->fptr % SS(fp->fs));/* Put partial sector into file I/O buffer */
    2368:	20c07fcc 	andi	r3,r4,511
    236c:	00808004 	movi	r2,512
    2370:	10e1c83a 	sub	r16,r2,r3
    2374:	ac00012e 	bgeu	r21,r16,237c <f_write+0x258>
    2378:	a821883a 	mov	r16,r21
		if (move_window(fp->fs, fp->dsect))	/* Move sector window */
			ABORT(fp->fs, FR_DISK_ERR);
		mem_cpy(&fp->fs->win[fp->fptr % SS(fp->fs)], wbuff, wcnt);	/* Fit partial sector */
		fp->fs->wflag = 1;
#else
		mem_cpy(&fp->buf[fp->fptr % SS(fp->fs)], wbuff, wcnt);	/* Fit partial sector */
    237c:	90c9883a 	add	r4,r18,r3
    2380:	b00b883a 	mov	r5,r22
    2384:	800d883a 	mov	r6,r16
    2388:	00007240 	call	724 <mem_cpy>
		fp->flag |= FA__DIRTY;
    238c:	88800183 	ldbu	r2,6(r17)
    2390:	10801014 	ori	r2,r2,64
    2394:	88800185 	stb	r2,6(r17)
    2398:	003fb906 	br	2280 <f_write+0x15c>
    239c:	89000217 	ldw	r4,8(r17)
    23a0:	8c800904 	addi	r18,r17,36
    23a4:	003fef06 	br	2364 <f_write+0x240>
			csect = (BYTE)(fp->fptr / SS(fp->fs) & (fp->fs->csize - 1));	/* Sector offset in the cluster */
			if (!csect) {					/* On the cluster boundary? */
				if (fp->fptr == 0) {		/* On the top of the file? */
					clst = fp->sclust;		/* Follow from the origin */
					if (clst == 0)			/* When no cluster is allocated, */
						fp->sclust = clst = create_chain(fp->fs, 0);	/* Create a new cluster chain */
    23a8:	8009883a 	mov	r4,r16
    23ac:	000b883a 	mov	r5,zero
    23b0:	0001d080 	call	1d08 <create_chain>
    23b4:	1007883a 	mov	r3,r2
    23b8:	88800415 	stw	r2,16(r17)
						clst = clmt_clust(fp, fp->fptr);	/* Get cluster# from the CLMT */
					else
#endif
						clst = create_chain(fp->fs, fp->clust);	/* Follow or stretch cluster chain on the FAT */
				}
				if (clst == 0) break;		/* Could not allocate a new cluster (disk full) */
    23bc:	183f871e 	bne	r3,zero,21dc <f_write+0xb8>
    23c0:	003fd406 	br	2314 <f_write+0x1f0>
				if (move_window(fp->fs, 0)) ABORT(fp->fs, FR_DISK_ERR);
				fp->fs->winsect = sect;
			}
#else
			if (fp->dsect != sect) {		/* Fill sector cache with file data */
				if (fp->fptr < fp->fsize &&
    23c4:	81000043 	ldbu	r4,1(r16)
    23c8:	8c800904 	addi	r18,r17,36
    23cc:	900b883a 	mov	r5,r18
    23d0:	980d883a 	mov	r6,r19
    23d4:	01c00044 	movi	r7,1
    23d8:	0004d0c0 	call	4d0c <disk_read>
    23dc:	10000a1e 	bne	r2,zero,2408 <f_write+0x2e4>
    23e0:	89000217 	ldw	r4,8(r17)
    23e4:	003fdf06 	br	2364 <f_write+0x240>

	res = validate(fp->fs, fp->id);			/* Check validity */
	if (res != FR_OK) LEAVE_FF(fp->fs, res);
	if (fp->flag & FA__ERROR)				/* Aborted file? */
		LEAVE_FF(fp->fs, FR_INT_ERR);
	if (!(fp->flag & FA_WRITE))				/* Check access mode */
    23e8:	070001c4 	movi	fp,7
    23ec:	003fb706 	br	22cc <f_write+0x1a8>
					ABORT(fp->fs, FR_DISK_ERR);
				fp->flag &= ~FA__DIRTY;
			}
#endif
			sect = clust2sect(fp->fs, fp->clust);	/* Get current sector */
			if (!sect) ABORT(fp->fs, FR_INT_ERR);
    23f0:	88800183 	ldbu	r2,6(r17)
    23f4:	00ffe004 	movi	r3,-128
    23f8:	07000084 	movi	fp,2
    23fc:	10c4b03a 	or	r2,r2,r3
    2400:	88800185 	stb	r2,6(r17)
    2404:	003fb106 	br	22cc <f_write+0x1a8>
			cc = btw / SS(fp->fs);			/* When remaining bytes >= sector size, */
			if (cc) {						/* Write maximum contiguous sectors directly */
				if (csect + cc > fp->fs->csize)	/* Clip at cluster boundary */
					cc = fp->fs->csize - csect;
				if (disk_write(fp->fs->drv, wbuff, sect, (BYTE)cc) != RES_OK)
					ABORT(fp->fs, FR_DISK_ERR);
    2408:	88800183 	ldbu	r2,6(r17)
    240c:	00ffe004 	movi	r3,-128
    2410:	07000044 	movi	fp,1
    2414:	10c4b03a 	or	r2,r2,r3
    2418:	88800185 	stb	r2,6(r17)
    241c:	003fab06 	br	22cc <f_write+0x1a8>
#endif
						clst = create_chain(fp->fs, fp->clust);	/* Follow or stretch cluster chain on the FAT */
				}
				if (clst == 0) break;		/* Could not allocate a new cluster (disk full) */
				if (clst == 1) ABORT(fp->fs, FR_INT_ERR);
				if (clst == 0xFFFFFFFF) ABORT(fp->fs, FR_DISK_ERR);
    2420:	88800183 	ldbu	r2,6(r17)
    2424:	00ffe004 	movi	r3,-128
    2428:	2039883a 	mov	fp,r4
    242c:	10c4b03a 	or	r2,r2,r3
    2430:	88800185 	stb	r2,6(r17)
    2434:	003fa506 	br	22cc <f_write+0x1a8>

	*bw = 0;	/* Initialize byte counter */

	res = validate(fp->fs, fp->id);			/* Check validity */
	if (res != FR_OK) LEAVE_FF(fp->fs, res);
	if (fp->flag & FA__ERROR)				/* Aborted file? */
    2438:	07000084 	movi	fp,2
    243c:	003fa306 	br	22cc <f_write+0x1a8>

00002440 <dir_next>:
	DWORD clst;
	WORD i;


	stretch = stretch;		/* To suppress warning on read-only cfg. */
	i = dj->index + 1;
    2440:	2080018b 	ldhu	r2,6(r4)
static
FRESULT dir_next (	/* FR_OK:Succeeded, FR_NO_FILE:End of table, FR_DENIED:EOT and could not stretch */
	DIR *dj,		/* Pointer to directory object */
	int stretch		/* 0: Do not stretch table, 1: Stretch table if needed */
)
{
    2444:	defff704 	addi	sp,sp,-36
    2448:	dcc00315 	stw	r19,12(sp)
	DWORD clst;
	WORD i;


	stretch = stretch;		/* To suppress warning on read-only cfg. */
	i = dj->index + 1;
    244c:	14c00044 	addi	r19,r2,1
	if (!i || !dj->sect)	/* Report EOT when index has reached 65535 */
    2450:	98ffffcc 	andi	r3,r19,65535
static
FRESULT dir_next (	/* FR_OK:Succeeded, FR_NO_FILE:End of table, FR_DENIED:EOT and could not stretch */
	DIR *dj,		/* Pointer to directory object */
	int stretch		/* 0: Do not stretch table, 1: Stretch table if needed */
)
{
    2454:	dc800215 	stw	r18,8(sp)
    2458:	dc000015 	stw	r16,0(sp)
    245c:	dfc00815 	stw	ra,32(sp)
    2460:	ddc00715 	stw	r23,28(sp)
    2464:	dd800615 	stw	r22,24(sp)
    2468:	dd400515 	stw	r21,20(sp)
    246c:	dd000415 	stw	r20,16(sp)
    2470:	dc400115 	stw	r17,4(sp)
    2474:	2021883a 	mov	r16,r4
    2478:	2825883a 	mov	r18,r5
	WORD i;


	stretch = stretch;		/* To suppress warning on read-only cfg. */
	i = dj->index + 1;
	if (!i || !dj->sect)	/* Report EOT when index has reached 65535 */
    247c:	18002026 	beq	r3,zero,2500 <dir_next+0xc0>
    2480:	20800417 	ldw	r2,16(r4)
    2484:	10001e26 	beq	r2,zero,2500 <dir_next+0xc0>
		return FR_NO_FILE;

	if (!(i % (SS(dj->fs) / SZ_DIR))) {	/* Sector changed? */
    2488:	1d0003cc 	andi	r20,r3,15
    248c:	a0001a1e 	bne	r20,zero,24f8 <dir_next+0xb8>
		dj->sect++;					/* Next sector */

		if (dj->clust == 0) {	/* Static table */
    2490:	21400317 	ldw	r5,12(r4)
	i = dj->index + 1;
	if (!i || !dj->sect)	/* Report EOT when index has reached 65535 */
		return FR_NO_FILE;

	if (!(i % (SS(dj->fs) / SZ_DIR))) {	/* Sector changed? */
		dj->sect++;					/* Next sector */
    2494:	10800044 	addi	r2,r2,1
    2498:	20800415 	stw	r2,16(r4)
    249c:	05400044 	movi	r21,1

		if (dj->clust == 0) {	/* Static table */
    24a0:	2800191e 	bne	r5,zero,2508 <dir_next+0xc8>
			if (i >= dj->fs->n_rootdir)	/* Report EOT when end of table */
    24a4:	24400017 	ldw	r17,0(r4)
    24a8:	8880020b 	ldhu	r2,8(r17)
    24ac:	1880142e 	bgeu	r3,r2,2500 <dir_next+0xc0>
			}
		}
	}

	dj->index = i;
	dj->dir = dj->fs->win + (i % (SS(dj->fs) / SZ_DIR)) * SZ_DIR;
    24b0:	a006917a 	slli	r3,r20,5
    24b4:	88800c04 	addi	r2,r17,48
    24b8:	0009883a 	mov	r4,zero
    24bc:	10c5883a 	add	r2,r2,r3
    24c0:	80800515 	stw	r2,20(r16)
				dj->sect = clust2sect(dj->fs, clst);
			}
		}
	}

	dj->index = i;
    24c4:	84c0018d 	sth	r19,6(r16)
	dj->dir = dj->fs->win + (i % (SS(dj->fs) / SZ_DIR)) * SZ_DIR;

	return FR_OK;
}
    24c8:	2005883a 	mov	r2,r4
    24cc:	dfc00817 	ldw	ra,32(sp)
    24d0:	ddc00717 	ldw	r23,28(sp)
    24d4:	dd800617 	ldw	r22,24(sp)
    24d8:	dd400517 	ldw	r21,20(sp)
    24dc:	dd000417 	ldw	r20,16(sp)
    24e0:	dcc00317 	ldw	r19,12(sp)
    24e4:	dc800217 	ldw	r18,8(sp)
    24e8:	dc400117 	ldw	r17,4(sp)
    24ec:	dc000017 	ldw	r16,0(sp)
    24f0:	dec00904 	addi	sp,sp,36
    24f4:	f800283a 	ret
    24f8:	24400017 	ldw	r17,0(r4)
    24fc:	003fec06 	br	24b0 <dir_next+0x70>
	}

	dj->index = i;
	dj->dir = dj->fs->win + (i % (SS(dj->fs) / SZ_DIR)) * SZ_DIR;

	return FR_OK;
    2500:	01000104 	movi	r4,4
    2504:	003ff006 	br	24c8 <dir_next+0x88>
		if (dj->clust == 0) {	/* Static table */
			if (i >= dj->fs->n_rootdir)	/* Report EOT when end of table */
				return FR_NO_FILE;
		}
		else {					/* Dynamic table */
			if (((i / (SS(dj->fs) / SZ_DIR)) & (dj->fs->csize - 1)) == 0) {	/* Cluster changed? */
    2508:	24400017 	ldw	r17,0(r4)
    250c:	1806d13a 	srli	r3,r3,4
    2510:	05ffffc4 	movi	r23,-1
    2514:	88800083 	ldbu	r2,2(r17)
    2518:	15c5883a 	add	r2,r2,r23
    251c:	1886703a 	and	r3,r3,r2
    2520:	183fe31e 	bne	r3,zero,24b0 <dir_next+0x70>
				clst = get_fat(dj->fs, dj->clust);				/* Get next cluster */
    2524:	8809883a 	mov	r4,r17
    2528:	00015240 	call	1524 <get_fat>
    252c:	102d883a 	mov	r22,r2
				if (clst <= 1) return FR_INT_ERR;
    2530:	a8802f2e 	bgeu	r21,r2,25f0 <dir_next+0x1b0>
				if (clst == 0xFFFFFFFF) return FR_DISK_ERR;
    2534:	15c00f26 	beq	r2,r23,2574 <dir_next+0x134>
				if (clst >= dj->fs->n_fatent) {					/* When it reached end of dynamic table */
    2538:	84400017 	ldw	r17,0(r16)
    253c:	88800617 	ldw	r2,24(r17)
    2540:	b0803136 	bltu	r22,r2,2608 <dir_next+0x1c8>
#if !_FS_READONLY
					BYTE c;
					if (!stretch) return FR_NO_FILE;			/* When do not stretch, report EOT */
    2544:	903fee26 	beq	r18,zero,2500 <dir_next+0xc0>
					clst = create_chain(dj->fs, dj->clust);		/* Stretch cluster chain */
    2548:	81400317 	ldw	r5,12(r16)
    254c:	8809883a 	mov	r4,r17
    2550:	0001d080 	call	1d08 <create_chain>
    2554:	102d883a 	mov	r22,r2
					if (clst == 0) return FR_DENIED;			/* No free cluster */
    2558:	10003126 	beq	r2,zero,2620 <dir_next+0x1e0>
					if (clst == 1) return FR_INT_ERR;
    255c:	15402426 	beq	r2,r21,25f0 <dir_next+0x1b0>
					if (clst == 0xFFFFFFFF) return FR_DISK_ERR;
    2560:	15c00426 	beq	r2,r23,2574 <dir_next+0x134>
					/* Clean-up stretched table */
					if (move_window(dj->fs, 0)) return FR_DISK_ERR;	/* Flush active window */
    2564:	81000017 	ldw	r4,0(r16)
    2568:	000b883a 	mov	r5,zero
    256c:	00012480 	call	1248 <move_window>
    2570:	10000226 	beq	r2,zero,257c <dir_next+0x13c>
	}

	dj->index = i;
	dj->dir = dj->fs->win + (i % (SS(dj->fs) / SZ_DIR)) * SZ_DIR;

	return FR_OK;
    2574:	01000044 	movi	r4,1
    2578:	003fd306 	br	24c8 <dir_next+0x88>
					if (clst == 0) return FR_DENIED;			/* No free cluster */
					if (clst == 1) return FR_INT_ERR;
					if (clst == 0xFFFFFFFF) return FR_DISK_ERR;
					/* Clean-up stretched table */
					if (move_window(dj->fs, 0)) return FR_DISK_ERR;	/* Flush active window */
					mem_set(dj->fs->win, 0, SS(dj->fs));			/* Clear window buffer */
    257c:	81000017 	ldw	r4,0(r16)
    2580:	000b883a 	mov	r5,zero
    2584:	01808004 	movi	r6,512
    2588:	21000c04 	addi	r4,r4,48
    258c:	000074c0 	call	74c <mem_set>
					dj->fs->winsect = clust2sect(dj->fs, clst);	/* Cluster start sector */
    2590:	84400017 	ldw	r17,0(r16)
    2594:	b00b883a 	mov	r5,r22
    2598:	8809883a 	mov	r4,r17
    259c:	00007900 	call	790 <clust2sect>
					for (c = 0; c < dj->fs->csize; c++) {		/* Fill the new cluster with 0 */
    25a0:	88c00083 	ldbu	r3,2(r17)
					if (clst == 1) return FR_INT_ERR;
					if (clst == 0xFFFFFFFF) return FR_DISK_ERR;
					/* Clean-up stretched table */
					if (move_window(dj->fs, 0)) return FR_DISK_ERR;	/* Flush active window */
					mem_set(dj->fs->win, 0, SS(dj->fs));			/* Clear window buffer */
					dj->fs->winsect = clust2sect(dj->fs, clst);	/* Cluster start sector */
    25a4:	88800b15 	stw	r2,44(r17)
					for (c = 0; c < dj->fs->csize; c++) {		/* Fill the new cluster with 0 */
    25a8:	18001426 	beq	r3,zero,25fc <dir_next+0x1bc>
    25ac:	0025883a 	mov	r18,zero
    25b0:	00000606 	br	25cc <dir_next+0x18c>
						dj->fs->wflag = 1;
						if (move_window(dj->fs, 0)) return FR_DISK_ERR;
						dj->fs->winsect++;
    25b4:	84400017 	ldw	r17,0(r16)
    25b8:	88800b17 	ldw	r2,44(r17)
					if (clst == 0xFFFFFFFF) return FR_DISK_ERR;
					/* Clean-up stretched table */
					if (move_window(dj->fs, 0)) return FR_DISK_ERR;	/* Flush active window */
					mem_set(dj->fs->win, 0, SS(dj->fs));			/* Clear window buffer */
					dj->fs->winsect = clust2sect(dj->fs, clst);	/* Cluster start sector */
					for (c = 0; c < dj->fs->csize; c++) {		/* Fill the new cluster with 0 */
    25bc:	88c00083 	ldbu	r3,2(r17)
						dj->fs->wflag = 1;
						if (move_window(dj->fs, 0)) return FR_DISK_ERR;
						dj->fs->winsect++;
    25c0:	10800044 	addi	r2,r2,1
    25c4:	88800b15 	stw	r2,44(r17)
					if (clst == 0xFFFFFFFF) return FR_DISK_ERR;
					/* Clean-up stretched table */
					if (move_window(dj->fs, 0)) return FR_DISK_ERR;	/* Flush active window */
					mem_set(dj->fs->win, 0, SS(dj->fs));			/* Clear window buffer */
					dj->fs->winsect = clust2sect(dj->fs, clst);	/* Cluster start sector */
					for (c = 0; c < dj->fs->csize; c++) {		/* Fill the new cluster with 0 */
    25c8:	20c00b2e 	bgeu	r4,r3,25f8 <dir_next+0x1b8>
						dj->fs->wflag = 1;
    25cc:	8d400105 	stb	r21,4(r17)
						if (move_window(dj->fs, 0)) return FR_DISK_ERR;
    25d0:	81000017 	ldw	r4,0(r16)
    25d4:	000b883a 	mov	r5,zero
					if (clst == 0xFFFFFFFF) return FR_DISK_ERR;
					/* Clean-up stretched table */
					if (move_window(dj->fs, 0)) return FR_DISK_ERR;	/* Flush active window */
					mem_set(dj->fs->win, 0, SS(dj->fs));			/* Clear window buffer */
					dj->fs->winsect = clust2sect(dj->fs, clst);	/* Cluster start sector */
					for (c = 0; c < dj->fs->csize; c++) {		/* Fill the new cluster with 0 */
    25d8:	94800044 	addi	r18,r18,1
						dj->fs->wflag = 1;
						if (move_window(dj->fs, 0)) return FR_DISK_ERR;
    25dc:	00012480 	call	1248 <move_window>
					if (clst == 0xFFFFFFFF) return FR_DISK_ERR;
					/* Clean-up stretched table */
					if (move_window(dj->fs, 0)) return FR_DISK_ERR;	/* Flush active window */
					mem_set(dj->fs->win, 0, SS(dj->fs));			/* Clear window buffer */
					dj->fs->winsect = clust2sect(dj->fs, clst);	/* Cluster start sector */
					for (c = 0; c < dj->fs->csize; c++) {		/* Fill the new cluster with 0 */
    25e0:	91003fcc 	andi	r4,r18,255
						dj->fs->wflag = 1;
						if (move_window(dj->fs, 0)) return FR_DISK_ERR;
    25e4:	103ff326 	beq	r2,zero,25b4 <dir_next+0x174>
	}

	dj->index = i;
	dj->dir = dj->fs->win + (i % (SS(dj->fs) / SZ_DIR)) * SZ_DIR;

	return FR_OK;
    25e8:	01000044 	movi	r4,1
    25ec:	003fb606 	br	24c8 <dir_next+0x88>
    25f0:	01000084 	movi	r4,2
    25f4:	003fb406 	br	24c8 <dir_next+0x88>
					if (clst == 0xFFFFFFFF) return FR_DISK_ERR;
					/* Clean-up stretched table */
					if (move_window(dj->fs, 0)) return FR_DISK_ERR;	/* Flush active window */
					mem_set(dj->fs->win, 0, SS(dj->fs));			/* Clear window buffer */
					dj->fs->winsect = clust2sect(dj->fs, clst);	/* Cluster start sector */
					for (c = 0; c < dj->fs->csize; c++) {		/* Fill the new cluster with 0 */
    25f8:	2007883a 	mov	r3,r4
						dj->fs->wflag = 1;
						if (move_window(dj->fs, 0)) return FR_DISK_ERR;
						dj->fs->winsect++;
					}
					dj->fs->winsect -= c;						/* Rewind window address */
    25fc:	88800b17 	ldw	r2,44(r17)
    2600:	10c5c83a 	sub	r2,r2,r3
    2604:	88800b15 	stw	r2,44(r17)
#else
					return FR_NO_FILE;			/* Report EOT */
#endif
				}
				dj->clust = clst;				/* Initialize data for new cluster */
				dj->sect = clust2sect(dj->fs, clst);
    2608:	81000017 	ldw	r4,0(r16)
					dj->fs->winsect -= c;						/* Rewind window address */
#else
					return FR_NO_FILE;			/* Report EOT */
#endif
				}
				dj->clust = clst;				/* Initialize data for new cluster */
    260c:	85800315 	stw	r22,12(r16)
				dj->sect = clust2sect(dj->fs, clst);
    2610:	b00b883a 	mov	r5,r22
    2614:	00007900 	call	790 <clust2sect>
    2618:	80800415 	stw	r2,16(r16)
    261c:	003fa406 	br	24b0 <dir_next+0x70>
				if (clst >= dj->fs->n_fatent) {					/* When it reached end of dynamic table */
#if !_FS_READONLY
					BYTE c;
					if (!stretch) return FR_NO_FILE;			/* When do not stretch, report EOT */
					clst = create_chain(dj->fs, dj->clust);		/* Stretch cluster chain */
					if (clst == 0) return FR_DENIED;			/* No free cluster */
    2620:	010001c4 	movi	r4,7
    2624:	003fa806 	br	24c8 <dir_next+0x88>

00002628 <dir_remove>:
	FRESULT res;
#if _USE_LFN	/* LFN configuration */
	WORD i;

	i = dj->index;	/* SFN index */
	res = dir_sdi(dj, (WORD)((dj->lfn_idx == 0xFFFF) ? i : dj->lfn_idx));	/* Goto the SFN or top of the LFN entries */
    2628:	2140080b 	ldhu	r5,32(r4)
#if !_FS_READONLY && !_FS_MINIMIZE
static
FRESULT dir_remove (	/* FR_OK: Successful, FR_DISK_ERR: A disk error */
	DIR *dj				/* Directory object pointing the entry to be removed */
)
{
    262c:	defffb04 	addi	sp,sp,-20
	FRESULT res;
#if _USE_LFN	/* LFN configuration */
	WORD i;

	i = dj->index;	/* SFN index */
	res = dir_sdi(dj, (WORD)((dj->lfn_idx == 0xFFFF) ? i : dj->lfn_idx));	/* Goto the SFN or top of the LFN entries */
    2630:	00bfffd4 	movui	r2,65535
#if !_FS_READONLY && !_FS_MINIMIZE
static
FRESULT dir_remove (	/* FR_OK: Successful, FR_DISK_ERR: A disk error */
	DIR *dj				/* Directory object pointing the entry to be removed */
)
{
    2634:	dc400115 	stw	r17,4(sp)
    2638:	dc000015 	stw	r16,0(sp)
    263c:	dfc00415 	stw	ra,16(sp)
    2640:	dcc00315 	stw	r19,12(sp)
    2644:	dc800215 	stw	r18,8(sp)
    2648:	2021883a 	mov	r16,r4
	FRESULT res;
#if _USE_LFN	/* LFN configuration */
	WORD i;

	i = dj->index;	/* SFN index */
    264c:	2440018b 	ldhu	r17,6(r4)
	res = dir_sdi(dj, (WORD)((dj->lfn_idx == 0xFFFF) ? i : dj->lfn_idx));	/* Goto the SFN or top of the LFN entries */
    2650:	28802326 	beq	r5,r2,26e0 <dir_remove+0xb8>
    2654:	8009883a 	mov	r4,r16
    2658:	0001ba00 	call	1ba0 <dir_sdi>
    265c:	100d883a 	mov	r6,r2
	if (res == FR_OK) {
    2660:	10000826 	beq	r2,zero,2684 <dir_remove+0x5c>
		}
	}
#endif

	return res;
}
    2664:	3005883a 	mov	r2,r6
    2668:	dfc00417 	ldw	ra,16(sp)
    266c:	dcc00317 	ldw	r19,12(sp)
    2670:	dc800217 	ldw	r18,8(sp)
    2674:	dc400117 	ldw	r17,4(sp)
    2678:	dc000017 	ldw	r16,0(sp)
    267c:	dec00504 	addi	sp,sp,20
    2680:	f800283a 	ret
    2684:	8c7fffcc 	andi	r17,r17,65535
    2688:	04fff944 	movi	r19,-27
    268c:	04800044 	movi	r18,1

	i = dj->index;	/* SFN index */
	res = dir_sdi(dj, (WORD)((dj->lfn_idx == 0xFFFF) ? i : dj->lfn_idx));	/* Goto the SFN or top of the LFN entries */
	if (res == FR_OK) {
		do {
			res = move_window(dj->fs, dj->sect);
    2690:	81000017 	ldw	r4,0(r16)
    2694:	81400417 	ldw	r5,16(r16)
    2698:	00012480 	call	1248 <move_window>
    269c:	100d883a 	mov	r6,r2
			if (res != FR_OK) break;
			*dj->dir = DDE;			/* Mark the entry "deleted" */
			dj->fs->wflag = 1;
			if (dj->index >= i) break;	/* When reached SFN, all entries of the object has been deleted. */
			res = dir_next(dj, 0);		/* Next entry */
    26a0:	8009883a 	mov	r4,r16
    26a4:	000b883a 	mov	r5,zero
	i = dj->index;	/* SFN index */
	res = dir_sdi(dj, (WORD)((dj->lfn_idx == 0xFFFF) ? i : dj->lfn_idx));	/* Goto the SFN or top of the LFN entries */
	if (res == FR_OK) {
		do {
			res = move_window(dj->fs, dj->sect);
			if (res != FR_OK) break;
    26a8:	1000091e 	bne	r2,zero,26d0 <dir_remove+0xa8>
			*dj->dir = DDE;			/* Mark the entry "deleted" */
    26ac:	80800517 	ldw	r2,20(r16)
    26b0:	14c00005 	stb	r19,0(r2)
			dj->fs->wflag = 1;
    26b4:	80c00017 	ldw	r3,0(r16)
    26b8:	1c800105 	stb	r18,4(r3)
			if (dj->index >= i) break;	/* When reached SFN, all entries of the object has been deleted. */
    26bc:	8080018b 	ldhu	r2,6(r16)
    26c0:	147fe82e 	bgeu	r2,r17,2664 <dir_remove+0x3c>
			res = dir_next(dj, 0);		/* Next entry */
    26c4:	00024400 	call	2440 <dir_next>
    26c8:	100d883a 	mov	r6,r2
		} while (res == FR_OK);
    26cc:	103ff026 	beq	r2,zero,2690 <dir_remove+0x68>
		if (res == FR_NO_FILE) res = FR_INT_ERR;
    26d0:	00800104 	movi	r2,4
    26d4:	30bfe31e 	bne	r6,r2,2664 <dir_remove+0x3c>
    26d8:	01800084 	movi	r6,2
    26dc:	003fe106 	br	2664 <dir_remove+0x3c>
	FRESULT res;
#if _USE_LFN	/* LFN configuration */
	WORD i;

	i = dj->index;	/* SFN index */
	res = dir_sdi(dj, (WORD)((dj->lfn_idx == 0xFFFF) ? i : dj->lfn_idx));	/* Goto the SFN or top of the LFN entries */
    26e0:	897fffcc 	andi	r5,r17,65535
    26e4:	003fdb06 	br	2654 <dir_remove+0x2c>

000026e8 <dir_read>:
#if _FS_MINIMIZE <= 1
static
FRESULT dir_read (
	DIR *dj			/* Pointer to the directory object that pointing the entry to be read */
)
{
    26e8:	defffb04 	addi	sp,sp,-20
    26ec:	dc800215 	stw	r18,8(sp)
    26f0:	04bfffc4 	movi	r18,-1
    26f4:	dcc00315 	stw	r19,12(sp)
    26f8:	dc400115 	stw	r17,4(sp)
    26fc:	dc000015 	stw	r16,0(sp)
    2700:	dfc00415 	stw	ra,16(sp)
    2704:	2023883a 	mov	r17,r4
    2708:	9027883a 	mov	r19,r18
    270c:	04000104 	movi	r16,4
#if _USE_LFN
	BYTE a, ord = 0xFF, sum = 0xFF;
#endif

	res = FR_NO_FILE;
	while (dj->sect) {
    2710:	89400417 	ldw	r5,16(r17)
    2714:	28006026 	beq	r5,zero,2898 <dir_read+0x1b0>
		res = move_window(dj->fs, dj->sect);
    2718:	89000017 	ldw	r4,0(r17)
    271c:	00012480 	call	1248 <move_window>
    2720:	1021883a 	mov	r16,r2
		if (res != FR_OK) break;
    2724:	1000141e 	bne	r2,zero,2778 <dir_read+0x90>
		dir = dj->dir;					/* Ptr to the directory entry of current index */
    2728:	89c00517 	ldw	r7,20(r17)
		c = dir[DIR_Name];
    272c:	39400003 	ldbu	r5,0(r7)
		if (c == 0) { res = FR_NO_FILE; break; }	/* Reached to end of table */
    2730:	29003fcc 	andi	r4,r5,255
    2734:	20005a26 	beq	r4,zero,28a0 <dir_read+0x1b8>
#if _USE_LFN	/* LFN configuration */
		a = dir[DIR_Attr] & AM_MASK;
		if (c == DDE || (!_FS_RPATH && c == '.') || ((a & AM_VOL) && a != AM_LFN)) {	/* An entry without valid data */
    2738:	00803944 	movi	r2,229
		if (res != FR_OK) break;
		dir = dj->dir;					/* Ptr to the directory entry of current index */
		c = dir[DIR_Name];
		if (c == 0) { res = FR_NO_FILE; break; }	/* Reached to end of table */
#if _USE_LFN	/* LFN configuration */
		a = dir[DIR_Attr] & AM_MASK;
    273c:	38c002c3 	ldbu	r3,11(r7)
		if (c == DDE || (!_FS_RPATH && c == '.') || ((a & AM_VOL) && a != AM_LFN)) {	/* An entry without valid data */
    2740:	20800726 	beq	r4,r2,2760 <dir_read+0x78>
    2744:	00800b84 	movi	r2,46
    2748:	20800526 	beq	r4,r2,2760 <dir_read+0x78>
    274c:	18c00fcc 	andi	r3,r3,63
    2750:	1880020c 	andi	r2,r3,8
    2754:	10001126 	beq	r2,zero,279c <dir_read+0xb4>
    2758:	008003c4 	movi	r2,15
    275c:	18801126 	beq	r3,r2,27a4 <dir_read+0xbc>
				}
				/* Check LFN validity and capture it */
				ord = (c == ord && sum == dir[LDIR_Chksum] && pick_lfn(dj->lfn, dir)) ? ord - 1 : 0xFF;
			} else {					/* An SFN entry is found */
				if (ord || sum != sum_sfn(dir))	/* Is there a valid LFN? */
					dj->lfn_idx = 0xFFFF;		/* It has no LFN. */
    2760:	04ffffc4 	movi	r19,-1
		}
#else		/* Non LFN configuration */
		if (c != DDE && (_FS_RPATH || c != '.') && !(dir[DIR_Attr] & AM_VOL))	/* Is it a valid entry? */
			break;
#endif
		res = dir_next(dj, 0);				/* Next entry */
    2764:	8809883a 	mov	r4,r17
    2768:	000b883a 	mov	r5,zero
    276c:	00024400 	call	2440 <dir_next>
    2770:	1021883a 	mov	r16,r2
		if (res != FR_OK) break;
    2774:	103fe626 	beq	r2,zero,2710 <dir_read+0x28>
	}

	if (res != FR_OK) dj->sect = 0;
    2778:	88000415 	stw	zero,16(r17)

	return res;
}
    277c:	8005883a 	mov	r2,r16
    2780:	dfc00417 	ldw	ra,16(sp)
    2784:	dcc00317 	ldw	r19,12(sp)
    2788:	dc800217 	ldw	r18,8(sp)
    278c:	dc400117 	ldw	r17,4(sp)
    2790:	dc000017 	ldw	r16,0(sp)
    2794:	dec00504 	addi	sp,sp,20
    2798:	f800283a 	ret
#if _USE_LFN	/* LFN configuration */
		a = dir[DIR_Attr] & AM_MASK;
		if (c == DDE || (!_FS_RPATH && c == '.') || ((a & AM_VOL) && a != AM_LFN)) {	/* An entry without valid data */
			ord = 0xFF;
		} else {
			if (a == AM_LFN) {			/* An LFN entry is found */
    279c:	008003c4 	movi	r2,15
    27a0:	1880411e 	bne	r3,r2,28a8 <dir_read+0x1c0>
				if (c & LLE) {			/* Is it start of LFN sequence? */
    27a4:	2080100c 	andi	r2,r4,64
    27a8:	10002b26 	beq	r2,zero,2858 <dir_read+0x170>
					sum = dir[LDIR_Chksum];
					c &= ~LLE; ord = c;
					dj->lfn_idx = dj->index;
    27ac:	88c0018b 	ldhu	r3,6(r17)
			ord = 0xFF;
		} else {
			if (a == AM_LFN) {			/* An LFN entry is found */
				if (c & LLE) {			/* Is it start of LFN sequence? */
					sum = dir[LDIR_Chksum];
					c &= ~LLE; ord = c;
    27b0:	00bfefc4 	movi	r2,-65
		if (c == DDE || (!_FS_RPATH && c == '.') || ((a & AM_VOL) && a != AM_LFN)) {	/* An entry without valid data */
			ord = 0xFF;
		} else {
			if (a == AM_LFN) {			/* An LFN entry is found */
				if (c & LLE) {			/* Is it start of LFN sequence? */
					sum = dir[LDIR_Chksum];
    27b4:	3c800343 	ldbu	r18,13(r7)
					c &= ~LLE; ord = c;
    27b8:	28a0703a 	and	r16,r5,r2
					dj->lfn_idx = dj->index;
    27bc:	88c0080d 	sth	r3,32(r17)
		if (c == DDE || (!_FS_RPATH && c == '.') || ((a & AM_VOL) && a != AM_LFN)) {	/* An entry without valid data */
			ord = 0xFF;
		} else {
			if (a == AM_LFN) {			/* An LFN entry is found */
				if (c & LLE) {			/* Is it start of LFN sequence? */
					sum = dir[LDIR_Chksum];
    27c0:	38800344 	addi	r2,r7,13
					c &= ~LLE; ord = c;
					dj->lfn_idx = dj->index;
				}
				/* Check LFN validity and capture it */
				ord = (c == ord && sum == dir[LDIR_Chksum] && pick_lfn(dj->lfn, dir)) ? ord - 1 : 0xFF;
    27c4:	12800003 	ldbu	r10,0(r2)
    27c8:	90c03fcc 	andi	r3,r18,255
    27cc:	50803fcc 	andi	r2,r10,255
    27d0:	10ffe31e 	bne	r2,r3,2760 <dir_read+0x78>
{
	UINT i, s;
	WCHAR wc, uc;


	i = ((dir[LDIR_Ord] & 0x3F) - 1) * 13;	/* Offset in the LFN buffer */
    27d4:	38800003 	ldbu	r2,0(r7)
					sum = dir[LDIR_Chksum];
					c &= ~LLE; ord = c;
					dj->lfn_idx = dj->index;
				}
				/* Check LFN validity and capture it */
				ord = (c == ord && sum == dir[LDIR_Chksum] && pick_lfn(dj->lfn, dir)) ? ord - 1 : 0xFF;
    27d8:	8b000717 	ldw	r12,28(r17)
{
	UINT i, s;
	WCHAR wc, uc;


	i = ((dir[LDIR_Ord] & 0x3F) - 1) * 13;	/* Offset in the LFN buffer */
    27dc:	02000074 	movhi	r8,1
    27e0:	420a76c4 	addi	r8,r8,10715
    27e4:	10800fcc 	andi	r2,r2,63
    27e8:	10800364 	muli	r2,r2,13
    27ec:	02c00044 	movi	r11,1
    27f0:	03c03f84 	movi	r15,254
    27f4:	11bffcc4 	addi	r6,r2,-13
    27f8:	03bfffd4 	movui	r14,65535
    27fc:	43400344 	addi	r13,r8,13
    2800:	00000606 	br	281c <dir_read+0x134>
	s = 0; wc = 1;
	do {
		uc = LD_WORD(dir+LfnOfs[s]);		/* Pick an LFN character from the entry */
		if (wc) {	/* Last char has not been processed */
			if (i >= _MAX_LFN) return 0;	/* Buffer overflow? */
			lfnbuf[i++] = wc = uc;			/* Store it */
    2804:	1817883a 	mov	r11,r3

	s = 0; wc = 1;
	do {
		uc = LD_WORD(dir+LfnOfs[s]);		/* Pick an LFN character from the entry */
		if (wc) {	/* Last char has not been processed */
			if (i >= _MAX_LFN) return 0;	/* Buffer overflow? */
    2808:	79801036 	bltu	r15,r6,284c <dir_read+0x164>
			lfnbuf[i++] = wc = uc;			/* Store it */
    280c:	31800044 	addi	r6,r6,1
    2810:	48c0000d 	sth	r3,0(r9)
		} else {
			if (uc != 0xFFFF) return 0;		/* Check filler */
    2814:	42000044 	addi	r8,r8,1
		}
	} while (++s < 13);						/* Read all character in the entry */
    2818:	43401426 	beq	r8,r13,286c <dir_read+0x184>

	i = ((dir[LDIR_Ord] & 0x3F) - 1) * 13;	/* Offset in the LFN buffer */

	s = 0; wc = 1;
	do {
		uc = LD_WORD(dir+LfnOfs[s]);		/* Pick an LFN character from the entry */
    281c:	40800003 	ldbu	r2,0(r8)
		if (wc) {	/* Last char has not been processed */
			if (i >= _MAX_LFN) return 0;	/* Buffer overflow? */
			lfnbuf[i++] = wc = uc;			/* Store it */
    2820:	3187883a 	add	r3,r6,r6
    2824:	1b13883a 	add	r9,r3,r12

	i = ((dir[LDIR_Ord] & 0x3F) - 1) * 13;	/* Offset in the LFN buffer */

	s = 0; wc = 1;
	do {
		uc = LD_WORD(dir+LfnOfs[s]);		/* Pick an LFN character from the entry */
    2828:	3885883a 	add	r2,r7,r2
    282c:	10c00043 	ldbu	r3,1(r2)
    2830:	11000003 	ldbu	r4,0(r2)
		if (wc) {	/* Last char has not been processed */
    2834:	597fffcc 	andi	r5,r11,65535

	i = ((dir[LDIR_Ord] & 0x3F) - 1) * 13;	/* Offset in the LFN buffer */

	s = 0; wc = 1;
	do {
		uc = LD_WORD(dir+LfnOfs[s]);		/* Pick an LFN character from the entry */
    2838:	1806923a 	slli	r3,r3,8
    283c:	1906b03a 	or	r3,r3,r4
		if (wc) {	/* Last char has not been processed */
			if (i >= _MAX_LFN) return 0;	/* Buffer overflow? */
			lfnbuf[i++] = wc = uc;			/* Store it */
		} else {
			if (uc != 0xFFFF) return 0;		/* Check filler */
    2840:	18bfffcc 	andi	r2,r3,65535
	i = ((dir[LDIR_Ord] & 0x3F) - 1) * 13;	/* Offset in the LFN buffer */

	s = 0; wc = 1;
	do {
		uc = LD_WORD(dir+LfnOfs[s]);		/* Pick an LFN character from the entry */
		if (wc) {	/* Last char has not been processed */
    2844:	283fef1e 	bne	r5,zero,2804 <dir_read+0x11c>
			if (i >= _MAX_LFN) return 0;	/* Buffer overflow? */
			lfnbuf[i++] = wc = uc;			/* Store it */
		} else {
			if (uc != 0xFFFF) return 0;		/* Check filler */
    2848:	13bff226 	beq	r2,r14,2814 <dir_read+0x12c>
		}
	} while (++s < 13);						/* Read all character in the entry */

	if (dir[LDIR_Ord] & LLE) {				/* Put terminator if it is the last LFN part */
		if (i >= _MAX_LFN) return 0;		/* Buffer overflow? */
		lfnbuf[i] = 0;
    284c:	5025883a 	mov	r18,r10
    2850:	04ffffc4 	movi	r19,-1
    2854:	003fc306 	br	2764 <dir_read+0x7c>
					sum = dir[LDIR_Chksum];
					c &= ~LLE; ord = c;
					dj->lfn_idx = dj->index;
				}
				/* Check LFN validity and capture it */
				ord = (c == ord && sum == dir[LDIR_Chksum] && pick_lfn(dj->lfn, dir)) ? ord - 1 : 0xFF;
    2858:	98803fcc 	andi	r2,r19,255
    285c:	113fc01e 	bne	r2,r4,2760 <dir_read+0x78>
    2860:	9821883a 	mov	r16,r19
    2864:	38800344 	addi	r2,r7,13
    2868:	003fd606 	br	27c4 <dir_read+0xdc>
		} else {
			if (uc != 0xFFFF) return 0;		/* Check filler */
		}
	} while (++s < 13);						/* Read all character in the entry */

	if (dir[LDIR_Ord] & LLE) {				/* Put terminator if it is the last LFN part */
    286c:	38800003 	ldbu	r2,0(r7)
    2870:	1080100c 	andi	r2,r2,64
    2874:	10000526 	beq	r2,zero,288c <dir_read+0x1a4>
		if (i >= _MAX_LFN) return 0;		/* Buffer overflow? */
    2878:	00803f84 	movi	r2,254
    287c:	11bff336 	bltu	r2,r6,284c <dir_read+0x164>
		lfnbuf[i] = 0;
    2880:	3185883a 	add	r2,r6,r6
    2884:	1305883a 	add	r2,r2,r12
    2888:	1000000d 	sth	zero,0(r2)
					sum = dir[LDIR_Chksum];
					c &= ~LLE; ord = c;
					dj->lfn_idx = dj->index;
				}
				/* Check LFN validity and capture it */
				ord = (c == ord && sum == dir[LDIR_Chksum] && pick_lfn(dj->lfn, dir)) ? ord - 1 : 0xFF;
    288c:	84ffffc4 	addi	r19,r16,-1
    2890:	5025883a 	mov	r18,r10
    2894:	003fb306 	br	2764 <dir_read+0x7c>
#endif
		res = dir_next(dj, 0);				/* Next entry */
		if (res != FR_OK) break;
	}

	if (res != FR_OK) dj->sect = 0;
    2898:	803fb71e 	bne	r16,zero,2778 <dir_read+0x90>
    289c:	003fb706 	br	277c <dir_read+0x94>
					sum = dir[LDIR_Chksum];
					c &= ~LLE; ord = c;
					dj->lfn_idx = dj->index;
				}
				/* Check LFN validity and capture it */
				ord = (c == ord && sum == dir[LDIR_Chksum] && pick_lfn(dj->lfn, dir)) ? ord - 1 : 0xFF;
    28a0:	04000104 	movi	r16,4
    28a4:	003fb406 	br	2778 <dir_read+0x90>
			} else {					/* An SFN entry is found */
				if (ord || sum != sum_sfn(dir))	/* Is there a valid LFN? */
    28a8:	98803fcc 	andi	r2,r19,255
    28ac:	10000326 	beq	r2,zero,28bc <dir_read+0x1d4>
					dj->lfn_idx = 0xFFFF;		/* It has no LFN. */
    28b0:	00bfffc4 	movi	r2,-1
    28b4:	8880080d 	sth	r2,32(r17)
    28b8:	003fb006 	br	277c <dir_read+0x94>
					dj->lfn_idx = dj->index;
				}
				/* Check LFN validity and capture it */
				ord = (c == ord && sum == dir[LDIR_Chksum] && pick_lfn(dj->lfn, dir)) ? ord - 1 : 0xFF;
			} else {					/* An SFN entry is found */
				if (ord || sum != sum_sfn(dir))	/* Is there a valid LFN? */
    28bc:	3809883a 	mov	r4,r7
    28c0:	000091c0 	call	91c <sum_sfn>
    28c4:	10803fcc 	andi	r2,r2,255
    28c8:	90c03fcc 	andi	r3,r18,255
    28cc:	18bff81e 	bne	r3,r2,28b0 <dir_read+0x1c8>
    28d0:	003faa06 	br	277c <dir_read+0x94>

000028d4 <f_readdir>:

FRESULT f_readdir (
	DIR *dj,			/* Pointer to the open directory object */
	FILINFO *fno		/* Pointer to file information to return */
)
{
    28d4:	defff904 	addi	sp,sp,-28
    28d8:	dc000315 	stw	r16,12(sp)
    28dc:	2021883a 	mov	r16,r4
    28e0:	dc800515 	stw	r18,20(sp)
	FRESULT res;
	DEF_NAMEBUF;


	res = validate(dj->fs, dj->id);			/* Check validity of the object */
    28e4:	21000017 	ldw	r4,0(r4)

FRESULT f_readdir (
	DIR *dj,			/* Pointer to the open directory object */
	FILINFO *fno		/* Pointer to file information to return */
)
{
    28e8:	2825883a 	mov	r18,r5
	FRESULT res;
	DEF_NAMEBUF;


	res = validate(dj->fs, dj->id);			/* Check validity of the object */
    28ec:	8140010b 	ldhu	r5,4(r16)

FRESULT f_readdir (
	DIR *dj,			/* Pointer to the open directory object */
	FILINFO *fno		/* Pointer to file information to return */
)
{
    28f0:	dc400415 	stw	r17,16(sp)
    28f4:	dfc00615 	stw	ra,24(sp)
	FRESULT res;
	DEF_NAMEBUF;


	res = validate(dj->fs, dj->id);			/* Check validity of the object */
    28f8:	00009800 	call	980 <validate>
    28fc:	1023883a 	mov	r17,r2
	if (res == FR_OK) {
    2900:	1000151e 	bne	r2,zero,2958 <f_readdir+0x84>
		if (!fno) {
    2904:	90002526 	beq	r18,zero,299c <f_readdir+0xc8>
			res = dir_sdi(dj, 0);			/* Rewind the directory object */
		} else {
			INIT_BUF(*dj);
    2908:	00800134 	movhi	r2,4
    290c:	1098e004 	addi	r2,r2,25472
    2910:	80800715 	stw	r2,28(r16)
    2914:	86c00615 	stw	sp,24(r16)
			res = dir_read(dj);				/* Read an directory item */
    2918:	8009883a 	mov	r4,r16
    291c:	00026e80 	call	26e8 <dir_read>
    2920:	1007883a 	mov	r3,r2
			if (res == FR_NO_FILE) {		/* Reached end of dir */
    2924:	00800104 	movi	r2,4
    2928:	18801a26 	beq	r3,r2,2994 <f_readdir+0xc0>
				dj->sect = 0;
				res = FR_OK;
			}
			if (res == FR_OK) {				/* A valid entry is found */
    292c:	1800091e 	bne	r3,zero,2954 <f_readdir+0x80>
				get_fileinfo(dj, fno);		/* Get the object information */
    2930:	900b883a 	mov	r5,r18
    2934:	8009883a 	mov	r4,r16
    2938:	00010340 	call	1034 <get_fileinfo>
				res = dir_next(dj, 0);		/* Increment index for next */
    293c:	8009883a 	mov	r4,r16
    2940:	000b883a 	mov	r5,zero
    2944:	00024400 	call	2440 <dir_next>
    2948:	1007883a 	mov	r3,r2
				if (res == FR_NO_FILE) {
    294c:	00800104 	movi	r2,4
    2950:	18800826 	beq	r3,r2,2974 <f_readdir+0xa0>
    2954:	1823883a 	mov	r17,r3
			FREE_BUF();
		}
	}

	LEAVE_FF(dj->fs, res);
}
    2958:	8805883a 	mov	r2,r17
    295c:	dfc00617 	ldw	ra,24(sp)
    2960:	dc800517 	ldw	r18,20(sp)
    2964:	dc400417 	ldw	r17,16(sp)
    2968:	dc000317 	ldw	r16,12(sp)
    296c:	dec00704 	addi	sp,sp,28
    2970:	f800283a 	ret
    2974:	8805883a 	mov	r2,r17
			}
			if (res == FR_OK) {				/* A valid entry is found */
				get_fileinfo(dj, fno);		/* Get the object information */
				res = dir_next(dj, 0);		/* Increment index for next */
				if (res == FR_NO_FILE) {
					dj->sect = 0;
    2978:	80000415 	stw	zero,16(r16)
			FREE_BUF();
		}
	}

	LEAVE_FF(dj->fs, res);
}
    297c:	dfc00617 	ldw	ra,24(sp)
    2980:	dc800517 	ldw	r18,20(sp)
    2984:	dc400417 	ldw	r17,16(sp)
    2988:	dc000317 	ldw	r16,12(sp)
    298c:	dec00704 	addi	sp,sp,28
    2990:	f800283a 	ret
			res = dir_sdi(dj, 0);			/* Rewind the directory object */
		} else {
			INIT_BUF(*dj);
			res = dir_read(dj);				/* Read an directory item */
			if (res == FR_NO_FILE) {		/* Reached end of dir */
				dj->sect = 0;
    2994:	80000415 	stw	zero,16(r16)
    2998:	003fe506 	br	2930 <f_readdir+0x5c>


	res = validate(dj->fs, dj->id);			/* Check validity of the object */
	if (res == FR_OK) {
		if (!fno) {
			res = dir_sdi(dj, 0);			/* Rewind the directory object */
    299c:	8009883a 	mov	r4,r16
    29a0:	000b883a 	mov	r5,zero
    29a4:	0001ba00 	call	1ba0 <dir_sdi>
    29a8:	1023883a 	mov	r17,r2
			FREE_BUF();
		}
	}

	LEAVE_FF(dj->fs, res);
}
    29ac:	8805883a 	mov	r2,r17
    29b0:	dfc00617 	ldw	ra,24(sp)
    29b4:	dc800517 	ldw	r18,20(sp)
    29b8:	dc400417 	ldw	r17,16(sp)
    29bc:	dc000317 	ldw	r16,12(sp)
    29c0:	dec00704 	addi	sp,sp,28
    29c4:	f800283a 	ret

000029c8 <dir_find>:

static
FRESULT dir_find (
	DIR *dj			/* Pointer to the directory object linked to the file name */
)
{
    29c8:	defff704 	addi	sp,sp,-36
	BYTE c, *dir;
#if _USE_LFN
	BYTE a, ord, sum;
#endif

	res = dir_sdi(dj, 0);			/* Rewind directory object */
    29cc:	000b883a 	mov	r5,zero

static
FRESULT dir_find (
	DIR *dj			/* Pointer to the directory object linked to the file name */
)
{
    29d0:	dc800215 	stw	r18,8(sp)
    29d4:	dc000015 	stw	r16,0(sp)
    29d8:	dfc00815 	stw	ra,32(sp)
    29dc:	ddc00715 	stw	r23,28(sp)
    29e0:	dd800615 	stw	r22,24(sp)
    29e4:	dd400515 	stw	r21,20(sp)
    29e8:	dd000415 	stw	r20,16(sp)
    29ec:	dcc00315 	stw	r19,12(sp)
    29f0:	dc400115 	stw	r17,4(sp)
    29f4:	2025883a 	mov	r18,r4
	BYTE c, *dir;
#if _USE_LFN
	BYTE a, ord, sum;
#endif

	res = dir_sdi(dj, 0);			/* Rewind directory object */
    29f8:	0001ba00 	call	1ba0 <dir_sdi>
    29fc:	1021883a 	mov	r16,r2
	if (res != FR_OK) return res;
    2a00:	1000191e 	bne	r2,zero,2a68 <dir_find+0xa0>
    2a04:	04ffffc4 	movi	r19,-1
    2a08:	982d883a 	mov	r22,r19

#if _USE_LFN
	ord = sum = 0xFF;
#endif
	do {
		res = move_window(dj->fs, dj->sect);
    2a0c:	91000017 	ldw	r4,0(r18)
    2a10:	91400417 	ldw	r5,16(r18)
    2a14:	00012480 	call	1248 <move_window>
    2a18:	1021883a 	mov	r16,r2
		if (res != FR_OK) break;
    2a1c:	1000121e 	bne	r2,zero,2a68 <dir_find+0xa0>
		dir = dj->dir;					/* Ptr to the directory entry of current index */
    2a20:	94400517 	ldw	r17,20(r18)
		c = dir[DIR_Name];
    2a24:	89400003 	ldbu	r5,0(r17)
		if (c == 0) { res = FR_NO_FILE; break; }	/* Reached to end of table */
    2a28:	29003fcc 	andi	r4,r5,255
    2a2c:	20007826 	beq	r4,zero,2c10 <dir_find+0x248>
#if _USE_LFN	/* LFN configuration */
		a = dir[DIR_Attr] & AM_MASK;
		if (c == DDE || ((a & AM_VOL) && a != AM_LFN)) {	/* An entry without valid data */
    2a30:	00803944 	movi	r2,229
		if (res != FR_OK) break;
		dir = dj->dir;					/* Ptr to the directory entry of current index */
		c = dir[DIR_Name];
		if (c == 0) { res = FR_NO_FILE; break; }	/* Reached to end of table */
#if _USE_LFN	/* LFN configuration */
		a = dir[DIR_Attr] & AM_MASK;
    2a34:	88c002c3 	ldbu	r3,11(r17)
		if (c == DDE || ((a & AM_VOL) && a != AM_LFN)) {	/* An entry without valid data */
    2a38:	20800526 	beq	r4,r2,2a50 <dir_find+0x88>
    2a3c:	18c00fcc 	andi	r3,r3,63
    2a40:	1880020c 	andi	r2,r3,8
    2a44:	10002526 	beq	r2,zero,2adc <dir_find+0x114>
    2a48:	008003c4 	movi	r2,15
    2a4c:	18801226 	beq	r3,r2,2a98 <dir_find+0xd0>
static
int mem_cmp (const void* dst, const void* src, UINT cnt) {
	const BYTE *d = (const BYTE *)dst, *s = (const BYTE *)src;
	int r = 0;

	while (cnt-- && (r = *d++ - *s++) == 0) ;
    2a50:	04ffffc4 	movi	r19,-1
		}
#else		/* Non LFN configuration */
		if (!(dir[DIR_Attr] & AM_VOL) && !mem_cmp(dir, dj->fn, 11)) /* Is it a valid entry? */
			break;
#endif
		res = dir_next(dj, 0);		/* Next entry */
    2a54:	9009883a 	mov	r4,r18
    2a58:	000b883a 	mov	r5,zero
    2a5c:	00024400 	call	2440 <dir_next>
    2a60:	1021883a 	mov	r16,r2
	} while (res == FR_OK);
    2a64:	103fe926 	beq	r2,zero,2a0c <dir_find+0x44>

	return res;
}
    2a68:	8005883a 	mov	r2,r16
    2a6c:	dfc00817 	ldw	ra,32(sp)
    2a70:	ddc00717 	ldw	r23,28(sp)
    2a74:	dd800617 	ldw	r22,24(sp)
    2a78:	dd400517 	ldw	r21,20(sp)
    2a7c:	dd000417 	ldw	r20,16(sp)
    2a80:	dcc00317 	ldw	r19,12(sp)
    2a84:	dc800217 	ldw	r18,8(sp)
    2a88:	dc400117 	ldw	r17,4(sp)
    2a8c:	dc000017 	ldw	r16,0(sp)
    2a90:	dec00904 	addi	sp,sp,36
    2a94:	f800283a 	ret
		a = dir[DIR_Attr] & AM_MASK;
		if (c == DDE || ((a & AM_VOL) && a != AM_LFN)) {	/* An entry without valid data */
			ord = 0xFF;
		} else {
			if (a == AM_LFN) {			/* An LFN entry is found */
				if (dj->lfn) {
    2a98:	95400717 	ldw	r21,28(r18)
    2a9c:	a83fed26 	beq	r21,zero,2a54 <dir_find+0x8c>
					if (c & LLE) {		/* Is it start of LFN sequence? */
    2aa0:	2080100c 	andi	r2,r4,64
    2aa4:	10002126 	beq	r2,zero,2b2c <dir_find+0x164>
						sum = dir[LDIR_Chksum];
						c &= ~LLE; ord = c;	/* LFN start order */
						dj->lfn_idx = dj->index;
    2aa8:	90c0018b 	ldhu	r3,6(r18)
		} else {
			if (a == AM_LFN) {			/* An LFN entry is found */
				if (dj->lfn) {
					if (c & LLE) {		/* Is it start of LFN sequence? */
						sum = dir[LDIR_Chksum];
						c &= ~LLE; ord = c;	/* LFN start order */
    2aac:	00bfefc4 	movi	r2,-65
			ord = 0xFF;
		} else {
			if (a == AM_LFN) {			/* An LFN entry is found */
				if (dj->lfn) {
					if (c & LLE) {		/* Is it start of LFN sequence? */
						sum = dir[LDIR_Chksum];
    2ab0:	89000343 	ldbu	r4,13(r17)
						c &= ~LLE; ord = c;	/* LFN start order */
    2ab4:	28ae703a 	and	r23,r5,r2
						dj->lfn_idx = dj->index;
    2ab8:	90c0080d 	sth	r3,32(r18)
			ord = 0xFF;
		} else {
			if (a == AM_LFN) {			/* An LFN entry is found */
				if (dj->lfn) {
					if (c & LLE) {		/* Is it start of LFN sequence? */
						sum = dir[LDIR_Chksum];
    2abc:	88800344 	addi	r2,r17,13
						c &= ~LLE; ord = c;	/* LFN start order */
						dj->lfn_idx = dj->index;
					}
					/* Check validity of the LFN entry and compare it with given name */
					ord = (c == ord && sum == dir[LDIR_Chksum] && cmp_lfn(dj->lfn, dir)) ? ord - 1 : 0xFF;
    2ac0:	15800003 	ldbu	r22,0(r2)
    2ac4:	20c03fcc 	andi	r3,r4,255
    2ac8:	b0803fcc 	andi	r2,r22,255
    2acc:	10c02326 	beq	r2,r3,2b5c <dir_find+0x194>
    2ad0:	202d883a 	mov	r22,r4
    2ad4:	04ffffc4 	movi	r19,-1
    2ad8:	003fde06 	br	2a54 <dir_find+0x8c>
#if _USE_LFN	/* LFN configuration */
		a = dir[DIR_Attr] & AM_MASK;
		if (c == DDE || ((a & AM_VOL) && a != AM_LFN)) {	/* An entry without valid data */
			ord = 0xFF;
		} else {
			if (a == AM_LFN) {			/* An LFN entry is found */
    2adc:	008003c4 	movi	r2,15
    2ae0:	18bfed26 	beq	r3,r2,2a98 <dir_find+0xd0>
					}
					/* Check validity of the LFN entry and compare it with given name */
					ord = (c == ord && sum == dir[LDIR_Chksum] && cmp_lfn(dj->lfn, dir)) ? ord - 1 : 0xFF;
				}
			} else {					/* An SFN entry is found */
				if (!ord && sum == sum_sfn(dir)) break;	/* LFN matched? */
    2ae4:	98803fcc 	andi	r2,r19,255
    2ae8:	10001626 	beq	r2,zero,2b44 <dir_find+0x17c>
				ord = 0xFF; dj->lfn_idx = 0xFFFF;	/* Reset LFN sequence */
				if (!(dj->fn[NS] & NS_LOSS) && !mem_cmp(dir, dj->fn, 11)) break;	/* SFN matched? */
    2aec:	91c00617 	ldw	r7,24(r18)
					/* Check validity of the LFN entry and compare it with given name */
					ord = (c == ord && sum == dir[LDIR_Chksum] && cmp_lfn(dj->lfn, dir)) ? ord - 1 : 0xFF;
				}
			} else {					/* An SFN entry is found */
				if (!ord && sum == sum_sfn(dir)) break;	/* LFN matched? */
				ord = 0xFF; dj->lfn_idx = 0xFFFF;	/* Reset LFN sequence */
    2af0:	00ffffc4 	movi	r3,-1
    2af4:	90c0080d 	sth	r3,32(r18)
				if (!(dj->fn[NS] & NS_LOSS) && !mem_cmp(dir, dj->fn, 11)) break;	/* SFN matched? */
    2af8:	388002c3 	ldbu	r2,11(r7)
    2afc:	1080004c 	andi	r2,r2,1
    2b00:	103fd31e 	bne	r2,zero,2a50 <dir_find+0x88>
    2b04:	000d883a 	mov	r6,zero
    2b08:	020002c4 	movi	r8,11
static
int mem_cmp (const void* dst, const void* src, UINT cnt) {
	const BYTE *d = (const BYTE *)dst, *s = (const BYTE *)src;
	int r = 0;

	while (cnt-- && (r = *d++ - *s++) == 0) ;
    2b0c:	3445883a 	add	r2,r6,r17
    2b10:	31c7883a 	add	r3,r6,r7
    2b14:	11400003 	ldbu	r5,0(r2)
    2b18:	19000003 	ldbu	r4,0(r3)
					ord = (c == ord && sum == dir[LDIR_Chksum] && cmp_lfn(dj->lfn, dir)) ? ord - 1 : 0xFF;
				}
			} else {					/* An SFN entry is found */
				if (!ord && sum == sum_sfn(dir)) break;	/* LFN matched? */
				ord = 0xFF; dj->lfn_idx = 0xFFFF;	/* Reset LFN sequence */
				if (!(dj->fn[NS] & NS_LOSS) && !mem_cmp(dir, dj->fn, 11)) break;	/* SFN matched? */
    2b1c:	31800044 	addi	r6,r6,1
static
int mem_cmp (const void* dst, const void* src, UINT cnt) {
	const BYTE *d = (const BYTE *)dst, *s = (const BYTE *)src;
	int r = 0;

	while (cnt-- && (r = *d++ - *s++) == 0) ;
    2b20:	293fcb1e 	bne	r5,r4,2a50 <dir_find+0x88>
    2b24:	323ff91e 	bne	r6,r8,2b0c <dir_find+0x144>
    2b28:	003fcf06 	br	2a68 <dir_find+0xa0>
						sum = dir[LDIR_Chksum];
						c &= ~LLE; ord = c;	/* LFN start order */
						dj->lfn_idx = dj->index;
					}
					/* Check validity of the LFN entry and compare it with given name */
					ord = (c == ord && sum == dir[LDIR_Chksum] && cmp_lfn(dj->lfn, dir)) ? ord - 1 : 0xFF;
    2b2c:	98803fcc 	andi	r2,r19,255
    2b30:	113fc71e 	bne	r2,r4,2a50 <dir_find+0x88>
    2b34:	982f883a 	mov	r23,r19
    2b38:	b009883a 	mov	r4,r22
    2b3c:	88800344 	addi	r2,r17,13
    2b40:	003fdf06 	br	2ac0 <dir_find+0xf8>
				}
			} else {					/* An SFN entry is found */
				if (!ord && sum == sum_sfn(dir)) break;	/* LFN matched? */
    2b44:	8809883a 	mov	r4,r17
    2b48:	000091c0 	call	91c <sum_sfn>
    2b4c:	10803fcc 	andi	r2,r2,255
    2b50:	b0c03fcc 	andi	r3,r22,255
    2b54:	18bfe51e 	bne	r3,r2,2aec <dir_find+0x124>
    2b58:	003fc306 	br	2a68 <dir_find+0xa0>
{
	UINT i, s;
	WCHAR wc, uc;


	i = ((dir[LDIR_Ord] & ~LLE) - 1) * 13;	/* Get offset in the LFN buffer */
    2b5c:	88800003 	ldbu	r2,0(r17)
    2b60:	04c00074 	movhi	r19,1
    2b64:	9cca76c4 	addi	r19,r19,10715
    2b68:	01400044 	movi	r5,1
    2b6c:	10802fcc 	andi	r2,r2,191
    2b70:	10800364 	muli	r2,r2,13
    2b74:	143ffcc4 	addi	r16,r2,-13
    2b78:	00000606 	br	2b94 <dir_find+0x1cc>
		if (wc) {	/* Last char has not been processed */
			wc = ff_wtoupper(uc);		/* Convert it to upper case */
			if (i >= _MAX_LFN || wc != ff_wtoupper(lfnbuf[i++]))	/* Compare it */
				return 0;				/* Not matched */
		} else {
			if (uc != 0xFFFF) return 0;	/* Check filler */
    2b7c:	00bfffd4 	movui	r2,65535
    2b80:	20bfb31e 	bne	r4,r2,2a50 <dir_find+0x88>
    2b84:	9cc00044 	addi	r19,r19,1
		}
	} while (++s < 13);				/* Repeat until all chars in the entry are checked */
    2b88:	00800074 	movhi	r2,1
    2b8c:	108a7a04 	addi	r2,r2,10728
    2b90:	98801526 	beq	r19,r2,2be8 <dir_find+0x220>


	i = ((dir[LDIR_Ord] & ~LLE) - 1) * 13;	/* Get offset in the LFN buffer */
	s = 0; wc = 1;
	do {
		uc = LD_WORD(dir+LfnOfs[s]);	/* Pick an LFN character from the entry */
    2b94:	98800003 	ldbu	r2,0(r19)
    2b98:	8885883a 	add	r2,r17,r2
    2b9c:	10c00043 	ldbu	r3,1(r2)
    2ba0:	11000003 	ldbu	r4,0(r2)
    2ba4:	1806923a 	slli	r3,r3,8
    2ba8:	1906b03a 	or	r3,r3,r4
		if (wc) {	/* Last char has not been processed */
			wc = ff_wtoupper(uc);		/* Convert it to upper case */
    2bac:	193fffcc 	andi	r4,r3,65535

	i = ((dir[LDIR_Ord] & ~LLE) - 1) * 13;	/* Get offset in the LFN buffer */
	s = 0; wc = 1;
	do {
		uc = LD_WORD(dir+LfnOfs[s]);	/* Pick an LFN character from the entry */
		if (wc) {	/* Last char has not been processed */
    2bb0:	283ff226 	beq	r5,zero,2b7c <dir_find+0x1b4>
			wc = ff_wtoupper(uc);		/* Convert it to upper case */
    2bb4:	00050d00 	call	50d0 <ff_wtoupper>
    2bb8:	1029883a 	mov	r20,r2
			if (i >= _MAX_LFN || wc != ff_wtoupper(lfnbuf[i++]))	/* Compare it */
    2bbc:	00c03f84 	movi	r3,254
    2bc0:	8405883a 	add	r2,r16,r16
    2bc4:	1545883a 	add	r2,r2,r21
    2bc8:	1c3fa136 	bltu	r3,r16,2a50 <dir_find+0x88>
    2bcc:	1100000b 	ldhu	r4,0(r2)
    2bd0:	84000044 	addi	r16,r16,1
    2bd4:	00050d00 	call	50d0 <ff_wtoupper>
    2bd8:	10bfffcc 	andi	r2,r2,65535
    2bdc:	a17fffcc 	andi	r5,r20,65535
    2be0:	28bfe826 	beq	r5,r2,2b84 <dir_find+0x1bc>
    2be4:	003f9a06 	br	2a50 <dir_find+0x88>
		} else {
			if (uc != 0xFFFF) return 0;	/* Check filler */
		}
	} while (++s < 13);				/* Repeat until all chars in the entry are checked */

	if ((dir[LDIR_Ord] & LLE) && wc && lfnbuf[i])	/* Last segment matched but different length */
    2be8:	88800003 	ldbu	r2,0(r17)
    2bec:	1080100c 	andi	r2,r2,64
    2bf0:	10000526 	beq	r2,zero,2c08 <dir_find+0x240>
