
bmp_test.elf:     file format elf32-littlenios2
bmp_test.elf
architecture: nios2, flags 0x00000112:
EXEC_P, HAS_SYMS, D_PAGED
start address 0x00000184

Program Header:
    LOAD off    0x00001020 vaddr 0x00000020 paddr 0x00000020 align 2**12
         filesz 0x0004ae50 memsz 0x0004d824 flags rwx
    LOAD off    0x0004c000 vaddr 0x0f000000 paddr 0x0f000000 align 2**12
         filesz 0x00000000 memsz 0x00000000 flags r-x

Sections:
Idx Name          Size      VMA       LMA       File off  Algn
  0 .entry        00000000  0f000000  0f000000  0004c000  2**5
                  CONTENTS, ALLOC, LOAD, READONLY, CODE
  1 .exceptions   00000164  00000020  00000020  00001020  2**2
                  CONTENTS, ALLOC, LOAD, READONLY, CODE
  2 .text         00017284  00000184  00000184  00001184  2**2
                  CONTENTS, ALLOC, LOAD, READONLY, CODE
  3 .rodata       00031e3c  00017408  00017408  00018408  2**2
                  CONTENTS, ALLOC, LOAD, READONLY, DATA
  4 .rwdata       00001c2c  00049244  00049244  0004a244  2**2
                  CONTENTS, ALLOC, LOAD, DATA, SMALL_DATA
  5 .bss          000029d4  0004ae70  0004ae70  0004be70  2**2
                  ALLOC, SMALL_DATA
  6 .comment      00000026  00000000  00000000  0004c000  2**0
                  CONTENTS, READONLY
  7 .debug_aranges 00000f50  00000000  00000000  0004c028  2**3
                  CONTENTS, READONLY, DEBUGGING
  8 .debug_pubnames 00001fae  00000000  00000000  0004cf78  2**0
                  CONTENTS, READONLY, DEBUGGING
  9 .debug_info   0002ca2e  00000000  00000000  0004ef26  2**0
                  CONTENTS, READONLY, DEBUGGING
 10 .debug_abbrev 00009ebd  00000000  00000000  0007b954  2**0
                  CONTENTS, READONLY, DEBUGGING
 11 .debug_line   0001c044  00000000  00000000  00085811  2**0
                  CONTENTS, READONLY, DEBUGGING
 12 .debug_frame  000027a4  00000000  00000000  000a1858  2**2
                  CONTENTS, READONLY, DEBUGGING
 13 .debug_str    00003705  00000000  00000000  000a3ffc  2**0
                  CONTENTS, READONLY, DEBUGGING
 14 .debug_loc    0000fb3e  00000000  00000000  000a7701  2**0
                  CONTENTS, READONLY, DEBUGGING
 15 .debug_alt_sim_info 00000050  00000000  00000000  000b7240  2**2
                  CONTENTS, READONLY, DEBUGGING
 16 .debug_ranges 00000d28  00000000  00000000  000b7290  2**3
                  CONTENTS, READONLY, DEBUGGING
 17 .thread_model 00000003  00000000  00000000  000bc6bf  2**0
                  CONTENTS, READONLY
 18 .cpu          0000000e  00000000  00000000  000bc6c2  2**0
                  CONTENTS, READONLY
 19 .simulation_enabled 00000001  00000000  00000000  000bc6d0  2**0
                  CONTENTS, READONLY
 20 .sysid_hash   00000004  00000000  00000000  000bc6d1  2**0
                  CONTENTS, READONLY
 21 .sysid_base   00000004  00000000  00000000  000bc6d5  2**0
                  CONTENTS, READONLY
 22 .sysid_time   00000004  00000000  00000000  000bc6d9  2**0
                  CONTENTS, READONLY
 23 .stderr_dev   00000009  00000000  00000000  000bc6dd  2**0
                  CONTENTS, READONLY
 24 .stdin_dev    00000009  00000000  00000000  000bc6e6  2**0
                  CONTENTS, READONLY
 25 .stdout_dev   00000009  00000000  00000000  000bc6ef  2**0
                  CONTENTS, READONLY
 26 .sopc_system_name 00000009  00000000  00000000  000bc6f8  2**0
                  CONTENTS, READONLY
 27 .quartus_project_dir 0000001c  00000000  00000000  000bc701  2**0
                  CONTENTS, READONLY
 28 .jdi          00004a5a  00000000  00000000  000bc71d  2**0
                  CONTENTS, READONLY
 29 .sopcinfo     000831fc  00000000  00000000  000c1177  2**0
                  CONTENTS, READONLY
SYMBOL TABLE:
0f000000 l    d  .entry	00000000 .entry
00000020 l    d  .exceptions	00000000 .exceptions
00000184 l    d  .text	00000000 .text
00017408 l    d  .rodata	00000000 .rodata
00049244 l    d  .rwdata	00000000 .rwdata
0004ae70 l    d  .bss	00000000 .bss
00000000 l    d  .comment	00000000 .comment
00000000 l    d  .debug_aranges	00000000 .debug_aranges
00000000 l    d  .debug_pubnames	00000000 .debug_pubnames
00000000 l    d  .debug_info	00000000 .debug_info
00000000 l    d  .debug_abbrev	00000000 .debug_abbrev
00000000 l    d  .debug_line	00000000 .debug_line
00000000 l    d  .debug_frame	00000000 .debug_frame
00000000 l    d  .debug_str	00000000 .debug_str
00000000 l    d  .debug_loc	00000000 .debug_loc
00000000 l    d  .debug_alt_sim_info	00000000 .debug_alt_sim_info
00000000 l    d  .debug_ranges	00000000 .debug_ranges
000001c8 l       .text	00000000 alt_after_alt_main
00000000 l    df *ABS*	00000000 alt_irq_handler.c
00000000 l    df *ABS*	00000000 bmp_test.c
00000000 l    df *ABS*	00000000 ff.c
000003f8 l     F .text	0000007c mem_cpy
00000474 l     F .text	00000068 mem_set
000004dc l     F .text	000000a8 mem_cmp
00000584 l     F .text	00000080 chk_chr
00000604 l     F .text	00000160 move_window
00000764 l     F .text	00000280 sync
00001098 l     F .text	00000114 remove_chain
000011ac l     F .text	00000210 create_chain
000013bc l     F .text	000001fc dir_sdi
000015b8 l     F .text	00000310 dir_next
0001749c l     O .rodata	0000000d LfnOfs
000018c8 l     F .text	000001b0 cmp_lfn
00001a78 l     F .text	00000188 pick_lfn
00001c00 l     F .text	00000190 fit_lfn
00001fe0 l     F .text	00000084 sum_sfn
00002064 l     F .text	00000258 dir_find
000022bc l     F .text	00000214 dir_read
000024d0 l     F .text	000003cc dir_register
0000289c l     F .text	0000010c dir_remove
000029a8 l     F .text	000006f8 create_name
000030a0 l     F .text	000003e4 get_fileinfo
00003484 l     F .text	000001d4 follow_path
00003658 l     F .text	000001d0 check_fs
00003828 l     F .text	00000b18 chk_mounted
0004ae70 l     O .bss	00000004 FatFs
0004ae74 l     O .bss	00000002 Fsid
00004340 l     F .text	000000a4 validate
0004aedc l     O .bss	00000200 LfnBuf
00000000 l    df *ABS*	00000000 mmcbb.c
0004ae24 l     O .rwdata	00000001 Stat
00006f78 l     F .text	00000064 xmit_mmc
00006fdc l     F .text	00000064 rcvr_mmc
00007040 l     F .text	00000070 wait_ready
000070b0 l     F .text	00000034 deselect
000070e4 l     F .text	00000058 select
0000713c l     F .text	00000064 rcvr_datablock
000071a0 l     F .text	000000ac xmit_datablock
0000724c l     F .text	0000017c send_cmd
0004ae78 l     O .bss	00000001 CardType
00000000 l    df *ABS*	00000000 cc932.c
000174c0 l     O .rodata	00007378 uni2sjis
0001e838 l     O .rodata	00007378 sjis2uni
00025bb0 l     O .rodata	000001e0 tbl_upper.1558
00025d90 l     O .rodata	000001e0 tbl_lower.1557
00000000 l    df *ABS*	00000000 gettime.c
00000000 l    df *ABS*	00000000 mmc_spi.c
0004ae80 l     O .bss	00000004 mmc_spi_ncs
0004ae7c l     O .bss	00000004 mmc_spi_reg
00000000 l    df *ABS*	00000000 mmcfs.c
0004ae84 l     O .bss	00000004 dev_mmcfs_fd_num
0004b0dc l     O .bss	00000040 dev_mmcfs_fd
0004b11c l     O .bss	00002240 dev_mmcfs_table
00049244 l     O .rwdata	00000028 dev_mmcfs_inst
0004d35c l     O .bss	00000230 dev_mmc_fatfsobj
00000000 l    df *ABS*	00000000 fontx_k12x10.c
00000000 l    df *ABS*	00000000 fontx_k6x10.c
00000000 l    df *ABS*	00000000 nd_egl.c
0004ae88 l     O .bss	00000004 nd_color
0004ae8c l     O .bss	00000004 nd_bgcolor
0004ae90 l     O .bss	00000004 nd_pastel
0000966c l     F .text	00000180 nd_GsEglFontx_putkanji
000097ec l     F .text	00000070 nd_GsEglFontx_ascii
0004ae98 l     O .bss	00000004 pFONTX_ascii_top
0004ae94 l     O .bss	00000004 pFONTX_kanji_top
00000000 l    df *ABS*	00000000 fclose.c
00000000 l    df *ABS*	00000000 fflush.c
00000000 l    df *ABS*	00000000 findfp.c
0000a1f0 l     F .text	00000058 std
0000a2fc l     F .text	00000008 __fp_lock
0000a304 l     F .text	00000008 __fp_unlock
00000000 l    df *ABS*	00000000 fopen.c
00000000 l    df *ABS*	00000000 fread.c
00000000 l    df *ABS*	00000000 mallocr.c
00000000 l    df *ABS*	00000000 fseek.c
00000000 l    df *ABS*	00000000 fstatr.c
00000000 l    df *ABS*	00000000 fwalk.c
00000000 l    df *ABS*	00000000 impure.c
0004926c l     O .rwdata	00000400 impure_data
00000000 l    df *ABS*	00000000 int_errno.c
00000000 l    df *ABS*	00000000 makebuf.c
00000000 l    df *ABS*	00000000 malloc.c
00000000 l    df *ABS*	00000000 mallocr.c
00000000 l    df *ABS*	00000000 memcpy.c
00000000 l    df *ABS*	00000000 memset.c
00000000 l    df *ABS*	00000000 openr.c
00000000 l    df *ABS*	00000000 printf.c
00000000 l    df *ABS*	00000000 puts.c
00000000 l    df *ABS*	00000000 refill.c
0000c02c l     F .text	0000001c lflush
00000000 l    df *ABS*	00000000 sbrkr.c
00000000 l    df *ABS*	00000000 stdio.c
00000000 l    df *ABS*	00000000 strlen.c
00000000 l    df *ABS*	00000000 vfprintf.c
0000c278 l     F .text	00000058 __sprint_r
00048f6e l     O .rodata	00000010 blanks.3452
00048f5e l     O .rodata	00000010 zeroes.3453
00000000 l    df *ABS*	00000000 writer.c
00000000 l    df *ABS*	00000000 wsetup.c
00000000 l    df *ABS*	00000000 closer.c
00000000 l    df *ABS*	00000000 dtoa.c
0000e3c4 l     F .text	00000218 quorem
00000000 l    df *ABS*	00000000 flags.c
00000000 l    df *ABS*	00000000 fvwrite.c
00000000 l    df *ABS*	00000000 isattyr.c
00000000 l    df *ABS*	00000000 locale.c
0004ae3c l     O .rwdata	00000004 charset
00048fa0 l     O .rodata	00000030 lconv
00000000 l    df *ABS*	00000000 lseekr.c
00000000 l    df *ABS*	00000000 memchr.c
00000000 l    df *ABS*	00000000 memmove.c
00000000 l    df *ABS*	00000000 mprec.c
000490e8 l     O .rodata	0000000c p05.2458
00000000 l    df *ABS*	00000000 readr.c
00000000 l    df *ABS*	00000000 mallocr.c
00000000 l    df *ABS*	00000000 s_isinfd.c
00000000 l    df *ABS*	00000000 s_isnand.c
00000000 l    df *ABS*	00000000 strcmp.c
00000000 l    df *ABS*	00000000 mallocr.c
00000000 l    df *ABS*	00000000 libgcc2.c
00000000 l    df *ABS*	00000000 libgcc2.c
00000000 l    df *ABS*	00000000 dp-bit.c
00012808 l     F .text	00000410 _fpadd_parts
00000000 l    df *ABS*	00000000 dp-bit.c
00000000 l    df *ABS*	00000000 dp-bit.c
00000000 l    df *ABS*	00000000 dp-bit.c
00000000 l    df *ABS*	00000000 dp-bit.c
00000000 l    df *ABS*	00000000 dp-bit.c
00000000 l    df *ABS*	00000000 dp-bit.c
00000000 l    df *ABS*	00000000 dp-bit.c
00000000 l    df *ABS*	00000000 dp-bit.c
00000000 l    df *ABS*	00000000 dp-bit.c
00000000 l    df *ABS*	00000000 dp-bit.c
00000000 l    df *ABS*	00000000 dp-bit.c
00000000 l    df *ABS*	00000000 lib2-divmod.c
00013934 l     F .text	0000007c udivmodsi4
00000000 l    df *ABS*	00000000 libgcc2.c
00000000 l    df *ABS*	00000000 libgcc2.c
00000000 l    df *ABS*	00000000 libgcc2.c
00000000 l    df *ABS*	00000000 dp-bit.c
00000000 l    df *ABS*	00000000 dp-bit.c
00000000 l    df *ABS*	00000000 dp-bit.c
00000000 l    df *ABS*	00000000 alt_close.c
00000000 l    df *ABS*	00000000 alt_dcache_flush.c
00000000 l    df *ABS*	00000000 alt_dev.c
000141c4 l     F .text	00000008 alt_dev_null_write
00000000 l    df *ABS*	00000000 alt_errno.c
00000000 l    df *ABS*	00000000 alt_fs_reg.c
00000000 l    df *ABS*	00000000 alt_fstat.c
00000000 l    df *ABS*	00000000 alt_isatty.c
00000000 l    df *ABS*	00000000 alt_lseek.c
00000000 l    df *ABS*	00000000 alt_main.c
00000000 l    df *ABS*	00000000 alt_malloc_lock.c
00000000 l    df *ABS*	00000000 alt_open.c
00000000 l    df *ABS*	00000000 alt_read.c
00000000 l    df *ABS*	00000000 alt_release_fd.c
00000000 l    df *ABS*	00000000 alt_sbrk.c
0004ae58 l     O .rwdata	00000004 heap_end
00000000 l    df *ABS*	00000000 alt_usleep.c
00000000 l    df *ABS*	00000000 alt_write.c
00000000 l    df *ABS*	00000000 alt_sys_init.c
00049c28 l     O .rwdata	000000d8 ext_flash
00049d00 l     O .rwdata	00001060 jtag_uart
0004ad60 l     O .rwdata	000000c4 sysuart
00000000 l    df *ABS*	00000000 altera_avalon_cfi_flash.c
00000000 l    df *ABS*	00000000 altera_avalon_cfi_flash_table.c
00014f5c l     F .text	00000060 alt_read_16bit_query_entry
00000000 l    df *ABS*	00000000 altera_avalon_jtag_uart_fd.c
00000000 l    df *ABS*	00000000 altera_avalon_jtag_uart_init.c
000158e4 l     F .text	00000058 altera_avalon_jtag_uart_timeout
000159bc l     F .text	00000108 altera_avalon_jtag_uart_irq
00000000 l    df *ABS*	00000000 altera_avalon_jtag_uart_ioctl.c
00000000 l    df *ABS*	00000000 altera_avalon_jtag_uart_read.c
00000000 l    df *ABS*	00000000 altera_avalon_jtag_uart_write.c
00000000 l    df *ABS*	00000000 altera_avalon_timer_sc.c
00015e84 l     F .text	0000003c alt_avalon_timer_sc_irq
00000000 l    df *ABS*	00000000 altera_avalon_uart_fd.c
00000000 l    df *ABS*	00000000 altera_avalon_uart_init.c
00015f18 l     F .text	00000144 altera_avalon_uart_irq
00000000 l    df *ABS*	00000000 altera_avalon_uart_read.c
00000000 l    df *ABS*	00000000 altera_avalon_uart_write.c
00000000 l    df *ABS*	00000000 alt_alarm_start.c
00000000 l    df *ABS*	00000000 alt_busy_sleep.c
00000000 l    df *ABS*	00000000 alt_dev_llist_insert.c
00000000 l    df *ABS*	00000000 alt_do_ctors.c
00000000 l    df *ABS*	00000000 alt_do_dtors.c
00000000 l    df *ABS*	00000000 alt_find_dev.c
00000000 l    df *ABS*	00000000 alt_find_file.c
00000000 l    df *ABS*	00000000 alt_flash_dev.c
00000000 l    df *ABS*	00000000 alt_get_fd.c
00000000 l    df *ABS*	00000000 alt_iic.c
00000000 l    df *ABS*	00000000 alt_iic_isr_register.c
00000000 l    df *ABS*	00000000 alt_io_redirect.c
0001684c l     F .text	00000070 alt_open_fd
00000000 l    df *ABS*	00000000 alt_irq_vars.c
00000000 l    df *ABS*	00000000 alt_tick.c
00000000 l    df *ABS*	00000000 altera_nios2_irq.c
00000000 l    df *ABS*	00000000 altera_avalon_cfi_flash_amd.c
00016be0 l     F .text	00000148 alt_write_word_amd
00000000 l    df *ABS*	00000000 altera_avalon_cfi_flash_intel.c
00016d28 l     F .text	000000f8 alt_unlock_block_intel
00016fa8 l     F .text	000000a0 alt_write_word_intel
00000000 l    df *ABS*	00000000 atexit.c
00000000 l    df *ABS*	00000000 exit.c
00000000 l    df *ABS*	00000000 memcmp.c
00000000 l    df *ABS*	00000000 __atexit.c
00000000 l    df *ABS*	00000000 __call_atexit.c
0001723c l     F .text	00000004 register_fini
00000000 l    df *ABS*	00000000 alt_exit.c
00010848 g     F .text	00000094 _mprec_log10
00010934 g     F .text	00000088 __any_on
000100cc g     F .text	00000070 _isatty_r
000490c0 g     O .rodata	00000028 __mprec_tinytens
000143b4 g     F .text	00000060 alt_main
0000bdb4 g     F .text	000000a0 _puts_r
00015380 g     F .text	0000001c alt_read_query_entry_32bit
0004d5b4 g     O .bss	00000100 alt_irq
00010200 g     F .text	00000078 _lseek_r
00000a58 g     F .text	000002b4 get_fat
00007e7c g     F .text	0000003c mmc_spi_SetCardSelect
00014bc4 g     F .text	00000190 alt_flash_cfi_write
0000fb90 g     F .text	000000a0 __sflags
00013328 g     F .text	00000088 __eqdf2
0004d844 g       *ABS*	00000000 __alt_heap_start
00008ac0 g     F .text	0000003c nd_GsVgaSetBuffer
0000bd3c g     F .text	00000044 printf
0000c0c0 g     F .text	00000068 __sseek
0000a258 g     F .text	000000a4 __sinit
00010160 g     F .text	00000084 _setlocale_r
0000a358 g     F .text	00000068 __sfmoreglue
00014418 g     F .text	00000004 __malloc_unlock
0001035c g     F .text	000000e0 memmove
00008580 g     F .text	000000ac dev_mmcfs_close
0000a348 g     F .text	00000010 _cleanup
000109bc g     F .text	000000bc _Balloc
00008c20 g     F .text	00000050 nd_GsEglPage
00013438 g     F .text	00000088 __gtdf2
00000000  w      *UND*	00000000 __errno
000153c8 g     F .text	00000018 alt_write_flash_command_32bit_device_16bit_mode
0f000000 g     F .entry	00000000 __reset
0000871c g     F .text	000000ec dev_mmcfs_lseek
0000b09c g     F .text	00000074 _fstat_r
00014938 g     F .text	000001c8 alt_flash_program_block
0004aea8 g     O .bss	00000004 errno
00007eb8 g     F .text	00000040 mmc_spi_SetCardDeselect
0004aec8 g     O .bss	00000004 alt_argv
00052e24 g       *ABS*	00000000 _gp
00014730 g     F .text	00000004 usleep
0000985c g     F .text	000001ac nd_GsEglPutcharFont
00007d8c g     F .text	000000d0 ff_wtoupper
000089dc g     F .text	00000050 nd_GsVgaVsync_isrdisable
00009db0 g     F .text	00000068 nd_GsEglPuthex2
00049aa8 g     O .rwdata	00000180 alt_fd_list
00016524 g     F .text	00000094 alt_find_dev
0000bb8c g     F .text	000000a0 memcpy
00008234 g     F .text	00000030 mmc_spi_SetIdentClock
0000a33c g     F .text	0000000c _cleanup_r
000135d0 g     F .text	000000f8 __floatsidf
000141cc g     F .text	00000038 alt_fs_reg
000168bc g     F .text	0000008c alt_io_redirect
00013548 g     F .text	00000088 __ltdf2
00017408 g       *ABS*	00000000 __DTOR_END__
00008198 g     F .text	00000044 mmc_spi_CheckCardDetect
000074a8 g     F .text	000002b0 disk_initialize
0000be54 g     F .text	00000014 puts
00016a3c g     F .text	00000008 altera_nios2_irq_init
00010798 g     F .text	000000b0 __ratio
00006c64 g     F .text	00000314 f_rename
00015b4c g     F .text	0000016c altera_avalon_jtag_uart_read
0000b438 g     F .text	00000014 malloc
0000bd80 g     F .text	00000034 _printf_r
00013a70 g     F .text	00000008 __udivsi3
00014294 g     F .text	00000084 isatty
00048fd0 g     O .rodata	000000c8 __mprec_tens
0001013c g     F .text	00000008 __locale_charset
00025f78 g     O .rodata	0002216a fontx_k12x10_fnt
0004aeac g     O .bss	00000004 __malloc_top_pad
000073c8 g     F .text	000000e0 disk_status
000061fc g     F .text	000001e4 f_truncate
0004ae38 g     O .rwdata	00000004 __mb_cur_max
00010144 g     F .text	0000000c _localeconv_r
000110b4 g     F .text	0000003c __i2b
0000fc30 g     F .text	0000049c __sfvwrite_r
0000c048 g     F .text	00000070 _sbrk_r
0004ae9c g     O .bss	00000004 nd_GsVgaVsyncCount
00016f24 g     F .text	00000084 alt_program_intel
00011430 g     F .text	00000078 _read_r
0001419c g     F .text	00000028 alt_dcache_flush
00007a34 g     F .text	000001ec disk_ioctl
00049a74 g     O .rwdata	0000000c __lc_ctype
0004ae50 g     O .rwdata	00000004 alt_max_fd
00015354 g     F .text	00000014 alt_read_query_entry_8bit
00013eac g     F .text	00000138 __unpack_d
00009e9c g     F .text	00000110 _fclose_r
00016e20 g     F .text	00000104 alt_erase_block_intel
0000a1bc g     F .text	00000034 fflush
0004aeb0 g     O .bss	00000004 __malloc_max_sbrked_mem
00007f4c g     F .text	00000070 mmc_spi_Recvbyte
00012c98 g     F .text	00000074 __adddf3
00009a08 g     F .text	000000f4 nd_GsEglPutstrFont
00001d90 g     F .text	00000250 gen_numname
00010678 g     F .text	00000120 __b2d
00012258 g     F .text	000005b0 __umoddi3
00014318 g     F .text	0000009c lseek
0004ae2c g     O .rwdata	00000004 _global_impure_ptr
000114a8 g     F .text	000005f4 _realloc_r
0004d844 g       *ABS*	00000000 __bss_end
000167c4 g     F .text	00000088 alt_iic_isr_register
0001697c g     F .text	000000c0 alt_tick
00009c94 g     F .text	0000011c nd_GsEglPutdec
00011c7c g     F .text	000005dc __udivdi3
00049098 g     O .rodata	00000028 __mprec_bigtens
00011310 g     F .text	00000120 __s2b
000137a0 g     F .text	00000194 __floatunsidf
00010598 g     F .text	00000060 __mcmp
0001605c g     F .text	00000040 altera_avalon_uart_init
0000a324 g     F .text	00000018 __fp_lock_all
000063e0 g     F .text	0000022c f_unlink
00016728 g     F .text	00000018 alt_ic_irq_enabled
00008afc g     F .text	00000034 nd_GsVgaInit
00009afc g     F .text	00000034 nd_GsEglSetFont
00016948 g     F .text	00000034 alt_alarm_stop
0004aea0 g     O .bss	00000004 nd_GsEglDrawBuffer
0004aed0 g     O .bss	00000004 alt_irq_active
000000ec g     F .exceptions	00000098 alt_irq_handler
00049a80 g     O .rwdata	00000028 alt_dev_null
00014eec g     F .text	00000070 alt_set_flash_algorithm_func
00008c70 g     F .text	00000040 nd_GsEglColor
00010464 g     F .text	00000070 __hi0bits
00008a74 g     F .text	0000004c nd_GsVgaScanOff
000136c8 g     F .text	000000d8 __fixdfsi
00015440 g     F .text	00000010 alt_write_flash_command_8bit_device_8bit_mode
000083a8 g     F .text	000001d8 dev_mmcfs_open
0004ae48 g     O .rwdata	00000008 alt_dev_list
00014734 g     F .text	00000118 write
00014204 g     F .text	00000090 fstat
00008a2c g     F .text	00000048 nd_GsVgaScanOn
00014fbc g     F .text	0000009c alt_check_primary_table
000111f0 g     F .text	00000120 __pow5mult
0004aeb8 g     O .bss	00000004 __nlocale_changed
00013a78 g     F .text	00000008 __umodsi3
00014b98 g     F .text	0000002c alt_flash_cfi_read
000153f4 g     F .text	0000000c alt_write_native_8bit
0004d844 g       *ABS*	00000000 end
00015418 g     F .text	00000028 alt_write_flash_command_16bit_device_8bit_mode
000161dc g     F .text	00000138 altera_avalon_uart_write
0000b078 g     F .text	00000024 fseek
00015058 g     F .text	000002fc alt_read_cfi_table
0001593c g     F .text	00000080 altera_avalon_jtag_uart_init
00017404 g       *ABS*	00000000 __CTOR_LIST__
00800000 g       *ABS*	00000000 __alt_stack_pointer
00015e34 g     F .text	00000050 alt_avalon_timer_sc_init
00015ed0 g     F .text	00000010 altera_avalon_uart_write_fd
00013b18 g     F .text	00000080 __clzsi2
00015ec0 g     F .text	00000010 altera_avalon_uart_close_fd
00015cb8 g     F .text	0000017c altera_avalon_jtag_uart_write
00014d54 g     F .text	00000068 alt_flash_cfi_init
0000a248 g     F .text	00000004 __sfp_lock_acquire
00010278 g     F .text	000000e4 memchr
0000c2d0 g     F .text	00001eac ___vfprintf_internal_r
0000a928 g     F .text	00000314 _free_r
00017240 g     F .text	000001b0 __call_exitprocs
0004aebc g     O .bss	00000004 __mlocale_changed
0000567c g     F .text	0000004c f_close
0004ae34 g     O .rwdata	00000004 __malloc_sbrk_base
00000184 g     F .text	00000048 _start
0004aed4 g     O .bss	00000004 _alt_tick_rate
00008918 g     F .text	0000006c nd_GsVgaVsync_isr
00010d80 g     F .text	0000014c __lshift
0004aed8 g     O .bss	00000004 _alt_nticks
0001459c g     F .text	0000011c read
0001486c g     F .text	00000094 alt_sys_init
0000bcc4 g     F .text	00000078 _open_r
00017108 g     F .text	00000134 __register_exitproc
00004940 g     F .text	0000050c f_read
00009e18 g     F .text	00000084 nd_GsEglPuthex8
00015368 g     F .text	00000018 alt_read_query_entry_16bit
00010ecc g     F .text	000001e8 __multiply
00005d68 g     F .text	000000f8 f_readdir
000158b0 g     F .text	00000034 altera_avalon_jtag_uart_close
0004d58c g     O .bss	00000028 __malloc_current_mallinfo
00014dbc g     F .text	00000130 alt_set_flash_width_func
00010a78 g     F .text	0000017c __d2b
00048af8 g     O .rodata	00000400 nd_GsEglRomFont
00006a4c g     F .text	00000100 f_chmod
000158a0 g     F .text	00000010 altera_avalon_jtag_uart_read_fd
000166c8 g     F .text	00000060 alt_get_fd
000163a8 g     F .text	00000068 alt_busy_sleep
00013fe4 g     F .text	000000c8 __fpcmp_parts_d
0000e354 g     F .text	00000070 _close_r
00009c0c g     F .text	00000088 nd_GsEglPutstr
00016a44 g     F .text	0000017c alt_erase_block_amd
00017094 g     F .text	00000074 memcmp
00015880 g     F .text	00000010 altera_avalon_jtag_uart_close_fd
0004d844 g       *ABS*	00000000 __alt_stack_base
00015874 g     F .text	0000000c altera_avalon_jtag_uart_ioctl_fd
0000e218 g     F .text	0000013c __swsetup_r
00015450 g     F .text	00000424 alt_read_cfi_width
000082d4 g     F .text	00000044 mmc_spi_CheckTimer
000130d0 g     F .text	00000258 __divdf3
0000a3c0 g     F .text	000000f0 __sfp
000108dc g     F .text	00000058 __copybits
0004966c g     O .rwdata	00000408 __malloc_av_
0000a254 g     F .text	00000004 __sinit_lock_release
00012d0c g     F .text	000003c4 __muldf3
0000c1a4 g     F .text	00000060 __sread
00007e5c g     F .text	00000020 get_fattime
0000a7bc g     F .text	00000040 fread
000165b8 g     F .text	000000b0 alt_find_file
00016410 g     F .text	0000007c alt_dev_llist_insert
00014414 g     F .text	00000004 __malloc_lock
000146dc g     F .text	00000054 sbrk
00009fc0 g     F .text	000001fc _fflush_r
00011bc8 g     F .text	000000b4 _calloc_r
0004ae5c g     O .rwdata	00000008 alt_flash_dev_list
000001cc g     F .text	00000010 nd_halt
000153e0 g     F .text	00000014 alt_write_flash_command_16bit_device_16bit_mode
0000a5a4 g     F .text	0000001c fopen
0004ae70 g       *ABS*	00000000 __bss_start
0000bc2c g     F .text	00000098 memset
000001dc g     F .text	0000021c main
0004aecc g     O .bss	00000004 alt_envp
0004aeb4 g     O .bss	00000004 __malloc_max_total_mem
00015890 g     F .text	00000010 altera_avalon_jtag_uart_write_fd
000053f0 g     F .text	0000028c f_sync
0000a5c0 g     F .text	000001fc _fread_r
0000c0b8 g     F .text	00000008 __sclose
00800000 g       *ABS*	00000000 __alt_heap_limit
00009fac g     F .text	00000014 fclose
0004d6b4 g     O .bss	00000190 _atexit0
0000e5dc g     F .text	000015b4 _dtoa_r
0000b44c g     F .text	00000740 _malloc_r
0004ae54 g     O .rwdata	00000004 alt_errno
000043e4 g     F .text	000000a4 f_mount
000153a4 g     F .text	00000018 alt_write_flash_command_32bit_device_32bit_mode
0000b1d8 g     F .text	000000b8 _fwalk
00005be0 g     F .text	00000188 f_opendir
00014b00 g     F .text	00000098 alt_write_value_to_flash
000153bc g     F .text	0000000c alt_write_native_16bit
000139b0 g     F .text	00000060 __divsi3
0000835c g     F .text	0000004c mmc_spi_InitSocket
000490f4 g     O .rodata	00000014 __thenan_df
0000a7fc g     F .text	0000012c _malloc_trim_r
000086a4 g     F .text	00000078 dev_mmcfs_write
00008318 g     F .text	00000044 mmc_spi_Wait100us
00017408 g       *ABS*	00000000 __CTOR_END__
00011b0c g     F .text	000000bc strcmp
000091b8 g     F .text	00000230 nd_GsEglCircle
00017408 g       *ABS*	00000000 __DTOR_LIST__
00009b30 g     F .text	000000dc nd_GsEglPutchar
00000d0c g     F .text	0000038c put_fat
000133b0 g     F .text	00000088 __nedf2
00008984 g     F .text	00000058 nd_GsVgaVsync_isrenable
0001484c g     F .text	00000020 alt_irq_init
000146b8 g     F .text	00000024 alt_release_fd
000056c8 g     F .text	00000518 f_lseek
00049108 g     O .rodata	00000100 __clz_tab
0004aec0 g     O .bss	00000004 _PathLocale
00017048 g     F .text	00000014 atexit
0000e1a0 g     F .text	00000078 _write_r
000101e4 g     F .text	0000001c setlocale
000480e4 g     O .rodata	00000a11 fontx_k6x10_fnt
00007ef8 g     F .text	00000054 mmc_spi_Sendbyte
0004ae28 g     O .rwdata	00000004 _impure_ptr
0004aec4 g     O .bss	00000004 alt_argc
000164d8 g     F .text	0000004c _do_dtors
00008b78 g     F .text	00000054 nd_GsVgaVsync_getcount
0000ac3c g     F .text	0000043c _fseek_r
0000be68 g     F .text	000001c4 __srefill_r
00000020 g       .exceptions	00000000 alt_irq_entry
000105f8 g     F .text	00000080 __ulp
00011a9c g     F .text	00000040 __isinfd
00005e60 g     F .text	000000a4 f_stat
0000a30c g     F .text	00000018 __fp_unlock_all
0004ae40 g     O .rwdata	00000008 alt_fs_list
00015400 g     F .text	00000018 alt_write_flash_command_32bit_device_8bit_mode
00010150 g     F .text	00000010 localeconv
000009e4 g     F .text	00000074 clust2sect
000093e8 g     F .text	00000284 nd_GsEglLine
000167c0 g     F .text	00000004 alt_ic_isr_register
0004ae70 g       *ABS*	00000000 _edata
00006b4c g     F .text	00000118 f_utime
00015ee0 g     F .text	00000010 altera_avalon_uart_read_fd
0004d844 g       *ABS*	00000000 _end
0001667c g     F .text	0000004c alt_flash_open_dev
00004e4c g     F .text	000005a4 f_write
00015ac4 g     F .text	00000088 altera_avalon_jtag_uart_ioctl
00007fbc g     F .text	000001dc mmc_spi_DmaRecv
00016780 g     F .text	00000040 alt_ic_irq_disable
0000c128 g     F .text	0000007c __swrite
0004ae30 g     O .rwdata	00000004 __malloc_trim_threshold
00004488 g     F .text	000004b8 f_open
000078a0 g     F .text	00000194 disk_write
0001705c g     F .text	00000038 exit
0000b110 g     F .text	000000c8 _fwalk_reent
00010bf4 g     F .text	0000018c __mdiff
00016668 g     F .text	00000014 alt_flash_close_dev
00008bcc g     F .text	00000054 nd_GsVgaVsync_setcount
00008cb0 g     F .text	000001d0 nd_GsEglPset
00013a10 g     F .text	00000060 __modsi3
00800000 g       *ABS*	00000000 __alt_data_end
00000020 g     F .exceptions	00000000 alt_exception
0000a24c g     F .text	00000004 __sfp_lock_release
00000000 g       *ABS*	00000000 __alt_mem_sdram
0000862c g     F .text	00000078 dev_mmcfs_read
04000000 g       *ABS*	00000000 __alt_mem_ext_flash
0000887c g     F .text	0000009c mmcfs_setup
0000660c g     F .text	00000440 f_mkdir
00015ef0 g     F .text	00000028 altera_avalon_uart_close
0000a4b0 g     F .text	000000f4 _fopen_r
000173f0 g     F .text	00000014 _exit
00011adc g     F .text	00000030 __isnand
00016314 g     F .text	00000094 alt_alarm_start
0f000000 g       *ABS*	00000000 __alt_mem_ipl_memory
00013a80 g     F .text	00000098 __muldi3
0000b290 g     F .text	00000194 __smakebuf_r
0001539c g     F .text	00000008 alt_write_native_32bit
0000c204 g     F .text	00000074 strlen
00007758 g     F .text	00000148 disk_read
0001441c g     F .text	00000180 open
000134c0 g     F .text	00000088 __gedf2
00014900 g     F .text	00000038 alt_flash_cfi_get_info
00005f04 g     F .text	000002f8 f_getfree
00007c20 g     F .text	0000016c ff_convert
000081dc g     F .text	00000058 mmc_spi_CheckWritePortect
0004ae64 g     O .rwdata	00000004 alt_priority_mask
00009124 g     F .text	00000094 nd_GsEglBox
00016740 g     F .text	00000040 alt_ic_irq_enable
0000e17c g     F .text	00000024 __vfprintf_internal
00008b30 g     F .text	00000048 nd_GsVgaWaitVsync
0001609c g     F .text	00000140 altera_avalon_uart_read
00008264 g     F .text	00000030 mmc_spi_SetTransClock
00008808 g     F .text	00000074 dev_mmcfs_fstat
00012c18 g     F .text	00000080 __subdf3
00008294 g     F .text	00000040 mmc_spi_SetTimer
000104d4 g     F .text	000000c4 __lo0bits
00008e80 g     F .text	000002a4 nd_GsEglBoxfill
0004ae68 g     O .rwdata	00000008 alt_alarm_list
0001648c g     F .text	0000004c _do_ctors
0004aea4 g     O .bss	00000004 nd_GsVgaVsyncFlag
000140ac g     F .text	000000f0 close
00016bc0 g     F .text	00000020 alt_program_amd
00013b98 g     F .text	00000314 __pack_d
0000b424 g     F .text	00000014 free
0000a250 g     F .text	00000004 __sinit_lock_acquire
000110f0 g     F .text	00000100 __multadd
0001043c g     F .text	00000028 _Bfree



Disassembly of section .exceptions:

00000020 <alt_exception>:
         * Process an exception.  For all exceptions we must preserve all
         * caller saved registers on the stack (See the Nios2 ABI
         * documentation for details).
         */

        addi  sp, sp, -76
  20:	deffed04 	addi	sp,sp,-76

#endif

#endif

        stw   ra,  0(sp)
  24:	dfc00015 	stw	ra,0(sp)
        /*
         * Leave a gap in the stack frame at 4(sp) for the muldiv handler to
         * store zero into.
         */

        stw   r1,   8(sp)
  28:	d8400215 	stw	at,8(sp)
        stw   r2,  12(sp)
  2c:	d8800315 	stw	r2,12(sp)
        stw   r3,  16(sp)
  30:	d8c00415 	stw	r3,16(sp)
        stw   r4,  20(sp)
  34:	d9000515 	stw	r4,20(sp)
        stw   r5,  24(sp)
  38:	d9400615 	stw	r5,24(sp)
        stw   r6,  28(sp)
  3c:	d9800715 	stw	r6,28(sp)
        stw   r7,  32(sp)
  40:	d9c00815 	stw	r7,32(sp)

        rdctl r5, estatus
  44:	000b307a 	rdctl	r5,estatus

        stw   r8,  36(sp)
  48:	da000915 	stw	r8,36(sp)
        stw   r9,  40(sp)
  4c:	da400a15 	stw	r9,40(sp)
        stw   r10, 44(sp)
  50:	da800b15 	stw	r10,44(sp)
        stw   r11, 48(sp)
  54:	dac00c15 	stw	r11,48(sp)
        stw   r12, 52(sp)
  58:	db000d15 	stw	r12,52(sp)
        stw   r13, 56(sp)
  5c:	db400e15 	stw	r13,56(sp)
        stw   r14, 60(sp)
  60:	db800f15 	stw	r14,60(sp)
        stw   r15, 64(sp)
  64:	dbc01015 	stw	r15,64(sp)
        /*
         * ea-4 contains the address of the instruction being executed
         * when the exception occured. For interrupt exceptions, we will
         * will be re-issue the isntruction. Store it in 72(sp)
         */
        stw   r5,  68(sp)  /* estatus */
  68:	d9401115 	stw	r5,68(sp)
        addi  r15, ea, -4  /* instruction that caused exception */
  6c:	ebffff04 	addi	r15,ea,-4
        stw   r15,  72(sp)
  70:	dbc01215 	stw	r15,72(sp)
#else
        /*
         * Test to see if the exception was a software exception or caused 
         * by an external interrupt, and vector accordingly.
         */
        rdctl r4, ipending
  74:	0009313a 	rdctl	r4,ipending
        andi  r2, r5, 1
  78:	2880004c 	andi	r2,r5,1
        beq   r2, zero, .Lnot_irq
  7c:	10000326 	beq	r2,zero,8c <alt_exception+0x6c>
        beq   r4, zero, .Lnot_irq
  80:	20000226 	beq	r4,zero,8c <alt_exception+0x6c>
        /*
         * Now that all necessary registers have been preserved, call 
         * alt_irq_handler() to process the interrupts.
         */

        call alt_irq_handler
  84:	00000ec0 	call	ec <alt_irq_handler>

        .section .exceptions.irqreturn, "xa"

        br    .Lexception_exit
  88:	00000306 	br	98 <alt_exception+0x78>
         * upon completion, so we write ea (address of instruction *after*
         * the one where the exception occured) into 72(sp). The actual
         * instruction that caused the exception is written in r2, which these
         * handlers will utilize.
         */
        stw   ea,  72(sp)  /* Don't re-issue */
  8c:	df401215 	stw	ea,72(sp)
        ldw   r2, -4(ea)   /* Instruction that caused exception */
  90:	e8bfff17 	ldw	r2,-4(ea)
#ifdef NIOS2_HAS_DEBUG_STUB
       /*
        *  Either tell the user now (if there is a debugger attached) or go into
        *  the debug monitor which will loop until a debugger is attached.
        */
        break
  94:	003da03a 	break	0
        /* 
         * Restore the saved registers, so that all general purpose registers 
         * have been restored to their state at the time the interrupt occured.
         */

        ldw   r5,  68(sp)
  98:	d9401117 	ldw	r5,68(sp)
        ldw   ea,  72(sp)  /* This becomes the PC once eret is executed */
  9c:	df401217 	ldw	ea,72(sp)
        ldw   ra,   0(sp)
  a0:	dfc00017 	ldw	ra,0(sp)

        wrctl estatus, r5
  a4:	2801707a 	wrctl	estatus,r5

        ldw   r1,   8(sp)
  a8:	d8400217 	ldw	at,8(sp)
        ldw   r2,  12(sp)
  ac:	d8800317 	ldw	r2,12(sp)
        ldw   r3,  16(sp)
  b0:	d8c00417 	ldw	r3,16(sp)
        ldw   r4,  20(sp)
  b4:	d9000517 	ldw	r4,20(sp)
        ldw   r5,  24(sp)
  b8:	d9400617 	ldw	r5,24(sp)
        ldw   r6,  28(sp)
  bc:	d9800717 	ldw	r6,28(sp)
        ldw   r7,  32(sp)
  c0:	d9c00817 	ldw	r7,32(sp)
#ifdef ALT_STACK_CHECK
        ldw   et, %gprel(alt_exception_old_stack_limit)(gp)
#endif
#endif

        ldw   r8,  36(sp)
  c4:	da000917 	ldw	r8,36(sp)
        ldw   r9,  40(sp)
  c8:	da400a17 	ldw	r9,40(sp)
        ldw   r10, 44(sp)
  cc:	da800b17 	ldw	r10,44(sp)
        ldw   r11, 48(sp)
  d0:	dac00c17 	ldw	r11,48(sp)
        ldw   r12, 52(sp)
  d4:	db000d17 	ldw	r12,52(sp)
        ldw   r13, 56(sp)
  d8:	db400e17 	ldw	r13,56(sp)
        ldw   r14, 60(sp)
  dc:	db800f17 	ldw	r14,60(sp)
        ldw   r15, 64(sp)
  e0:	dbc01017 	ldw	r15,64(sp)
#endif

        ldw   sp,  76(sp)

#else
        addi  sp, sp, 76
  e4:	dec01304 	addi	sp,sp,76

        /*
         * Return to the interrupted instruction.
         */

        eret
  e8:	ef80083a 	eret

000000ec <alt_irq_handler>:
 * instruction is present if the macro ALT_CI_INTERRUPT_VECTOR defined.
 */

void alt_irq_handler (void) __attribute__ ((section (".exceptions")));
void alt_irq_handler (void)
{
  ec:	defffe04 	addi	sp,sp,-8
  f0:	dfc00115 	stw	ra,4(sp)
  f4:	dc000015 	stw	r16,0(sp)
#ifndef NIOS2_EIC_PRESENT
static ALT_INLINE alt_u32 ALT_ALWAYS_INLINE alt_irq_pending (void)
{
  alt_u32 active;

  NIOS2_READ_IPENDING (active);
  f8:	000b313a 	rdctl	r5,ipending
     * called to clear the interrupt condition.
     */

    do
    {
      if (active & mask)
  fc:	2880004c 	andi	r2,r5,1
 100:	1005003a 	cmpeq	r2,r2,zero
 104:	04000174 	movhi	r16,5
 108:	84356d04 	addi	r16,r16,-10828
 10c:	10001126 	beq	r2,zero,154 <alt_irq_handler+0x68>
 110:	00c00044 	movi	r3,1
 114:	0009883a 	mov	r4,zero
#else
        alt_irq[i].handler(alt_irq[i].context, i); 
#endif
        break;
      }
      mask <<= 1;
 118:	18c7883a 	add	r3,r3,r3
     * called to clear the interrupt condition.
     */

    do
    {
      if (active & mask)
 11c:	28c4703a 	and	r2,r5,r3
        alt_irq[i].handler(alt_irq[i].context, i); 
#endif
        break;
      }
      mask <<= 1;
      i++;
 120:	21000044 	addi	r4,r4,1
     * called to clear the interrupt condition.
     */

    do
    {
      if (active & mask)
 124:	103ffc26 	beq	r2,zero,118 <alt_irq_handler+0x2c>
      { 
#ifdef ALT_ENHANCED_INTERRUPT_API_PRESENT
        alt_irq[i].handler(alt_irq[i].context); 
 128:	200490fa 	slli	r2,r4,3
 12c:	1405883a 	add	r2,r2,r16
 130:	11000117 	ldw	r4,4(r2)
 134:	10c00017 	ldw	r3,0(r2)
 138:	183ee83a 	callr	r3
 13c:	0005313a 	rdctl	r2,ipending

    } while (1);

    active = alt_irq_pending ();
    
  } while (active);
 140:	10000c26 	beq	r2,zero,174 <alt_irq_handler+0x88>
 144:	100b883a 	mov	r5,r2
     * called to clear the interrupt condition.
     */

    do
    {
      if (active & mask)
 148:	2880004c 	andi	r2,r5,1
 14c:	1005003a 	cmpeq	r2,r2,zero
 150:	103fef1e 	bne	r2,zero,110 <alt_irq_handler+0x24>
 154:	0009883a 	mov	r4,zero
      { 
#ifdef ALT_ENHANCED_INTERRUPT_API_PRESENT
        alt_irq[i].handler(alt_irq[i].context); 
 158:	200490fa 	slli	r2,r4,3
 15c:	1405883a 	add	r2,r2,r16
 160:	11000117 	ldw	r4,4(r2)
 164:	10c00017 	ldw	r3,0(r2)
 168:	183ee83a 	callr	r3
 16c:	0005313a 	rdctl	r2,ipending

    } while (1);

    active = alt_irq_pending ();
    
  } while (active);
 170:	103ff41e 	bne	r2,zero,144 <alt_irq_handler+0x58>
  /*
   * Notify the operating system that interrupt processing is complete.
   */ 

  ALT_OS_INT_EXIT();
}
 174:	dfc00117 	ldw	ra,4(sp)
 178:	dc000017 	ldw	r16,0(sp)
 17c:	dec00204 	addi	sp,sp,8
 180:	f800283a 	ret

Disassembly of section .text:

00000184 <_start>:

    /* Assume the data cache size is always a power of two. */
#if NIOS2_DCACHE_SIZE > 0x8000
    movhi r2, %hi(NIOS2_DCACHE_SIZE)
#else
    movui r2, NIOS2_DCACHE_SIZE
     184:	00880014 	movui	r2,8192
#endif

0:
    initd 0(r2)
     188:	10000033 	initd	0(r2)
    addi r2, r2, -NIOS2_DCACHE_LINE_SIZE
     18c:	10bff804 	addi	r2,r2,-32
    bgt r2, zero, 0b
     190:	00bffd16 	blt	zero,r2,188 <_start+0x4>
#if (NIOS2_NUM_OF_SHADOW_REG_SETS == 0)    
    /*
     * Now that the caches are initialized, set up the stack pointer.
     * The value provided by the linker is assumed to be correctly aligned.
     */
    movhi sp, %hi(__alt_stack_pointer)
     194:	06c02034 	movhi	sp,128
    ori sp, sp, %lo(__alt_stack_pointer)
     198:	dec00014 	ori	sp,sp,0

    /* Set up the global pointer. */
    movhi gp, %hi(_gp)
     19c:	06800174 	movhi	gp,5
    ori gp, gp, %lo(_gp)
     1a0:	d68b8914 	ori	gp,gp,11812
 */
#ifndef ALT_SIM_OPTIMIZE
    /* Log that the BSS is about to be cleared. */
    ALT_LOG_PUTS(alt_log_msg_bss)

    movhi r2, %hi(__bss_start)
     1a4:	00800134 	movhi	r2,4
    ori r2, r2, %lo(__bss_start)
     1a8:	10ab9c14 	ori	r2,r2,44656

    movhi r3, %hi(__bss_end)
     1ac:	00c00134 	movhi	r3,4
    ori r3, r3, %lo(__bss_end)
     1b0:	18f61114 	ori	r3,r3,55364

    beq r2, r3, 1f
     1b4:	10c00326 	beq	r2,r3,1c4 <_start+0x40>

0:
    stw zero, (r2)
     1b8:	10000015 	stw	zero,0(r2)
    addi r2, r2, 4
     1bc:	10800104 	addi	r2,r2,4
    bltu r2, r3, 0b
     1c0:	10fffd36 	bltu	r2,r3,1b8 <_start+0x34>

    /* Log that alt_main is about to be called. */
    ALT_LOG_PUTS(alt_log_msg_alt_main)

    /* Call the C entry point. It should never return. */
    call alt_main
     1c4:	00143b40 	call	143b4 <alt_main>

000001c8 <alt_after_alt_main>:

    /* Wait in infinite loop in case alt_main does return. */
alt_after_alt_main:
    br alt_after_alt_main
     1c8:	003fff06 	br	1c8 <alt_after_alt_main>

000001cc <nd_halt>:
#include "mmcfs/mmcfs.h"
#include "nd_lib/nd_egl.h"


void nd_halt(void)
{
     1cc:	deffff04 	addi	sp,sp,-4
     1d0:	df000015 	stw	fp,0(sp)
     1d4:	d839883a 	mov	fp,sp
	while(1) {}
     1d8:	003fff06 	br	1d8 <nd_halt+0xc>

000001dc <main>:
}


int main(void)
{
     1dc:	defff904 	addi	sp,sp,-28
     1e0:	dfc00615 	stw	ra,24(sp)
     1e4:	df000515 	stw	fp,20(sp)
     1e8:	df000504 	addi	fp,sp,20
	int i,c,byte;
	alt_u16 *pFrameBuffer;

	// システム初期化 

	nd_GsVgaInit();
     1ec:	0008afc0 	call	8afc <nd_GsVgaInit>

	i = mmcfs_setup();
     1f0:	000887c0 	call	887c <mmcfs_setup>
     1f4:	e0bffe15 	stw	r2,-8(fp)
	printf("mmcfs_setup value = %d\n",i);
     1f8:	01000074 	movhi	r4,1
     1fc:	211d0204 	addi	r4,r4,29704
     200:	e17ffe17 	ldw	r5,-8(fp)
     204:	000bd3c0 	call	bd3c <printf>

	for(i=0,c=0 ; i<10 ; i++) {
     208:	e03ffe15 	stw	zero,-8(fp)
     20c:	e03ffd15 	stw	zero,-12(fp)
     210:	00000e06 	br	24c <main+0x70>
		c = (c << 1) | 1;
     214:	e0bffd17 	ldw	r2,-12(fp)
     218:	1085883a 	add	r2,r2,r2
     21c:	10800054 	ori	r2,r2,1
     220:	e0bffd15 	stw	r2,-12(fp)
		IOWR(LED_BASE, 0, c);
     224:	00c40034 	movhi	r3,4096
     228:	18c08004 	addi	r3,r3,512
     22c:	e0bffd17 	ldw	r2,-12(fp)
     230:	18800035 	stwio	r2,0(r3)
		usleep(200000);
     234:	010000f4 	movhi	r4,3
     238:	21035004 	addi	r4,r4,3392
     23c:	00147300 	call	14730 <usleep>
	nd_GsVgaInit();

	i = mmcfs_setup();
	printf("mmcfs_setup value = %d\n",i);

	for(i=0,c=0 ; i<10 ; i++) {
     240:	e0bffe17 	ldw	r2,-8(fp)
     244:	10800044 	addi	r2,r2,1
     248:	e0bffe15 	stw	r2,-8(fp)
     24c:	e0bffe17 	ldw	r2,-8(fp)
     250:	10800290 	cmplti	r2,r2,10
     254:	103fef1e 	bne	r2,zero,214 <main+0x38>


	// 画像を展開 

//	pFrameBuffer = (alt_u16 *)alt_uncached_malloc(1024*480*2);
	pFrameBuffer = (alt_u16 *)malloc(1024*480*2);
     258:	010003f4 	movhi	r4,15
     25c:	000b4380 	call	b438 <malloc>
     260:	e0bffb15 	stw	r2,-20(fp)
	if (pFrameBuffer != na_null) {
     264:	e0bffb17 	ldw	r2,-20(fp)
     268:	1005003a 	cmpeq	r2,r2,zero
     26c:	1000541e 	bne	r2,zero,3c0 <main+0x1e4>
		printf("Framebuffer assignment = 0x%08X\n",(unsigned int)pFrameBuffer);
     270:	e0bffb17 	ldw	r2,-20(fp)
     274:	100b883a 	mov	r5,r2
     278:	01000074 	movhi	r4,1
     27c:	211d0804 	addi	r4,r4,29728
     280:	000bd3c0 	call	bd3c <printf>

		nd_GsVgaSetBuffer((nd_u32)pFrameBuffer);
     284:	e0bffb17 	ldw	r2,-20(fp)
     288:	1009883a 	mov	r4,r2
     28c:	0008ac00 	call	8ac0 <nd_GsVgaSetBuffer>
        nd_GsEglPage((nd_u32)pFrameBuffer,(nd_u32)pFrameBuffer,0);
     290:	e0bffb17 	ldw	r2,-20(fp)
     294:	1009883a 	mov	r4,r2
     298:	e0bffb17 	ldw	r2,-20(fp)
     29c:	100b883a 	mov	r5,r2
     2a0:	000d883a 	mov	r6,zero
     2a4:	0008c200 	call	8c20 <nd_GsEglPage>

		nd_GsVgaScanOn();
     2a8:	0008a2c0 	call	8a2c <nd_GsVgaScanOn>

		nd_color(nd_COLORWHITE, 0, 256);
     2ac:	011fffc4 	movi	r4,32767
     2b0:	000b883a 	mov	r5,zero
     2b4:	01804004 	movi	r6,256
     2b8:	0008c700 	call	8c70 <nd_GsEglColor>
		nd_boxfill(0, 0, window_xmax, window_ymax);
     2bc:	0009883a 	mov	r4,zero
     2c0:	000b883a 	mov	r5,zero
     2c4:	01809fc4 	movi	r6,639
     2c8:	01c077c4 	movi	r7,479
     2cc:	0008e800 	call	8e80 <nd_GsEglBoxfill>

        nd_color(nd_COLORWHITE, 0, 256);
     2d0:	011fffc4 	movi	r4,32767
     2d4:	000b883a 	mov	r5,zero
     2d8:	01804004 	movi	r6,256
     2dc:	0008c700 	call	8c70 <nd_GsEglColor>
		nd_line(0,0, 0,479);
     2e0:	0009883a 	mov	r4,zero
     2e4:	000b883a 	mov	r5,zero
     2e8:	000d883a 	mov	r6,zero
     2ec:	01c077c4 	movi	r7,479
     2f0:	00093e80 	call	93e8 <nd_GsEglLine>
        nd_color(nd_COLORRED, 0, 256);
     2f4:	011f0004 	movi	r4,31744
     2f8:	000b883a 	mov	r5,zero
     2fc:	01804004 	movi	r6,256
     300:	0008c700 	call	8c70 <nd_GsEglColor>
		nd_line(639,0, 639,479);
     304:	01009fc4 	movi	r4,639
     308:	000b883a 	mov	r5,zero
     30c:	01809fc4 	movi	r6,639
     310:	01c077c4 	movi	r7,479
     314:	00093e80 	call	93e8 <nd_GsEglLine>
        nd_color(nd_COLORLIGHTGREEN, 0, 256);
     318:	0100f804 	movi	r4,992
     31c:	000b883a 	mov	r5,zero
     320:	01804004 	movi	r6,256
     324:	0008c700 	call	8c70 <nd_GsEglColor>
		nd_line(0,0, 639,0);
     328:	0009883a 	mov	r4,zero
     32c:	000b883a 	mov	r5,zero
     330:	01809fc4 	movi	r6,639
     334:	000f883a 	mov	r7,zero
     338:	00093e80 	call	93e8 <nd_GsEglLine>
        nd_color(nd_COLORBLUE, 0, 256);
     33c:	010007c4 	movi	r4,31
     340:	000b883a 	mov	r5,zero
     344:	01804004 	movi	r6,256
     348:	0008c700 	call	8c70 <nd_GsEglColor>
		nd_line(0,479, 639,479);
     34c:	0009883a 	mov	r4,zero
     350:	014077c4 	movi	r5,479
     354:	01809fc4 	movi	r6,639
     358:	01c077c4 	movi	r7,479
     35c:	00093e80 	call	93e8 <nd_GsEglLine>

		if((fp = fopen("mmcfs:/de0/test_vga.bin","rb"))!= NULL) {
     360:	01000074 	movhi	r4,1
     364:	211d1104 	addi	r4,r4,29764
     368:	01400074 	movhi	r5,1
     36c:	295d1704 	addi	r5,r5,29788
     370:	000a5a40 	call	a5a4 <fopen>
     374:	e0bfff15 	stw	r2,-4(fp)
     378:	e0bfff17 	ldw	r2,-4(fp)
     37c:	1005003a 	cmpeq	r2,r2,zero
     380:	10000b1e 	bne	r2,zero,3b0 <main+0x1d4>
			fread(pFrameBuffer, 1, 1024*480*2, fp);
     384:	e13ffb17 	ldw	r4,-20(fp)
     388:	01400044 	movi	r5,1
     38c:	018003f4 	movhi	r6,15
     390:	e1ffff17 	ldw	r7,-4(fp)
     394:	000a7bc0 	call	a7bc <fread>
			fclose(fp);
     398:	e13fff17 	ldw	r4,-4(fp)
     39c:	0009fac0 	call	9fac <fclose>

			alt_dcache_flush(pFrameBuffer, 1024*480*2);
     3a0:	e13ffb17 	ldw	r4,-20(fp)
     3a4:	014003f4 	movhi	r5,15
     3a8:	001419c0 	call	1419c <alt_dcache_flush>
     3ac:	00000706 	br	3cc <main+0x1f0>
		} else {
			printf("[!] File not found.\n");
     3b0:	01000074 	movhi	r4,1
     3b4:	211d1804 	addi	r4,r4,29792
     3b8:	000be540 	call	be54 <puts>
     3bc:	00000306 	br	3cc <main+0x1f0>
		}

//		nd_GsVgaScanOn();
	} else {
		printf("[!] Framebuffer not assignment.\n");
     3c0:	01000074 	movhi	r4,1
     3c4:	211d1d04 	addi	r4,r4,29812
     3c8:	000be540 	call	be54 <puts>


	// ワークエリアを開放する

//	alt_uncached_free(pFrameBuffer);
	free(pFrameBuffer);
     3cc:	e13ffb17 	ldw	r4,-20(fp)
     3d0:	000b4240 	call	b424 <free>


	// 終了 

	printf("done.\n");
     3d4:	01000074 	movhi	r4,1
     3d8:	211d2504 	addi	r4,r4,29844
     3dc:	000be540 	call	be54 <puts>
    nd_halt();
     3e0:	00001cc0 	call	1cc <nd_halt>
}
     3e4:	e037883a 	mov	sp,fp
     3e8:	dfc00117 	ldw	ra,4(sp)
     3ec:	df000017 	ldw	fp,0(sp)
     3f0:	dec00204 	addi	sp,sp,8
     3f4:	f800283a 	ret

000003f8 <mem_cpy>:
/* String functions                                                      */
/*-----------------------------------------------------------------------*/

/* Copy memory to memory */
static
void mem_cpy (void* dst, const void* src, UINT cnt) {
     3f8:	defffa04 	addi	sp,sp,-24
     3fc:	df000515 	stw	fp,20(sp)
     400:	df000504 	addi	fp,sp,20
     404:	e13ffd15 	stw	r4,-12(fp)
     408:	e17ffe15 	stw	r5,-8(fp)
     40c:	e1bfff15 	stw	r6,-4(fp)
	BYTE *d = (BYTE*)dst;
     410:	e0bffd17 	ldw	r2,-12(fp)
     414:	e0bffc15 	stw	r2,-16(fp)
	const BYTE *s = (const BYTE*)src;
     418:	e0bffe17 	ldw	r2,-8(fp)
     41c:	e0bffb15 	stw	r2,-20(fp)
		*(int*)d = *(int*)s;
		d += sizeof(int); s += sizeof(int);
		cnt -= sizeof(int);
	}
#endif
	while (cnt--)
     420:	00000a06 	br	44c <mem_cpy+0x54>
		*d++ = *s++;
     424:	e0bffb17 	ldw	r2,-20(fp)
     428:	10c00003 	ldbu	r3,0(r2)
     42c:	e0bffc17 	ldw	r2,-16(fp)
     430:	10c00005 	stb	r3,0(r2)
     434:	e0bffc17 	ldw	r2,-16(fp)
     438:	10800044 	addi	r2,r2,1
     43c:	e0bffc15 	stw	r2,-16(fp)
     440:	e0bffb17 	ldw	r2,-20(fp)
     444:	10800044 	addi	r2,r2,1
     448:	e0bffb15 	stw	r2,-20(fp)
		*(int*)d = *(int*)s;
		d += sizeof(int); s += sizeof(int);
		cnt -= sizeof(int);
	}
#endif
	while (cnt--)
     44c:	e0bfff17 	ldw	r2,-4(fp)
     450:	10bfffc4 	addi	r2,r2,-1
     454:	e0bfff15 	stw	r2,-4(fp)
     458:	e0bfff17 	ldw	r2,-4(fp)
     45c:	10bfffd8 	cmpnei	r2,r2,-1
     460:	103ff01e 	bne	r2,zero,424 <mem_cpy+0x2c>
		*d++ = *s++;
}
     464:	e037883a 	mov	sp,fp
     468:	df000017 	ldw	fp,0(sp)
     46c:	dec00104 	addi	sp,sp,4
     470:	f800283a 	ret

00000474 <mem_set>:

/* Fill memory */
static
void mem_set (void* dst, int val, UINT cnt) {
     474:	defffb04 	addi	sp,sp,-20
     478:	df000415 	stw	fp,16(sp)
     47c:	df000404 	addi	fp,sp,16
     480:	e13ffd15 	stw	r4,-12(fp)
     484:	e17ffe15 	stw	r5,-8(fp)
     488:	e1bfff15 	stw	r6,-4(fp)
	BYTE *d = (BYTE*)dst;
     48c:	e0bffd17 	ldw	r2,-12(fp)
     490:	e0bffc15 	stw	r2,-16(fp)

	while (cnt--)
     494:	00000706 	br	4b4 <mem_set+0x40>
		*d++ = (BYTE)val;
     498:	e0bffe17 	ldw	r2,-8(fp)
     49c:	1007883a 	mov	r3,r2
     4a0:	e0bffc17 	ldw	r2,-16(fp)
     4a4:	10c00005 	stb	r3,0(r2)
     4a8:	e0bffc17 	ldw	r2,-16(fp)
     4ac:	10800044 	addi	r2,r2,1
     4b0:	e0bffc15 	stw	r2,-16(fp)
/* Fill memory */
static
void mem_set (void* dst, int val, UINT cnt) {
	BYTE *d = (BYTE*)dst;

	while (cnt--)
     4b4:	e0bfff17 	ldw	r2,-4(fp)
     4b8:	10bfffc4 	addi	r2,r2,-1
     4bc:	e0bfff15 	stw	r2,-4(fp)
     4c0:	e0bfff17 	ldw	r2,-4(fp)
     4c4:	10bfffd8 	cmpnei	r2,r2,-1
     4c8:	103ff31e 	bne	r2,zero,498 <mem_set+0x24>
		*d++ = (BYTE)val;
}
     4cc:	e037883a 	mov	sp,fp
     4d0:	df000017 	ldw	fp,0(sp)
     4d4:	dec00104 	addi	sp,sp,4
     4d8:	f800283a 	ret

000004dc <mem_cmp>:

/* Compare memory to memory */
static
int mem_cmp (const void* dst, const void* src, UINT cnt) {
     4dc:	defff904 	addi	sp,sp,-28
     4e0:	df000615 	stw	fp,24(sp)
     4e4:	df000604 	addi	fp,sp,24
     4e8:	e13ffd15 	stw	r4,-12(fp)
     4ec:	e17ffe15 	stw	r5,-8(fp)
     4f0:	e1bfff15 	stw	r6,-4(fp)
	const BYTE *d = (const BYTE *)dst, *s = (const BYTE *)src;
     4f4:	e0bffd17 	ldw	r2,-12(fp)
     4f8:	e0bffc15 	stw	r2,-16(fp)
     4fc:	e0bffe17 	ldw	r2,-8(fp)
     500:	e0bffb15 	stw	r2,-20(fp)
	int r = 0;
     504:	e03ffa15 	stw	zero,-24(fp)

	while (cnt-- && (r = *d++ - *s++) == 0) ;
     508:	e0bfff17 	ldw	r2,-4(fp)
     50c:	10bfffc4 	addi	r2,r2,-1
     510:	e0bfff15 	stw	r2,-4(fp)
     514:	e0bfff17 	ldw	r2,-4(fp)
     518:	10bfffe0 	cmpeqi	r2,r2,-1
     51c:	1000141e 	bne	r2,zero,570 <mem_cmp+0x94>
     520:	e0bffc17 	ldw	r2,-16(fp)
     524:	10800003 	ldbu	r2,0(r2)
     528:	10c03fcc 	andi	r3,r2,255
     52c:	e0bffb17 	ldw	r2,-20(fp)
     530:	10800003 	ldbu	r2,0(r2)
     534:	10803fcc 	andi	r2,r2,255
     538:	1885c83a 	sub	r2,r3,r2
     53c:	e0bffa15 	stw	r2,-24(fp)
     540:	e0bffa17 	ldw	r2,-24(fp)
     544:	1005003a 	cmpeq	r2,r2,zero
     548:	1007883a 	mov	r3,r2
     54c:	e0bffc17 	ldw	r2,-16(fp)
     550:	10800044 	addi	r2,r2,1
     554:	e0bffc15 	stw	r2,-16(fp)
     558:	e0bffb17 	ldw	r2,-20(fp)
     55c:	10800044 	addi	r2,r2,1
     560:	e0bffb15 	stw	r2,-20(fp)
     564:	18803fcc 	andi	r2,r3,255
     568:	1004c03a 	cmpne	r2,r2,zero
     56c:	103fe61e 	bne	r2,zero,508 <mem_cmp+0x2c>
	return r;
     570:	e0bffa17 	ldw	r2,-24(fp)
}
     574:	e037883a 	mov	sp,fp
     578:	df000017 	ldw	fp,0(sp)
     57c:	dec00104 	addi	sp,sp,4
     580:	f800283a 	ret

00000584 <chk_chr>:

/* Check if chr is contained in the string */
static
int chk_chr (const char* str, int chr) {
     584:	defffd04 	addi	sp,sp,-12
     588:	df000215 	stw	fp,8(sp)
     58c:	df000204 	addi	fp,sp,8
     590:	e13ffe15 	stw	r4,-8(fp)
     594:	e17fff15 	stw	r5,-4(fp)
	while (*str && *str != chr) str++;
     598:	00000306 	br	5a8 <chk_chr+0x24>
     59c:	e0bffe17 	ldw	r2,-8(fp)
     5a0:	10800044 	addi	r2,r2,1
     5a4:	e0bffe15 	stw	r2,-8(fp)
     5a8:	e0bffe17 	ldw	r2,-8(fp)
     5ac:	10800003 	ldbu	r2,0(r2)
     5b0:	10803fcc 	andi	r2,r2,255
     5b4:	1080201c 	xori	r2,r2,128
     5b8:	10bfe004 	addi	r2,r2,-128
     5bc:	1005003a 	cmpeq	r2,r2,zero
     5c0:	1000071e 	bne	r2,zero,5e0 <chk_chr+0x5c>
     5c4:	e0bffe17 	ldw	r2,-8(fp)
     5c8:	10800003 	ldbu	r2,0(r2)
     5cc:	10c03fcc 	andi	r3,r2,255
     5d0:	18c0201c 	xori	r3,r3,128
     5d4:	18ffe004 	addi	r3,r3,-128
     5d8:	e0bfff17 	ldw	r2,-4(fp)
     5dc:	18bfef1e 	bne	r3,r2,59c <chk_chr+0x18>
	return *str;
     5e0:	e0bffe17 	ldw	r2,-8(fp)
     5e4:	10800003 	ldbu	r2,0(r2)
     5e8:	10803fcc 	andi	r2,r2,255
     5ec:	1080201c 	xori	r2,r2,128
     5f0:	10bfe004 	addi	r2,r2,-128
}
     5f4:	e037883a 	mov	sp,fp
     5f8:	df000017 	ldw	fp,0(sp)
     5fc:	dec00104 	addi	sp,sp,4
     600:	f800283a 	ret

00000604 <move_window>:
static
FRESULT move_window (
	FATFS *fs,		/* File system object */
	DWORD sector	/* Sector number to make appearance in the fs->win[] */
)					/* Move to zero only writes back dirty window */
{
     604:	defff904 	addi	sp,sp,-28
     608:	dfc00615 	stw	ra,24(sp)
     60c:	df000515 	stw	fp,20(sp)
     610:	df000504 	addi	fp,sp,20
     614:	e13ffd15 	stw	r4,-12(fp)
     618:	e17ffe15 	stw	r5,-8(fp)
	DWORD wsect;


	wsect = fs->winsect;
     61c:	e0bffd17 	ldw	r2,-12(fp)
     620:	10800b17 	ldw	r2,44(r2)
     624:	e0bffc15 	stw	r2,-16(fp)
	if (wsect != sector) {	/* Changed current window */
     628:	e0fffc17 	ldw	r3,-16(fp)
     62c:	e0bffe17 	ldw	r2,-8(fp)
     630:	18804526 	beq	r3,r2,748 <move_window+0x144>
#if !_FS_READONLY
		if (fs->wflag) {	/* Write back dirty window if needed */
     634:	e0bffd17 	ldw	r2,-12(fp)
     638:	10800103 	ldbu	r2,4(r2)
     63c:	10803fcc 	andi	r2,r2,255
     640:	1005003a 	cmpeq	r2,r2,zero
     644:	10002d1e 	bne	r2,zero,6fc <move_window+0xf8>
			if (disk_write(fs->drv, fs->win, wsect, 1) != RES_OK)
     648:	e0bffd17 	ldw	r2,-12(fp)
     64c:	10800043 	ldbu	r2,1(r2)
     650:	11003fcc 	andi	r4,r2,255
     654:	e0bffd17 	ldw	r2,-12(fp)
     658:	11400c04 	addi	r5,r2,48
     65c:	e1bffc17 	ldw	r6,-16(fp)
     660:	01c00044 	movi	r7,1
     664:	00078a00 	call	78a0 <disk_write>
     668:	1005003a 	cmpeq	r2,r2,zero
     66c:	1000031e 	bne	r2,zero,67c <move_window+0x78>
				return FR_DISK_ERR;
     670:	00800044 	movi	r2,1
     674:	e0bfff15 	stw	r2,-4(fp)
     678:	00003406 	br	74c <move_window+0x148>
			fs->wflag = 0;
     67c:	e0bffd17 	ldw	r2,-12(fp)
     680:	10000105 	stb	zero,4(r2)
			if (wsect < (fs->fatbase + fs->fsize)) {	/* In FAT area */
     684:	e0bffd17 	ldw	r2,-12(fp)
     688:	10c00817 	ldw	r3,32(r2)
     68c:	e0bffd17 	ldw	r2,-12(fp)
     690:	10800717 	ldw	r2,28(r2)
     694:	1887883a 	add	r3,r3,r2
     698:	e0bffc17 	ldw	r2,-16(fp)
     69c:	10c0172e 	bgeu	r2,r3,6fc <move_window+0xf8>
				BYTE nf;
				for (nf = fs->n_fats; nf > 1; nf--) {	/* Reflect the change to all FAT copies */
     6a0:	e0bffd17 	ldw	r2,-12(fp)
     6a4:	108000c3 	ldbu	r2,3(r2)
     6a8:	e0bffb05 	stb	r2,-20(fp)
     6ac:	00001006 	br	6f0 <move_window+0xec>
					wsect += fs->fsize;
     6b0:	e0bffd17 	ldw	r2,-12(fp)
     6b4:	10c00717 	ldw	r3,28(r2)
     6b8:	e0bffc17 	ldw	r2,-16(fp)
     6bc:	10c5883a 	add	r2,r2,r3
     6c0:	e0bffc15 	stw	r2,-16(fp)
					disk_write(fs->drv, fs->win, wsect, 1);
     6c4:	e0bffd17 	ldw	r2,-12(fp)
     6c8:	10800043 	ldbu	r2,1(r2)
     6cc:	11003fcc 	andi	r4,r2,255
     6d0:	e0bffd17 	ldw	r2,-12(fp)
     6d4:	11400c04 	addi	r5,r2,48
     6d8:	e1bffc17 	ldw	r6,-16(fp)
     6dc:	01c00044 	movi	r7,1
     6e0:	00078a00 	call	78a0 <disk_write>
			if (disk_write(fs->drv, fs->win, wsect, 1) != RES_OK)
				return FR_DISK_ERR;
			fs->wflag = 0;
			if (wsect < (fs->fatbase + fs->fsize)) {	/* In FAT area */
				BYTE nf;
				for (nf = fs->n_fats; nf > 1; nf--) {	/* Reflect the change to all FAT copies */
     6e4:	e0bffb03 	ldbu	r2,-20(fp)
     6e8:	10bfffc4 	addi	r2,r2,-1
     6ec:	e0bffb05 	stb	r2,-20(fp)
     6f0:	e0bffb03 	ldbu	r2,-20(fp)
     6f4:	108000a8 	cmpgeui	r2,r2,2
     6f8:	103fed1e 	bne	r2,zero,6b0 <move_window+0xac>
					disk_write(fs->drv, fs->win, wsect, 1);
				}
			}
		}
#endif
		if (sector) {
     6fc:	e0bffe17 	ldw	r2,-8(fp)
     700:	1005003a 	cmpeq	r2,r2,zero
     704:	1000101e 	bne	r2,zero,748 <move_window+0x144>
			if (disk_read(fs->drv, fs->win, sector, 1) != RES_OK)
     708:	e0bffd17 	ldw	r2,-12(fp)
     70c:	10800043 	ldbu	r2,1(r2)
     710:	11003fcc 	andi	r4,r2,255
     714:	e0bffd17 	ldw	r2,-12(fp)
     718:	11400c04 	addi	r5,r2,48
     71c:	e1bffe17 	ldw	r6,-8(fp)
     720:	01c00044 	movi	r7,1
     724:	00077580 	call	7758 <disk_read>
     728:	1005003a 	cmpeq	r2,r2,zero
     72c:	1000031e 	bne	r2,zero,73c <move_window+0x138>
				return FR_DISK_ERR;
     730:	00800044 	movi	r2,1
     734:	e0bfff15 	stw	r2,-4(fp)
     738:	00000406 	br	74c <move_window+0x148>
			fs->winsect = sector;
     73c:	e0fffd17 	ldw	r3,-12(fp)
     740:	e0bffe17 	ldw	r2,-8(fp)
     744:	18800b15 	stw	r2,44(r3)
		}
	}

	return FR_OK;
     748:	e03fff15 	stw	zero,-4(fp)
     74c:	e0bfff17 	ldw	r2,-4(fp)
}
     750:	e037883a 	mov	sp,fp
     754:	dfc00117 	ldw	ra,4(sp)
     758:	df000017 	ldw	fp,0(sp)
     75c:	dec00204 	addi	sp,sp,8
     760:	f800283a 	ret

00000764 <sync>:
#if !_FS_READONLY
static
FRESULT sync (	/* FR_OK: successful, FR_DISK_ERR: failed */
	FATFS *fs	/* File system object */
)
{
     764:	defffc04 	addi	sp,sp,-16
     768:	dfc00315 	stw	ra,12(sp)
     76c:	df000215 	stw	fp,8(sp)
     770:	df000204 	addi	fp,sp,8
     774:	e13fff15 	stw	r4,-4(fp)
	FRESULT res;


	res = move_window(fs, 0);
     778:	e13fff17 	ldw	r4,-4(fp)
     77c:	000b883a 	mov	r5,zero
     780:	00006040 	call	604 <move_window>
     784:	e0bffe15 	stw	r2,-8(fp)
	if (res == FR_OK) {
     788:	e0bffe17 	ldw	r2,-8(fp)
     78c:	1004c03a 	cmpne	r2,r2,zero
     790:	10008e1e 	bne	r2,zero,9cc <sync+0x268>
		/* Update FSInfo sector if needed */
		if (fs->fs_type == FS_FAT32 && fs->fsi_flag) {
     794:	e0bfff17 	ldw	r2,-4(fp)
     798:	10800003 	ldbu	r2,0(r2)
     79c:	10803fcc 	andi	r2,r2,255
     7a0:	108000d8 	cmpnei	r2,r2,3
     7a4:	10007f1e 	bne	r2,zero,9a4 <sync+0x240>
     7a8:	e0bfff17 	ldw	r2,-4(fp)
     7ac:	10800143 	ldbu	r2,5(r2)
     7b0:	10803fcc 	andi	r2,r2,255
     7b4:	1005003a 	cmpeq	r2,r2,zero
     7b8:	10007a1e 	bne	r2,zero,9a4 <sync+0x240>
			fs->winsect = 0;
     7bc:	e0bfff17 	ldw	r2,-4(fp)
     7c0:	10000b15 	stw	zero,44(r2)
			/* Create FSInfo structure */
			mem_set(fs->win, 0, 512);
     7c4:	e0bfff17 	ldw	r2,-4(fp)
     7c8:	11000c04 	addi	r4,r2,48
     7cc:	000b883a 	mov	r5,zero
     7d0:	01808004 	movi	r6,512
     7d4:	00004740 	call	474 <mem_set>
			ST_WORD(fs->win+BS_55AA, 0xAA55);
     7d8:	e0bfff17 	ldw	r2,-4(fp)
     7dc:	10800c04 	addi	r2,r2,48
     7e0:	10c07f84 	addi	r3,r2,510
     7e4:	00801544 	movi	r2,85
     7e8:	18800005 	stb	r2,0(r3)
     7ec:	e0bfff17 	ldw	r2,-4(fp)
     7f0:	10800c04 	addi	r2,r2,48
     7f4:	10c07fc4 	addi	r3,r2,511
     7f8:	00bfea84 	movi	r2,-86
     7fc:	18800005 	stb	r2,0(r3)
			ST_DWORD(fs->win+FSI_LeadSig, 0x41615252);
     800:	e0ffff17 	ldw	r3,-4(fp)
     804:	00801484 	movi	r2,82
     808:	18800c05 	stb	r2,48(r3)
     80c:	e0bfff17 	ldw	r2,-4(fp)
     810:	10800c04 	addi	r2,r2,48
     814:	10c00044 	addi	r3,r2,1
     818:	00801484 	movi	r2,82
     81c:	18800005 	stb	r2,0(r3)
     820:	e0bfff17 	ldw	r2,-4(fp)
     824:	10800c04 	addi	r2,r2,48
     828:	10c00084 	addi	r3,r2,2
     82c:	00801844 	movi	r2,97
     830:	18800005 	stb	r2,0(r3)
     834:	e0bfff17 	ldw	r2,-4(fp)
     838:	10800c04 	addi	r2,r2,48
     83c:	10c000c4 	addi	r3,r2,3
     840:	00801044 	movi	r2,65
     844:	18800005 	stb	r2,0(r3)
			ST_DWORD(fs->win+FSI_StrucSig, 0x61417272);
     848:	e0bfff17 	ldw	r2,-4(fp)
     84c:	10800c04 	addi	r2,r2,48
     850:	10c07904 	addi	r3,r2,484
     854:	00801c84 	movi	r2,114
     858:	18800005 	stb	r2,0(r3)
     85c:	e0bfff17 	ldw	r2,-4(fp)
     860:	10800c04 	addi	r2,r2,48
     864:	10c07944 	addi	r3,r2,485
     868:	00801c84 	movi	r2,114
     86c:	18800005 	stb	r2,0(r3)
     870:	e0bfff17 	ldw	r2,-4(fp)
     874:	10800c04 	addi	r2,r2,48
     878:	10c07984 	addi	r3,r2,486
     87c:	00801044 	movi	r2,65
     880:	18800005 	stb	r2,0(r3)
     884:	e0bfff17 	ldw	r2,-4(fp)
     888:	10800c04 	addi	r2,r2,48
     88c:	10c079c4 	addi	r3,r2,487
     890:	00801844 	movi	r2,97
     894:	18800005 	stb	r2,0(r3)
			ST_DWORD(fs->win+FSI_Free_Count, fs->free_clust);
     898:	e0bfff17 	ldw	r2,-4(fp)
     89c:	10800c04 	addi	r2,r2,48
     8a0:	10c07a04 	addi	r3,r2,488
     8a4:	e0bfff17 	ldw	r2,-4(fp)
     8a8:	10800417 	ldw	r2,16(r2)
     8ac:	18800005 	stb	r2,0(r3)
     8b0:	e0bfff17 	ldw	r2,-4(fp)
     8b4:	10800c04 	addi	r2,r2,48
     8b8:	10c07a44 	addi	r3,r2,489
     8bc:	e0bfff17 	ldw	r2,-4(fp)
     8c0:	10800417 	ldw	r2,16(r2)
     8c4:	10bfffcc 	andi	r2,r2,65535
     8c8:	1004d23a 	srli	r2,r2,8
     8cc:	18800005 	stb	r2,0(r3)
     8d0:	e0bfff17 	ldw	r2,-4(fp)
     8d4:	10800c04 	addi	r2,r2,48
     8d8:	10c07a84 	addi	r3,r2,490
     8dc:	e0bfff17 	ldw	r2,-4(fp)
     8e0:	10800417 	ldw	r2,16(r2)
     8e4:	1004d43a 	srli	r2,r2,16
     8e8:	18800005 	stb	r2,0(r3)
     8ec:	e0bfff17 	ldw	r2,-4(fp)
     8f0:	10800c04 	addi	r2,r2,48
     8f4:	10c07ac4 	addi	r3,r2,491
     8f8:	e0bfff17 	ldw	r2,-4(fp)
     8fc:	10800417 	ldw	r2,16(r2)
     900:	1004d63a 	srli	r2,r2,24
     904:	18800005 	stb	r2,0(r3)
			ST_DWORD(fs->win+FSI_Nxt_Free, fs->last_clust);
     908:	e0bfff17 	ldw	r2,-4(fp)
     90c:	10800c04 	addi	r2,r2,48
     910:	10c07b04 	addi	r3,r2,492
     914:	e0bfff17 	ldw	r2,-4(fp)
     918:	10800317 	ldw	r2,12(r2)
     91c:	18800005 	stb	r2,0(r3)
     920:	e0bfff17 	ldw	r2,-4(fp)
     924:	10800c04 	addi	r2,r2,48
     928:	10c07b44 	addi	r3,r2,493
     92c:	e0bfff17 	ldw	r2,-4(fp)
     930:	10800317 	ldw	r2,12(r2)
     934:	10bfffcc 	andi	r2,r2,65535
     938:	1004d23a 	srli	r2,r2,8
     93c:	18800005 	stb	r2,0(r3)
     940:	e0bfff17 	ldw	r2,-4(fp)
     944:	10800c04 	addi	r2,r2,48
     948:	10c07b84 	addi	r3,r2,494
     94c:	e0bfff17 	ldw	r2,-4(fp)
     950:	10800317 	ldw	r2,12(r2)
     954:	1004d43a 	srli	r2,r2,16
     958:	18800005 	stb	r2,0(r3)
     95c:	e0bfff17 	ldw	r2,-4(fp)
     960:	10800c04 	addi	r2,r2,48
     964:	10c07bc4 	addi	r3,r2,495
     968:	e0bfff17 	ldw	r2,-4(fp)
     96c:	10800317 	ldw	r2,12(r2)
     970:	1004d63a 	srli	r2,r2,24
     974:	18800005 	stb	r2,0(r3)
			/* Write it into the FSInfo sector */
			disk_write(fs->drv, fs->win, fs->fsi_sector, 1);
     978:	e0bfff17 	ldw	r2,-4(fp)
     97c:	10800043 	ldbu	r2,1(r2)
     980:	11003fcc 	andi	r4,r2,255
     984:	e0bfff17 	ldw	r2,-4(fp)
     988:	11400c04 	addi	r5,r2,48
     98c:	e0bfff17 	ldw	r2,-4(fp)
     990:	11800517 	ldw	r6,20(r2)
     994:	01c00044 	movi	r7,1
     998:	00078a00 	call	78a0 <disk_write>
			fs->fsi_flag = 0;
     99c:	e0bfff17 	ldw	r2,-4(fp)
     9a0:	10000145 	stb	zero,5(r2)
		}
		/* Make sure that no pending write process in the physical drive */
		if (disk_ioctl(fs->drv, CTRL_SYNC, 0) != RES_OK)
     9a4:	e0bfff17 	ldw	r2,-4(fp)
     9a8:	10800043 	ldbu	r2,1(r2)
     9ac:	11003fcc 	andi	r4,r2,255
     9b0:	000b883a 	mov	r5,zero
     9b4:	000d883a 	mov	r6,zero
     9b8:	0007a340 	call	7a34 <disk_ioctl>
     9bc:	1005003a 	cmpeq	r2,r2,zero
     9c0:	1000021e 	bne	r2,zero,9cc <sync+0x268>
			res = FR_DISK_ERR;
     9c4:	00800044 	movi	r2,1
     9c8:	e0bffe15 	stw	r2,-8(fp)
	}

	return res;
     9cc:	e0bffe17 	ldw	r2,-8(fp)
}
     9d0:	e037883a 	mov	sp,fp
     9d4:	dfc00117 	ldw	ra,4(sp)
     9d8:	df000017 	ldw	fp,0(sp)
     9dc:	dec00204 	addi	sp,sp,8
     9e0:	f800283a 	ret

000009e4 <clust2sect>:

DWORD clust2sect (	/* !=0: Sector number, 0: Failed - invalid cluster# */
	FATFS *fs,		/* File system object */
	DWORD clst		/* Cluster# to be converted */
)
{
     9e4:	defffc04 	addi	sp,sp,-16
     9e8:	df000315 	stw	fp,12(sp)
     9ec:	df000304 	addi	fp,sp,12
     9f0:	e13ffd15 	stw	r4,-12(fp)
     9f4:	e17ffe15 	stw	r5,-8(fp)
	clst -= 2;
     9f8:	e0bffe17 	ldw	r2,-8(fp)
     9fc:	10bfff84 	addi	r2,r2,-2
     a00:	e0bffe15 	stw	r2,-8(fp)
	if (clst >= (fs->n_fatent - 2)) return 0;		/* Invalid cluster# */
     a04:	e0bffd17 	ldw	r2,-12(fp)
     a08:	10800617 	ldw	r2,24(r2)
     a0c:	10ffff84 	addi	r3,r2,-2
     a10:	e0bffe17 	ldw	r2,-8(fp)
     a14:	10c00236 	bltu	r2,r3,a20 <clust2sect+0x3c>
     a18:	e03fff15 	stw	zero,-4(fp)
     a1c:	00000906 	br	a44 <clust2sect+0x60>
	return clst * fs->csize + fs->database;
     a20:	e0bffd17 	ldw	r2,-12(fp)
     a24:	10800083 	ldbu	r2,2(r2)
     a28:	10c03fcc 	andi	r3,r2,255
     a2c:	e0bffe17 	ldw	r2,-8(fp)
     a30:	1887383a 	mul	r3,r3,r2
     a34:	e0bffd17 	ldw	r2,-12(fp)
     a38:	10800a17 	ldw	r2,40(r2)
     a3c:	1887883a 	add	r3,r3,r2
     a40:	e0ffff15 	stw	r3,-4(fp)
     a44:	e0bfff17 	ldw	r2,-4(fp)
}
     a48:	e037883a 	mov	sp,fp
     a4c:	df000017 	ldw	fp,0(sp)
     a50:	dec00104 	addi	sp,sp,4
     a54:	f800283a 	ret

00000a58 <get_fat>:

DWORD get_fat (	/* 0xFFFFFFFF:Disk error, 1:Internal error, Else:Cluster status */
	FATFS *fs,	/* File system object */
	DWORD clst	/* Cluster# to get the link information */
)
{
     a58:	defff604 	addi	sp,sp,-40
     a5c:	dfc00915 	stw	ra,36(sp)
     a60:	df000815 	stw	fp,32(sp)
     a64:	df000804 	addi	fp,sp,32
     a68:	e13ffb15 	stw	r4,-20(fp)
     a6c:	e17ffc15 	stw	r5,-16(fp)
	UINT wc, bc;
	BYTE *p;


	if (clst < 2 || clst >= fs->n_fatent)	/* Chack range */
     a70:	e0bffc17 	ldw	r2,-16(fp)
     a74:	108000b0 	cmpltui	r2,r2,2
     a78:	1000041e 	bne	r2,zero,a8c <get_fat+0x34>
     a7c:	e0bffb17 	ldw	r2,-20(fp)
     a80:	10c00617 	ldw	r3,24(r2)
     a84:	e0bffc17 	ldw	r2,-16(fp)
     a88:	10c00336 	bltu	r2,r3,a98 <get_fat+0x40>
		return 1;
     a8c:	00800044 	movi	r2,1
     a90:	e0bfff15 	stw	r2,-4(fp)
     a94:	00009706 	br	cf4 <get_fat+0x29c>

	switch (fs->fs_type) {
     a98:	e0bffb17 	ldw	r2,-20(fp)
     a9c:	10800003 	ldbu	r2,0(r2)
     aa0:	10803fcc 	andi	r2,r2,255
     aa4:	e0bffe15 	stw	r2,-8(fp)
     aa8:	e0fffe17 	ldw	r3,-8(fp)
     aac:	188000a0 	cmpeqi	r2,r3,2
     ab0:	1000461e 	bne	r2,zero,bcc <get_fat+0x174>
     ab4:	e0fffe17 	ldw	r3,-8(fp)
     ab8:	188000e0 	cmpeqi	r2,r3,3
     abc:	1000601e 	bne	r2,zero,c40 <get_fat+0x1e8>
     ac0:	e0fffe17 	ldw	r3,-8(fp)
     ac4:	18800060 	cmpeqi	r2,r3,1
     ac8:	1000011e 	bne	r2,zero,ad0 <get_fat+0x78>
     acc:	00008706 	br	cec <get_fat+0x294>
	case FS_FAT12 :
		bc = (UINT)clst; bc += bc / 2;
     ad0:	e0bffc17 	ldw	r2,-16(fp)
     ad4:	e0bff915 	stw	r2,-28(fp)
     ad8:	e0bff917 	ldw	r2,-28(fp)
     adc:	1006d07a 	srli	r3,r2,1
     ae0:	e0bff917 	ldw	r2,-28(fp)
     ae4:	10c5883a 	add	r2,r2,r3
     ae8:	e0bff915 	stw	r2,-28(fp)
		if (move_window(fs, fs->fatbase + (bc / SS(fs)))) break;
     aec:	e0bffb17 	ldw	r2,-20(fp)
     af0:	10c00817 	ldw	r3,32(r2)
     af4:	e0bff917 	ldw	r2,-28(fp)
     af8:	1004d27a 	srli	r2,r2,9
     afc:	188b883a 	add	r5,r3,r2
     b00:	e13ffb17 	ldw	r4,-20(fp)
     b04:	00006040 	call	604 <move_window>
     b08:	1004c03a 	cmpne	r2,r2,zero
     b0c:	1000771e 	bne	r2,zero,cec <get_fat+0x294>
		wc = fs->win[bc % SS(fs)]; bc++;
     b10:	e0bff917 	ldw	r2,-28(fp)
     b14:	10c07fcc 	andi	r3,r2,511
     b18:	e0bffb17 	ldw	r2,-20(fp)
     b1c:	1885883a 	add	r2,r3,r2
     b20:	10800c04 	addi	r2,r2,48
     b24:	10800003 	ldbu	r2,0(r2)
     b28:	10803fcc 	andi	r2,r2,255
     b2c:	e0bffa15 	stw	r2,-24(fp)
     b30:	e0bff917 	ldw	r2,-28(fp)
     b34:	10800044 	addi	r2,r2,1
     b38:	e0bff915 	stw	r2,-28(fp)
		if (move_window(fs, fs->fatbase + (bc / SS(fs)))) break;
     b3c:	e0bffb17 	ldw	r2,-20(fp)
     b40:	10c00817 	ldw	r3,32(r2)
     b44:	e0bff917 	ldw	r2,-28(fp)
     b48:	1004d27a 	srli	r2,r2,9
     b4c:	188b883a 	add	r5,r3,r2
     b50:	e13ffb17 	ldw	r4,-20(fp)
     b54:	00006040 	call	604 <move_window>
     b58:	1004c03a 	cmpne	r2,r2,zero
     b5c:	1000631e 	bne	r2,zero,cec <get_fat+0x294>
		wc |= fs->win[bc % SS(fs)] << 8;
     b60:	e0bff917 	ldw	r2,-28(fp)
     b64:	10c07fcc 	andi	r3,r2,511
     b68:	e0bffb17 	ldw	r2,-20(fp)
     b6c:	1885883a 	add	r2,r3,r2
     b70:	10800c04 	addi	r2,r2,48
     b74:	10800003 	ldbu	r2,0(r2)
     b78:	10803fcc 	andi	r2,r2,255
     b7c:	1004923a 	slli	r2,r2,8
     b80:	1007883a 	mov	r3,r2
     b84:	e0bffa17 	ldw	r2,-24(fp)
     b88:	10c4b03a 	or	r2,r2,r3
     b8c:	e0bffa15 	stw	r2,-24(fp)
		return (clst & 1) ? (wc >> 4) : (wc & 0xFFF);
     b90:	e0bffc17 	ldw	r2,-16(fp)
     b94:	1080004c 	andi	r2,r2,1
     b98:	10803fcc 	andi	r2,r2,255
     b9c:	1005003a 	cmpeq	r2,r2,zero
     ba0:	1000041e 	bne	r2,zero,bb4 <get_fat+0x15c>
     ba4:	e0bffa17 	ldw	r2,-24(fp)
     ba8:	1004d13a 	srli	r2,r2,4
     bac:	e0bffd15 	stw	r2,-12(fp)
     bb0:	00000306 	br	bc0 <get_fat+0x168>
     bb4:	e0bffa17 	ldw	r2,-24(fp)
     bb8:	1083ffcc 	andi	r2,r2,4095
     bbc:	e0bffd15 	stw	r2,-12(fp)
     bc0:	e0bffd17 	ldw	r2,-12(fp)
     bc4:	e0bfff15 	stw	r2,-4(fp)
     bc8:	00004a06 	br	cf4 <get_fat+0x29c>

	case FS_FAT16 :
		if (move_window(fs, fs->fatbase + (clst / (SS(fs) / 2)))) break;
     bcc:	e0bffb17 	ldw	r2,-20(fp)
     bd0:	10c00817 	ldw	r3,32(r2)
     bd4:	e0bffc17 	ldw	r2,-16(fp)
     bd8:	1004d23a 	srli	r2,r2,8
     bdc:	188b883a 	add	r5,r3,r2
     be0:	e13ffb17 	ldw	r4,-20(fp)
     be4:	00006040 	call	604 <move_window>
     be8:	1004c03a 	cmpne	r2,r2,zero
     bec:	10003f1e 	bne	r2,zero,cec <get_fat+0x294>
		p = &fs->win[clst * 2 % SS(fs)];
     bf0:	e0bffb17 	ldw	r2,-20(fp)
     bf4:	10c00c04 	addi	r3,r2,48
     bf8:	e0bffc17 	ldw	r2,-16(fp)
     bfc:	1085883a 	add	r2,r2,r2
     c00:	10807fcc 	andi	r2,r2,511
     c04:	1885883a 	add	r2,r3,r2
     c08:	e0bff815 	stw	r2,-32(fp)
		return LD_WORD(p);
     c0c:	e0bff817 	ldw	r2,-32(fp)
     c10:	10800044 	addi	r2,r2,1
     c14:	10800003 	ldbu	r2,0(r2)
     c18:	10803fcc 	andi	r2,r2,255
     c1c:	1004923a 	slli	r2,r2,8
     c20:	1007883a 	mov	r3,r2
     c24:	e0bff817 	ldw	r2,-32(fp)
     c28:	10800003 	ldbu	r2,0(r2)
     c2c:	10803fcc 	andi	r2,r2,255
     c30:	1884b03a 	or	r2,r3,r2
     c34:	10bfffcc 	andi	r2,r2,65535
     c38:	e0bfff15 	stw	r2,-4(fp)
     c3c:	00002d06 	br	cf4 <get_fat+0x29c>

	case FS_FAT32 :
		if (move_window(fs, fs->fatbase + (clst / (SS(fs) / 4)))) break;
     c40:	e0bffb17 	ldw	r2,-20(fp)
     c44:	10c00817 	ldw	r3,32(r2)
     c48:	e0bffc17 	ldw	r2,-16(fp)
     c4c:	1004d1fa 	srli	r2,r2,7
     c50:	188b883a 	add	r5,r3,r2
     c54:	e13ffb17 	ldw	r4,-20(fp)
     c58:	00006040 	call	604 <move_window>
     c5c:	1004c03a 	cmpne	r2,r2,zero
     c60:	1000221e 	bne	r2,zero,cec <get_fat+0x294>
		p = &fs->win[clst * 4 % SS(fs)];
     c64:	e0bffb17 	ldw	r2,-20(fp)
     c68:	10c00c04 	addi	r3,r2,48
     c6c:	e0bffc17 	ldw	r2,-16(fp)
     c70:	1085883a 	add	r2,r2,r2
     c74:	1085883a 	add	r2,r2,r2
     c78:	10807fcc 	andi	r2,r2,511
     c7c:	1885883a 	add	r2,r3,r2
     c80:	e0bff815 	stw	r2,-32(fp)
		return LD_DWORD(p) & 0x0FFFFFFF;
     c84:	e0bff817 	ldw	r2,-32(fp)
     c88:	108000c4 	addi	r2,r2,3
     c8c:	10800003 	ldbu	r2,0(r2)
     c90:	10803fcc 	andi	r2,r2,255
     c94:	1006963a 	slli	r3,r2,24
     c98:	e0bff817 	ldw	r2,-32(fp)
     c9c:	10800084 	addi	r2,r2,2
     ca0:	10800003 	ldbu	r2,0(r2)
     ca4:	10803fcc 	andi	r2,r2,255
     ca8:	1004943a 	slli	r2,r2,16
     cac:	1886b03a 	or	r3,r3,r2
     cb0:	e0bff817 	ldw	r2,-32(fp)
     cb4:	10800044 	addi	r2,r2,1
     cb8:	10800003 	ldbu	r2,0(r2)
     cbc:	10803fcc 	andi	r2,r2,255
     cc0:	1004923a 	slli	r2,r2,8
     cc4:	1886b03a 	or	r3,r3,r2
     cc8:	e0bff817 	ldw	r2,-32(fp)
     ccc:	10800003 	ldbu	r2,0(r2)
     cd0:	10803fcc 	andi	r2,r2,255
     cd4:	1886b03a 	or	r3,r3,r2
     cd8:	00840034 	movhi	r2,4096
     cdc:	10bfffc4 	addi	r2,r2,-1
     ce0:	1886703a 	and	r3,r3,r2
     ce4:	e0ffff15 	stw	r3,-4(fp)
     ce8:	00000206 	br	cf4 <get_fat+0x29c>
	}

	return 0xFFFFFFFF;	/* An error occurred at the disk I/O layer */
     cec:	00ffffc4 	movi	r3,-1
     cf0:	e0ffff15 	stw	r3,-4(fp)
     cf4:	e0bfff17 	ldw	r2,-4(fp)
}
     cf8:	e037883a 	mov	sp,fp
     cfc:	dfc00117 	ldw	ra,4(sp)
     d00:	df000017 	ldw	fp,0(sp)
     d04:	dec00204 	addi	sp,sp,8
     d08:	f800283a 	ret

00000d0c <put_fat>:
FRESULT put_fat (
	FATFS *fs,	/* File system object */
	DWORD clst,	/* Cluster# to be changed in range of 2 to fs->n_fatent - 1 */
	DWORD val	/* New value to mark the cluster */
)
{
     d0c:	defff604 	addi	sp,sp,-40
     d10:	dfc00915 	stw	ra,36(sp)
     d14:	df000815 	stw	fp,32(sp)
     d18:	df000804 	addi	fp,sp,32
     d1c:	e13ffb15 	stw	r4,-20(fp)
     d20:	e17ffc15 	stw	r5,-16(fp)
     d24:	e1bffd15 	stw	r6,-12(fp)
	UINT bc;
	BYTE *p;
	FRESULT res;


	if (clst < 2 || clst >= fs->n_fatent) {	/* Check range */
     d28:	e0bffc17 	ldw	r2,-16(fp)
     d2c:	108000b0 	cmpltui	r2,r2,2
     d30:	1000041e 	bne	r2,zero,d44 <put_fat+0x38>
     d34:	e0bffb17 	ldw	r2,-20(fp)
     d38:	10c00617 	ldw	r3,24(r2)
     d3c:	e0bffc17 	ldw	r2,-16(fp)
     d40:	10c00336 	bltu	r2,r3,d50 <put_fat+0x44>
		res = FR_INT_ERR;
     d44:	00800084 	movi	r2,2
     d48:	e0bff815 	stw	r2,-32(fp)
	UINT bc;
	BYTE *p;
	FRESULT res;


	if (clst < 2 || clst >= fs->n_fatent) {	/* Check range */
     d4c:	0000cc06 	br	1080 <put_fat+0x374>
		res = FR_INT_ERR;

	} else {
		switch (fs->fs_type) {
     d50:	e0bffb17 	ldw	r2,-20(fp)
     d54:	10800003 	ldbu	r2,0(r2)
     d58:	10803fcc 	andi	r2,r2,255
     d5c:	e0bfff15 	stw	r2,-4(fp)
     d60:	e0ffff17 	ldw	r3,-4(fp)
     d64:	188000a0 	cmpeqi	r2,r3,2
     d68:	1000621e 	bne	r2,zero,ef4 <put_fat+0x1e8>
     d6c:	e0ffff17 	ldw	r3,-4(fp)
     d70:	188000e0 	cmpeqi	r2,r3,3
     d74:	10007c1e 	bne	r2,zero,f68 <put_fat+0x25c>
     d78:	e0ffff17 	ldw	r3,-4(fp)
     d7c:	18800060 	cmpeqi	r2,r3,1
     d80:	1000011e 	bne	r2,zero,d88 <put_fat+0x7c>
     d84:	0000b906 	br	106c <put_fat+0x360>
		case FS_FAT12 :
			bc = clst; bc += bc / 2;
     d88:	e0bffc17 	ldw	r2,-16(fp)
     d8c:	e0bffa15 	stw	r2,-24(fp)
     d90:	e0bffa17 	ldw	r2,-24(fp)
     d94:	1006d07a 	srli	r3,r2,1
     d98:	e0bffa17 	ldw	r2,-24(fp)
     d9c:	10c5883a 	add	r2,r2,r3
     da0:	e0bffa15 	stw	r2,-24(fp)
			res = move_window(fs, fs->fatbase + (bc / SS(fs)));
     da4:	e0bffb17 	ldw	r2,-20(fp)
     da8:	10c00817 	ldw	r3,32(r2)
     dac:	e0bffa17 	ldw	r2,-24(fp)
     db0:	1004d27a 	srli	r2,r2,9
     db4:	188b883a 	add	r5,r3,r2
     db8:	e13ffb17 	ldw	r4,-20(fp)
     dbc:	00006040 	call	604 <move_window>
     dc0:	e0bff815 	stw	r2,-32(fp)
			if (res != FR_OK) break;
     dc4:	e0bff817 	ldw	r2,-32(fp)
     dc8:	1004c03a 	cmpne	r2,r2,zero
     dcc:	1000a91e 	bne	r2,zero,1074 <put_fat+0x368>
			p = &fs->win[bc % SS(fs)];
     dd0:	e0bffb17 	ldw	r2,-20(fp)
     dd4:	10c00c04 	addi	r3,r2,48
     dd8:	e0bffa17 	ldw	r2,-24(fp)
     ddc:	10807fcc 	andi	r2,r2,511
     de0:	1885883a 	add	r2,r3,r2
     de4:	e0bff915 	stw	r2,-28(fp)
			*p = (clst & 1) ? ((*p & 0x0F) | ((BYTE)val << 4)) : (BYTE)val;
     de8:	e0bffc17 	ldw	r2,-16(fp)
     dec:	1080004c 	andi	r2,r2,1
     df0:	10803fcc 	andi	r2,r2,255
     df4:	1005003a 	cmpeq	r2,r2,zero
     df8:	10000a1e 	bne	r2,zero,e24 <put_fat+0x118>
     dfc:	e0bff917 	ldw	r2,-28(fp)
     e00:	10800003 	ldbu	r2,0(r2)
     e04:	108003cc 	andi	r2,r2,15
     e08:	1007883a 	mov	r3,r2
     e0c:	e0bffd17 	ldw	r2,-12(fp)
     e10:	10803fcc 	andi	r2,r2,255
     e14:	1004913a 	slli	r2,r2,4
     e18:	1884b03a 	or	r2,r3,r2
     e1c:	e0bffe45 	stb	r2,-7(fp)
     e20:	00000206 	br	e2c <put_fat+0x120>
     e24:	e0bffd17 	ldw	r2,-12(fp)
     e28:	e0bffe45 	stb	r2,-7(fp)
     e2c:	e0bff917 	ldw	r2,-28(fp)
     e30:	e0fffe43 	ldbu	r3,-7(fp)
     e34:	10c00005 	stb	r3,0(r2)
			bc++;
     e38:	e0bffa17 	ldw	r2,-24(fp)
     e3c:	10800044 	addi	r2,r2,1
     e40:	e0bffa15 	stw	r2,-24(fp)
			fs->wflag = 1;
     e44:	e0fffb17 	ldw	r3,-20(fp)
     e48:	00800044 	movi	r2,1
     e4c:	18800105 	stb	r2,4(r3)
			res = move_window(fs, fs->fatbase + (bc / SS(fs)));
     e50:	e0bffb17 	ldw	r2,-20(fp)
     e54:	10c00817 	ldw	r3,32(r2)
     e58:	e0bffa17 	ldw	r2,-24(fp)
     e5c:	1004d27a 	srli	r2,r2,9
     e60:	188b883a 	add	r5,r3,r2
     e64:	e13ffb17 	ldw	r4,-20(fp)
     e68:	00006040 	call	604 <move_window>
     e6c:	e0bff815 	stw	r2,-32(fp)
			if (res != FR_OK) break;
     e70:	e0bff817 	ldw	r2,-32(fp)
     e74:	1004c03a 	cmpne	r2,r2,zero
     e78:	10007e1e 	bne	r2,zero,1074 <put_fat+0x368>
			p = &fs->win[bc % SS(fs)];
     e7c:	e0bffb17 	ldw	r2,-20(fp)
     e80:	10c00c04 	addi	r3,r2,48
     e84:	e0bffa17 	ldw	r2,-24(fp)
     e88:	10807fcc 	andi	r2,r2,511
     e8c:	1885883a 	add	r2,r3,r2
     e90:	e0bff915 	stw	r2,-28(fp)
			*p = (clst & 1) ? (BYTE)(val >> 4) : ((*p & 0xF0) | ((BYTE)(val >> 8) & 0x0F));
     e94:	e0bffc17 	ldw	r2,-16(fp)
     e98:	1080004c 	andi	r2,r2,1
     e9c:	10803fcc 	andi	r2,r2,255
     ea0:	1005003a 	cmpeq	r2,r2,zero
     ea4:	1000041e 	bne	r2,zero,eb8 <put_fat+0x1ac>
     ea8:	e0bffd17 	ldw	r2,-12(fp)
     eac:	1004d13a 	srli	r2,r2,4
     eb0:	e0bffe05 	stb	r2,-8(fp)
     eb4:	00000b06 	br	ee4 <put_fat+0x1d8>
     eb8:	e0bff917 	ldw	r2,-28(fp)
     ebc:	10800003 	ldbu	r2,0(r2)
     ec0:	1007883a 	mov	r3,r2
     ec4:	00bffc04 	movi	r2,-16
     ec8:	1884703a 	and	r2,r3,r2
     ecc:	1007883a 	mov	r3,r2
     ed0:	e0bffd17 	ldw	r2,-12(fp)
     ed4:	1004d23a 	srli	r2,r2,8
     ed8:	108003cc 	andi	r2,r2,15
     edc:	1884b03a 	or	r2,r3,r2
     ee0:	e0bffe05 	stb	r2,-8(fp)
     ee4:	e0bff917 	ldw	r2,-28(fp)
     ee8:	e0fffe03 	ldbu	r3,-8(fp)
     eec:	10c00005 	stb	r3,0(r2)
			break;
     ef0:	00006006 	br	1074 <put_fat+0x368>

		case FS_FAT16 :
			res = move_window(fs, fs->fatbase + (clst / (SS(fs) / 2)));
     ef4:	e0bffb17 	ldw	r2,-20(fp)
     ef8:	10c00817 	ldw	r3,32(r2)
     efc:	e0bffc17 	ldw	r2,-16(fp)
     f00:	1004d23a 	srli	r2,r2,8
     f04:	188b883a 	add	r5,r3,r2
     f08:	e13ffb17 	ldw	r4,-20(fp)
     f0c:	00006040 	call	604 <move_window>
     f10:	e0bff815 	stw	r2,-32(fp)
			if (res != FR_OK) break;
     f14:	e0bff817 	ldw	r2,-32(fp)
     f18:	1004c03a 	cmpne	r2,r2,zero
     f1c:	1000551e 	bne	r2,zero,1074 <put_fat+0x368>
			p = &fs->win[clst * 2 % SS(fs)];
     f20:	e0bffb17 	ldw	r2,-20(fp)
     f24:	10c00c04 	addi	r3,r2,48
     f28:	e0bffc17 	ldw	r2,-16(fp)
     f2c:	1085883a 	add	r2,r2,r2
     f30:	10807fcc 	andi	r2,r2,511
     f34:	1885883a 	add	r2,r3,r2
     f38:	e0bff915 	stw	r2,-28(fp)
			ST_WORD(p, (WORD)val);
     f3c:	e0bffd17 	ldw	r2,-12(fp)
     f40:	1007883a 	mov	r3,r2
     f44:	e0bff917 	ldw	r2,-28(fp)
     f48:	10c00005 	stb	r3,0(r2)
     f4c:	e0bff917 	ldw	r2,-28(fp)
     f50:	10c00044 	addi	r3,r2,1
     f54:	e0bffd17 	ldw	r2,-12(fp)
     f58:	10bfffcc 	andi	r2,r2,65535
     f5c:	1004d23a 	srli	r2,r2,8
     f60:	18800005 	stb	r2,0(r3)
			break;
     f64:	00004306 	br	1074 <put_fat+0x368>

		case FS_FAT32 :
			res = move_window(fs, fs->fatbase + (clst / (SS(fs) / 4)));
     f68:	e0bffb17 	ldw	r2,-20(fp)
     f6c:	10c00817 	ldw	r3,32(r2)
     f70:	e0bffc17 	ldw	r2,-16(fp)
     f74:	1004d1fa 	srli	r2,r2,7
     f78:	188b883a 	add	r5,r3,r2
     f7c:	e13ffb17 	ldw	r4,-20(fp)
     f80:	00006040 	call	604 <move_window>
     f84:	e0bff815 	stw	r2,-32(fp)
			if (res != FR_OK) break;
     f88:	e0bff817 	ldw	r2,-32(fp)
     f8c:	1004c03a 	cmpne	r2,r2,zero
     f90:	1000381e 	bne	r2,zero,1074 <put_fat+0x368>
			p = &fs->win[clst * 4 % SS(fs)];
     f94:	e0bffb17 	ldw	r2,-20(fp)
     f98:	10c00c04 	addi	r3,r2,48
     f9c:	e0bffc17 	ldw	r2,-16(fp)
     fa0:	1085883a 	add	r2,r2,r2
     fa4:	1085883a 	add	r2,r2,r2
     fa8:	10807fcc 	andi	r2,r2,511
     fac:	1885883a 	add	r2,r3,r2
     fb0:	e0bff915 	stw	r2,-28(fp)
			val |= LD_DWORD(p) & 0xF0000000;
     fb4:	e0bff917 	ldw	r2,-28(fp)
     fb8:	108000c4 	addi	r2,r2,3
     fbc:	10800003 	ldbu	r2,0(r2)
     fc0:	10803fcc 	andi	r2,r2,255
     fc4:	1006963a 	slli	r3,r2,24
     fc8:	e0bff917 	ldw	r2,-28(fp)
     fcc:	10800084 	addi	r2,r2,2
     fd0:	10800003 	ldbu	r2,0(r2)
     fd4:	10803fcc 	andi	r2,r2,255
     fd8:	1004943a 	slli	r2,r2,16
     fdc:	1886b03a 	or	r3,r3,r2
     fe0:	e0bff917 	ldw	r2,-28(fp)
     fe4:	10800044 	addi	r2,r2,1
     fe8:	10800003 	ldbu	r2,0(r2)
     fec:	10803fcc 	andi	r2,r2,255
     ff0:	1004923a 	slli	r2,r2,8
     ff4:	1886b03a 	or	r3,r3,r2
     ff8:	e0bff917 	ldw	r2,-28(fp)
     ffc:	10800003 	ldbu	r2,0(r2)
    1000:	10803fcc 	andi	r2,r2,255
    1004:	1884b03a 	or	r2,r3,r2
    1008:	10fc002c 	andhi	r3,r2,61440
    100c:	e0bffd17 	ldw	r2,-12(fp)
    1010:	10c4b03a 	or	r2,r2,r3
    1014:	e0bffd15 	stw	r2,-12(fp)
			ST_DWORD(p, val);
    1018:	e0bffd17 	ldw	r2,-12(fp)
    101c:	1007883a 	mov	r3,r2
    1020:	e0bff917 	ldw	r2,-28(fp)
    1024:	10c00005 	stb	r3,0(r2)
    1028:	e0bff917 	ldw	r2,-28(fp)
    102c:	10c00044 	addi	r3,r2,1
    1030:	e0bffd17 	ldw	r2,-12(fp)
    1034:	10bfffcc 	andi	r2,r2,65535
    1038:	1004d23a 	srli	r2,r2,8
    103c:	18800005 	stb	r2,0(r3)
    1040:	e0bff917 	ldw	r2,-28(fp)
    1044:	10c00084 	addi	r3,r2,2
    1048:	e0bffd17 	ldw	r2,-12(fp)
    104c:	1004d43a 	srli	r2,r2,16
    1050:	18800005 	stb	r2,0(r3)
    1054:	e0bff917 	ldw	r2,-28(fp)
    1058:	10c000c4 	addi	r3,r2,3
    105c:	e0bffd17 	ldw	r2,-12(fp)
    1060:	1004d63a 	srli	r2,r2,24
    1064:	18800005 	stb	r2,0(r3)
			break;
    1068:	00000206 	br	1074 <put_fat+0x368>

		default :
			res = FR_INT_ERR;
    106c:	00800084 	movi	r2,2
    1070:	e0bff815 	stw	r2,-32(fp)
		}
		fs->wflag = 1;
    1074:	e0fffb17 	ldw	r3,-20(fp)
    1078:	00800044 	movi	r2,1
    107c:	18800105 	stb	r2,4(r3)
	}

	return res;
    1080:	e0bff817 	ldw	r2,-32(fp)
}
    1084:	e037883a 	mov	sp,fp
    1088:	dfc00117 	ldw	ra,4(sp)
    108c:	df000017 	ldw	fp,0(sp)
    1090:	dec00204 	addi	sp,sp,8
    1094:	f800283a 	ret

00001098 <remove_chain>:
static
FRESULT remove_chain (
	FATFS *fs,			/* File system object */
	DWORD clst			/* Cluster# to remove a chain from */
)
{
    1098:	defffa04 	addi	sp,sp,-24
    109c:	dfc00515 	stw	ra,20(sp)
    10a0:	df000415 	stw	fp,16(sp)
    10a4:	df000404 	addi	fp,sp,16
    10a8:	e13ffe15 	stw	r4,-8(fp)
    10ac:	e17fff15 	stw	r5,-4(fp)
	DWORD nxt;
#if _USE_ERASE
	DWORD scl = clst, ecl = clst, resion[2];
#endif

	if (clst < 2 || clst >= fs->n_fatent) {	/* Check range */
    10b0:	e0bfff17 	ldw	r2,-4(fp)
    10b4:	108000b0 	cmpltui	r2,r2,2
    10b8:	1000041e 	bne	r2,zero,10cc <remove_chain+0x34>
    10bc:	e0bffe17 	ldw	r2,-8(fp)
    10c0:	10c00617 	ldw	r3,24(r2)
    10c4:	e0bfff17 	ldw	r2,-4(fp)
    10c8:	10c00336 	bltu	r2,r3,10d8 <remove_chain+0x40>
		res = FR_INT_ERR;
    10cc:	00800084 	movi	r2,2
    10d0:	e0bffd15 	stw	r2,-12(fp)
	DWORD nxt;
#if _USE_ERASE
	DWORD scl = clst, ecl = clst, resion[2];
#endif

	if (clst < 2 || clst >= fs->n_fatent) {	/* Check range */
    10d4:	00002f06 	br	1194 <remove_chain+0xfc>
		res = FR_INT_ERR;

	} else {
		res = FR_OK;
    10d8:	e03ffd15 	stw	zero,-12(fp)
		while (clst < fs->n_fatent) {			/* Not a last link? */
    10dc:	00002906 	br	1184 <remove_chain+0xec>
			nxt = get_fat(fs, clst);			/* Get cluster status */
    10e0:	e13ffe17 	ldw	r4,-8(fp)
    10e4:	e17fff17 	ldw	r5,-4(fp)
    10e8:	0000a580 	call	a58 <get_fat>
    10ec:	e0bffc15 	stw	r2,-16(fp)
			if (nxt == 0) break;				/* Empty cluster? */
    10f0:	e0bffc17 	ldw	r2,-16(fp)
    10f4:	1005003a 	cmpeq	r2,r2,zero
    10f8:	1000261e 	bne	r2,zero,1194 <remove_chain+0xfc>
			if (nxt == 1) { res = FR_INT_ERR; break; }	/* Internal error? */
    10fc:	e0bffc17 	ldw	r2,-16(fp)
    1100:	10800058 	cmpnei	r2,r2,1
    1104:	1000031e 	bne	r2,zero,1114 <remove_chain+0x7c>
    1108:	00800084 	movi	r2,2
    110c:	e0bffd15 	stw	r2,-12(fp)
    1110:	00002006 	br	1194 <remove_chain+0xfc>
			if (nxt == 0xFFFFFFFF) { res = FR_DISK_ERR; break; }	/* Disk error? */
    1114:	e0bffc17 	ldw	r2,-16(fp)
    1118:	10bfffd8 	cmpnei	r2,r2,-1
    111c:	1000031e 	bne	r2,zero,112c <remove_chain+0x94>
    1120:	00800044 	movi	r2,1
    1124:	e0bffd15 	stw	r2,-12(fp)
    1128:	00001a06 	br	1194 <remove_chain+0xfc>
			res = put_fat(fs, clst, 0);			/* Mark the cluster "empty" */
    112c:	e13ffe17 	ldw	r4,-8(fp)
    1130:	e17fff17 	ldw	r5,-4(fp)
    1134:	000d883a 	mov	r6,zero
    1138:	0000d0c0 	call	d0c <put_fat>
    113c:	e0bffd15 	stw	r2,-12(fp)
			if (res != FR_OK) break;
    1140:	e0bffd17 	ldw	r2,-12(fp)
    1144:	1004c03a 	cmpne	r2,r2,zero
    1148:	1000121e 	bne	r2,zero,1194 <remove_chain+0xfc>
			if (fs->free_clust != 0xFFFFFFFF) {	/* Update FSInfo */
    114c:	e0bffe17 	ldw	r2,-8(fp)
    1150:	10800417 	ldw	r2,16(r2)
    1154:	10bfffe0 	cmpeqi	r2,r2,-1
    1158:	1000081e 	bne	r2,zero,117c <remove_chain+0xe4>
				fs->free_clust++;
    115c:	e0bffe17 	ldw	r2,-8(fp)
    1160:	10800417 	ldw	r2,16(r2)
    1164:	10c00044 	addi	r3,r2,1
    1168:	e0bffe17 	ldw	r2,-8(fp)
    116c:	10c00415 	stw	r3,16(r2)
				fs->fsi_flag = 1;
    1170:	e0fffe17 	ldw	r3,-8(fp)
    1174:	00800044 	movi	r2,1
    1178:	18800145 	stb	r2,5(r3)
				resion[1] = clust2sect(fs, ecl) + fs->csize - 1;	/* End sector */
				disk_ioctl(fs->drv, CTRL_ERASE_SECTOR, resion);		/* Erase the block */
				scl = ecl = nxt;
			}
#endif
			clst = nxt;	/* Next cluster */
    117c:	e0bffc17 	ldw	r2,-16(fp)
    1180:	e0bfff15 	stw	r2,-4(fp)
	if (clst < 2 || clst >= fs->n_fatent) {	/* Check range */
		res = FR_INT_ERR;

	} else {
		res = FR_OK;
		while (clst < fs->n_fatent) {			/* Not a last link? */
    1184:	e0bffe17 	ldw	r2,-8(fp)
    1188:	10c00617 	ldw	r3,24(r2)
    118c:	e0bfff17 	ldw	r2,-4(fp)
    1190:	10ffd336 	bltu	r2,r3,10e0 <remove_chain+0x48>
#endif
			clst = nxt;	/* Next cluster */
		}
	}

	return res;
    1194:	e0bffd17 	ldw	r2,-12(fp)
}
    1198:	e037883a 	mov	sp,fp
    119c:	dfc00117 	ldw	ra,4(sp)
    11a0:	df000017 	ldw	fp,0(sp)
    11a4:	dec00204 	addi	sp,sp,8
    11a8:	f800283a 	ret

000011ac <create_chain>:
static
DWORD create_chain (	/* 0:No free cluster, 1:Internal error, 0xFFFFFFFF:Disk error, >=2:New cluster# */
	FATFS *fs,			/* File system object */
	DWORD clst			/* Cluster# to stretch. 0 means create a new chain. */
)
{
    11ac:	defff604 	addi	sp,sp,-40
    11b0:	dfc00915 	stw	ra,36(sp)
    11b4:	df000815 	stw	fp,32(sp)
    11b8:	df000804 	addi	fp,sp,32
    11bc:	e13ffc15 	stw	r4,-16(fp)
    11c0:	e17ffd15 	stw	r5,-12(fp)
	DWORD cs, ncl, scl;
	FRESULT res;


	if (clst == 0) {		/* Create a new chain */
    11c4:	e0bffd17 	ldw	r2,-12(fp)
    11c8:	1004c03a 	cmpne	r2,r2,zero
    11cc:	10000d1e 	bne	r2,zero,1204 <create_chain+0x58>
		scl = fs->last_clust;			/* Get suggested start point */
    11d0:	e0bffc17 	ldw	r2,-16(fp)
    11d4:	10800317 	ldw	r2,12(r2)
    11d8:	e0bff915 	stw	r2,-28(fp)
		if (!scl || scl >= fs->n_fatent) scl = 1;
    11dc:	e0bff917 	ldw	r2,-28(fp)
    11e0:	1005003a 	cmpeq	r2,r2,zero
    11e4:	1000041e 	bne	r2,zero,11f8 <create_chain+0x4c>
    11e8:	e0bffc17 	ldw	r2,-16(fp)
    11ec:	10c00617 	ldw	r3,24(r2)
    11f0:	e0bff917 	ldw	r2,-28(fp)
    11f4:	10c01636 	bltu	r2,r3,1250 <create_chain+0xa4>
    11f8:	00800044 	movi	r2,1
    11fc:	e0bff915 	stw	r2,-28(fp)
    1200:	00001306 	br	1250 <create_chain+0xa4>
	}
	else {					/* Stretch the current chain */
		cs = get_fat(fs, clst);			/* Check the cluster status */
    1204:	e13ffc17 	ldw	r4,-16(fp)
    1208:	e17ffd17 	ldw	r5,-12(fp)
    120c:	0000a580 	call	a58 <get_fat>
    1210:	e0bffb15 	stw	r2,-20(fp)
		if (cs < 2) return 1;			/* It is an invalid cluster */
    1214:	e0bffb17 	ldw	r2,-20(fp)
    1218:	108000a8 	cmpgeui	r2,r2,2
    121c:	1000031e 	bne	r2,zero,122c <create_chain+0x80>
    1220:	00800044 	movi	r2,1
    1224:	e0bfff15 	stw	r2,-4(fp)
    1228:	00005e06 	br	13a4 <create_chain+0x1f8>
		if (cs < fs->n_fatent) return cs;	/* It is already followed by next cluster */
    122c:	e0bffc17 	ldw	r2,-16(fp)
    1230:	10c00617 	ldw	r3,24(r2)
    1234:	e0bffb17 	ldw	r2,-20(fp)
    1238:	10c0032e 	bgeu	r2,r3,1248 <create_chain+0x9c>
    123c:	e0bffb17 	ldw	r2,-20(fp)
    1240:	e0bfff15 	stw	r2,-4(fp)
    1244:	00005706 	br	13a4 <create_chain+0x1f8>
		scl = clst;
    1248:	e0bffd17 	ldw	r2,-12(fp)
    124c:	e0bff915 	stw	r2,-28(fp)
	}

	ncl = scl;				/* Start cluster */
    1250:	e0bff917 	ldw	r2,-28(fp)
    1254:	e0bffa15 	stw	r2,-24(fp)
	for (;;) {
		ncl++;							/* Next cluster */
    1258:	e0bffa17 	ldw	r2,-24(fp)
    125c:	10800044 	addi	r2,r2,1
    1260:	e0bffa15 	stw	r2,-24(fp)
		if (ncl >= fs->n_fatent) {		/* Wrap around */
    1264:	e0bffc17 	ldw	r2,-16(fp)
    1268:	10c00617 	ldw	r3,24(r2)
    126c:	e0bffa17 	ldw	r2,-24(fp)
    1270:	10c00736 	bltu	r2,r3,1290 <create_chain+0xe4>
			ncl = 2;
    1274:	00800084 	movi	r2,2
    1278:	e0bffa15 	stw	r2,-24(fp)
			if (ncl > scl) return 0;	/* No free cluster */
    127c:	e0fffa17 	ldw	r3,-24(fp)
    1280:	e0bff917 	ldw	r2,-28(fp)
    1284:	10c0022e 	bgeu	r2,r3,1290 <create_chain+0xe4>
    1288:	e03fff15 	stw	zero,-4(fp)
    128c:	00004506 	br	13a4 <create_chain+0x1f8>
		}
		cs = get_fat(fs, ncl);			/* Get the cluster status */
    1290:	e13ffc17 	ldw	r4,-16(fp)
    1294:	e17ffa17 	ldw	r5,-24(fp)
    1298:	0000a580 	call	a58 <get_fat>
    129c:	e0bffb15 	stw	r2,-20(fp)
		if (cs == 0) break;				/* Found a free cluster */
    12a0:	e0bffb17 	ldw	r2,-20(fp)
    12a4:	1005003a 	cmpeq	r2,r2,zero
    12a8:	10000e1e 	bne	r2,zero,12e4 <create_chain+0x138>
		if (cs == 0xFFFFFFFF || cs == 1)/* An error occurred */
    12ac:	e0bffb17 	ldw	r2,-20(fp)
    12b0:	10bfffe0 	cmpeqi	r2,r2,-1
    12b4:	1000031e 	bne	r2,zero,12c4 <create_chain+0x118>
    12b8:	e0bffb17 	ldw	r2,-20(fp)
    12bc:	10800058 	cmpnei	r2,r2,1
    12c0:	1000031e 	bne	r2,zero,12d0 <create_chain+0x124>
			return cs;
    12c4:	e0bffb17 	ldw	r2,-20(fp)
    12c8:	e0bfff15 	stw	r2,-4(fp)
    12cc:	00003506 	br	13a4 <create_chain+0x1f8>
		if (ncl == scl) return 0;		/* No free cluster */
    12d0:	e0fffa17 	ldw	r3,-24(fp)
    12d4:	e0bff917 	ldw	r2,-28(fp)
    12d8:	18bfdf1e 	bne	r3,r2,1258 <create_chain+0xac>
    12dc:	e03fff15 	stw	zero,-4(fp)
    12e0:	00003006 	br	13a4 <create_chain+0x1f8>
	}

	res = put_fat(fs, ncl, 0x0FFFFFFF);	/* Mark the new cluster "last link" */
    12e4:	e13ffc17 	ldw	r4,-16(fp)
    12e8:	e17ffa17 	ldw	r5,-24(fp)
    12ec:	01840034 	movhi	r6,4096
    12f0:	31bfffc4 	addi	r6,r6,-1
    12f4:	0000d0c0 	call	d0c <put_fat>
    12f8:	e0bff815 	stw	r2,-32(fp)
	if (res == FR_OK && clst != 0) {
    12fc:	e0bff817 	ldw	r2,-32(fp)
    1300:	1004c03a 	cmpne	r2,r2,zero
    1304:	1000081e 	bne	r2,zero,1328 <create_chain+0x17c>
    1308:	e0bffd17 	ldw	r2,-12(fp)
    130c:	1005003a 	cmpeq	r2,r2,zero
    1310:	1000051e 	bne	r2,zero,1328 <create_chain+0x17c>
		res = put_fat(fs, clst, ncl);	/* Link it to the previous one if needed */
    1314:	e13ffc17 	ldw	r4,-16(fp)
    1318:	e17ffd17 	ldw	r5,-12(fp)
    131c:	e1bffa17 	ldw	r6,-24(fp)
    1320:	0000d0c0 	call	d0c <put_fat>
    1324:	e0bff815 	stw	r2,-32(fp)
	}
	if (res == FR_OK) {
    1328:	e0bff817 	ldw	r2,-32(fp)
    132c:	1004c03a 	cmpne	r2,r2,zero
    1330:	1000101e 	bne	r2,zero,1374 <create_chain+0x1c8>
		fs->last_clust = ncl;			/* Update FSINFO */
    1334:	e0fffc17 	ldw	r3,-16(fp)
    1338:	e0bffa17 	ldw	r2,-24(fp)
    133c:	18800315 	stw	r2,12(r3)
		if (fs->free_clust != 0xFFFFFFFF) {
    1340:	e0bffc17 	ldw	r2,-16(fp)
    1344:	10800417 	ldw	r2,16(r2)
    1348:	10bfffe0 	cmpeqi	r2,r2,-1
    134c:	1000131e 	bne	r2,zero,139c <create_chain+0x1f0>
			fs->free_clust--;
    1350:	e0bffc17 	ldw	r2,-16(fp)
    1354:	10800417 	ldw	r2,16(r2)
    1358:	10ffffc4 	addi	r3,r2,-1
    135c:	e0bffc17 	ldw	r2,-16(fp)
    1360:	10c00415 	stw	r3,16(r2)
			fs->fsi_flag = 1;
    1364:	e0fffc17 	ldw	r3,-16(fp)
    1368:	00800044 	movi	r2,1
    136c:	18800145 	stb	r2,5(r3)
    1370:	00000a06 	br	139c <create_chain+0x1f0>
		}
	} else {
		ncl = (res == FR_DISK_ERR) ? 0xFFFFFFFF : 1;
    1374:	e0bff817 	ldw	r2,-32(fp)
    1378:	10800058 	cmpnei	r2,r2,1
    137c:	1000031e 	bne	r2,zero,138c <create_chain+0x1e0>
    1380:	00bfffc4 	movi	r2,-1
    1384:	e0bffe15 	stw	r2,-8(fp)
    1388:	00000206 	br	1394 <create_chain+0x1e8>
    138c:	00800044 	movi	r2,1
    1390:	e0bffe15 	stw	r2,-8(fp)
    1394:	e0bffe17 	ldw	r2,-8(fp)
    1398:	e0bffa15 	stw	r2,-24(fp)
	}

	return ncl;		/* Return new cluster number or error code */
    139c:	e0bffa17 	ldw	r2,-24(fp)
    13a0:	e0bfff15 	stw	r2,-4(fp)
    13a4:	e0bfff17 	ldw	r2,-4(fp)
}
    13a8:	e037883a 	mov	sp,fp
    13ac:	dfc00117 	ldw	ra,4(sp)
    13b0:	df000017 	ldw	fp,0(sp)
    13b4:	dec00204 	addi	sp,sp,8
    13b8:	f800283a 	ret

000013bc <dir_sdi>:
static
FRESULT dir_sdi (
	DIR *dj,		/* Pointer to directory object */
	WORD idx		/* Directory index number */
)
{
    13bc:	defff904 	addi	sp,sp,-28
    13c0:	dfc00615 	stw	ra,24(sp)
    13c4:	df000515 	stw	fp,20(sp)
    13c8:	df000504 	addi	fp,sp,20
    13cc:	e13ffd15 	stw	r4,-12(fp)
    13d0:	e17ffe0d 	sth	r5,-8(fp)
	DWORD clst;
	WORD ic;


	dj->index = idx;
    13d4:	e0fffd17 	ldw	r3,-12(fp)
    13d8:	e0bffe0b 	ldhu	r2,-8(fp)
    13dc:	1880018d 	sth	r2,6(r3)
	clst = dj->sclust;
    13e0:	e0bffd17 	ldw	r2,-12(fp)
    13e4:	10800217 	ldw	r2,8(r2)
    13e8:	e0bffc15 	stw	r2,-16(fp)
	if (clst == 1 || clst >= dj->fs->n_fatent)	/* Check start cluster range */
    13ec:	e0bffc17 	ldw	r2,-16(fp)
    13f0:	10800060 	cmpeqi	r2,r2,1
    13f4:	1000051e 	bne	r2,zero,140c <dir_sdi+0x50>
    13f8:	e0bffd17 	ldw	r2,-12(fp)
    13fc:	10800017 	ldw	r2,0(r2)
    1400:	10c00617 	ldw	r3,24(r2)
    1404:	e0bffc17 	ldw	r2,-16(fp)
    1408:	10c00336 	bltu	r2,r3,1418 <dir_sdi+0x5c>
		return FR_INT_ERR;
    140c:	00800084 	movi	r2,2
    1410:	e0bfff15 	stw	r2,-4(fp)
    1414:	00006206 	br	15a0 <dir_sdi+0x1e4>
	if (!clst && dj->fs->fs_type == FS_FAT32)	/* Replace cluster# 0 with root cluster# if in FAT32 */
    1418:	e0bffc17 	ldw	r2,-16(fp)
    141c:	1004c03a 	cmpne	r2,r2,zero
    1420:	10000a1e 	bne	r2,zero,144c <dir_sdi+0x90>
    1424:	e0bffd17 	ldw	r2,-12(fp)
    1428:	10800017 	ldw	r2,0(r2)
    142c:	10800003 	ldbu	r2,0(r2)
    1430:	10803fcc 	andi	r2,r2,255
    1434:	108000d8 	cmpnei	r2,r2,3
    1438:	1000041e 	bne	r2,zero,144c <dir_sdi+0x90>
		clst = dj->fs->dirbase;
    143c:	e0bffd17 	ldw	r2,-12(fp)
    1440:	10800017 	ldw	r2,0(r2)
    1444:	10800917 	ldw	r2,36(r2)
    1448:	e0bffc15 	stw	r2,-16(fp)

	if (clst == 0) {	/* Static table (root-dir in FAT12/16) */
    144c:	e0bffc17 	ldw	r2,-16(fp)
    1450:	1004c03a 	cmpne	r2,r2,zero
    1454:	1000161e 	bne	r2,zero,14b0 <dir_sdi+0xf4>
		dj->clust = clst;
    1458:	e0fffd17 	ldw	r3,-12(fp)
    145c:	e0bffc17 	ldw	r2,-16(fp)
    1460:	18800315 	stw	r2,12(r3)
		if (idx >= dj->fs->n_rootdir)		/* Index is out of range */
    1464:	e0bffd17 	ldw	r2,-12(fp)
    1468:	10800017 	ldw	r2,0(r2)
    146c:	1080020b 	ldhu	r2,8(r2)
    1470:	10ffffcc 	andi	r3,r2,65535
    1474:	e0bffe0b 	ldhu	r2,-8(fp)
    1478:	10c00336 	bltu	r2,r3,1488 <dir_sdi+0xcc>
			return FR_INT_ERR;
    147c:	00800084 	movi	r2,2
    1480:	e0bfff15 	stw	r2,-4(fp)
    1484:	00004606 	br	15a0 <dir_sdi+0x1e4>
		dj->sect = dj->fs->dirbase + idx / (SS(dj->fs) / SZ_DIR);	/* Sector# */
    1488:	e0bffd17 	ldw	r2,-12(fp)
    148c:	10800017 	ldw	r2,0(r2)
    1490:	10c00917 	ldw	r3,36(r2)
    1494:	e0bffe0b 	ldhu	r2,-8(fp)
    1498:	1004d13a 	srli	r2,r2,4
    149c:	10bfffcc 	andi	r2,r2,65535
    14a0:	1887883a 	add	r3,r3,r2
    14a4:	e0bffd17 	ldw	r2,-12(fp)
    14a8:	10c00415 	stw	r3,16(r2)
    14ac:	00003206 	br	1578 <dir_sdi+0x1bc>
	}
	else {				/* Dynamic table (sub-dirs or root-dir in FAT32) */
		ic = SS(dj->fs) / SZ_DIR * dj->fs->csize;	/* Entries per cluster */
    14b0:	e0bffd17 	ldw	r2,-12(fp)
    14b4:	10800017 	ldw	r2,0(r2)
    14b8:	10800083 	ldbu	r2,2(r2)
    14bc:	10803fcc 	andi	r2,r2,255
    14c0:	1004913a 	slli	r2,r2,4
    14c4:	e0bffb0d 	sth	r2,-20(fp)
		while (idx >= ic) {	/* Follow cluster chain */
    14c8:	00001a06 	br	1534 <dir_sdi+0x178>
			clst = get_fat(dj->fs, clst);				/* Get next cluster */
    14cc:	e0bffd17 	ldw	r2,-12(fp)
    14d0:	11000017 	ldw	r4,0(r2)
    14d4:	e17ffc17 	ldw	r5,-16(fp)
    14d8:	0000a580 	call	a58 <get_fat>
    14dc:	e0bffc15 	stw	r2,-16(fp)
			if (clst == 0xFFFFFFFF) return FR_DISK_ERR;	/* Disk error */
    14e0:	e0bffc17 	ldw	r2,-16(fp)
    14e4:	10bfffd8 	cmpnei	r2,r2,-1
    14e8:	1000031e 	bne	r2,zero,14f8 <dir_sdi+0x13c>
    14ec:	00800044 	movi	r2,1
    14f0:	e0bfff15 	stw	r2,-4(fp)
    14f4:	00002a06 	br	15a0 <dir_sdi+0x1e4>
			if (clst < 2 || clst >= dj->fs->n_fatent)	/* Reached to end of table or int error */
    14f8:	e0bffc17 	ldw	r2,-16(fp)
    14fc:	108000b0 	cmpltui	r2,r2,2
    1500:	1000051e 	bne	r2,zero,1518 <dir_sdi+0x15c>
    1504:	e0bffd17 	ldw	r2,-12(fp)
    1508:	10800017 	ldw	r2,0(r2)
    150c:	10c00617 	ldw	r3,24(r2)
    1510:	e0bffc17 	ldw	r2,-16(fp)
    1514:	10c00336 	bltu	r2,r3,1524 <dir_sdi+0x168>
				return FR_INT_ERR;
    1518:	00800084 	movi	r2,2
    151c:	e0bfff15 	stw	r2,-4(fp)
    1520:	00001f06 	br	15a0 <dir_sdi+0x1e4>
			idx -= ic;
    1524:	e0bffe0b 	ldhu	r2,-8(fp)
    1528:	e0fffb0b 	ldhu	r3,-20(fp)
    152c:	10c5c83a 	sub	r2,r2,r3
    1530:	e0bffe0d 	sth	r2,-8(fp)
			return FR_INT_ERR;
		dj->sect = dj->fs->dirbase + idx / (SS(dj->fs) / SZ_DIR);	/* Sector# */
	}
	else {				/* Dynamic table (sub-dirs or root-dir in FAT32) */
		ic = SS(dj->fs) / SZ_DIR * dj->fs->csize;	/* Entries per cluster */
		while (idx >= ic) {	/* Follow cluster chain */
    1534:	e0fffe0b 	ldhu	r3,-8(fp)
    1538:	e0bffb0b 	ldhu	r2,-20(fp)
    153c:	18bfe32e 	bgeu	r3,r2,14cc <dir_sdi+0x110>
			if (clst == 0xFFFFFFFF) return FR_DISK_ERR;	/* Disk error */
			if (clst < 2 || clst >= dj->fs->n_fatent)	/* Reached to end of table or int error */
				return FR_INT_ERR;
			idx -= ic;
		}
		dj->clust = clst;
    1540:	e0fffd17 	ldw	r3,-12(fp)
    1544:	e0bffc17 	ldw	r2,-16(fp)
    1548:	18800315 	stw	r2,12(r3)
		dj->sect = clust2sect(dj->fs, clst) + idx / (SS(dj->fs) / SZ_DIR);	/* Sector# */
    154c:	e0bffd17 	ldw	r2,-12(fp)
    1550:	11000017 	ldw	r4,0(r2)
    1554:	e17ffc17 	ldw	r5,-16(fp)
    1558:	00009e40 	call	9e4 <clust2sect>
    155c:	1007883a 	mov	r3,r2
    1560:	e0bffe0b 	ldhu	r2,-8(fp)
    1564:	1004d13a 	srli	r2,r2,4
    1568:	10bfffcc 	andi	r2,r2,65535
    156c:	1887883a 	add	r3,r3,r2
    1570:	e0bffd17 	ldw	r2,-12(fp)
    1574:	10c00415 	stw	r3,16(r2)
	}

	dj->dir = dj->fs->win + (idx % (SS(dj->fs) / SZ_DIR)) * SZ_DIR;	/* Ptr to the entry in the sector */
    1578:	e0bffd17 	ldw	r2,-12(fp)
    157c:	10800017 	ldw	r2,0(r2)
    1580:	10c00c04 	addi	r3,r2,48
    1584:	e0bffe0b 	ldhu	r2,-8(fp)
    1588:	108003cc 	andi	r2,r2,15
    158c:	1004917a 	slli	r2,r2,5
    1590:	1887883a 	add	r3,r3,r2
    1594:	e0bffd17 	ldw	r2,-12(fp)
    1598:	10c00515 	stw	r3,20(r2)

	return FR_OK;	/* Seek succeeded */
    159c:	e03fff15 	stw	zero,-4(fp)
    15a0:	e0bfff17 	ldw	r2,-4(fp)
}
    15a4:	e037883a 	mov	sp,fp
    15a8:	dfc00117 	ldw	ra,4(sp)
    15ac:	df000017 	ldw	fp,0(sp)
    15b0:	dec00204 	addi	sp,sp,8
    15b4:	f800283a 	ret

000015b8 <dir_next>:
static
FRESULT dir_next (	/* FR_OK:Succeeded, FR_NO_FILE:End of table, FR_DENIED:EOT and could not stretch */
	DIR *dj,		/* Pointer to directory object */
	int stretch		/* 0: Do not stretch table, 1: Stretch table if needed */
)
{
    15b8:	defff804 	addi	sp,sp,-32
    15bc:	dfc00715 	stw	ra,28(sp)
    15c0:	df000615 	stw	fp,24(sp)
    15c4:	dc000515 	stw	r16,20(sp)
    15c8:	df000504 	addi	fp,sp,20
    15cc:	e13ffd15 	stw	r4,-12(fp)
    15d0:	e17ffe15 	stw	r5,-8(fp)
	DWORD clst;
	WORD i;


	stretch = stretch;		/* To suppress warning on read-only cfg. */
	i = dj->index + 1;
    15d4:	e0bffd17 	ldw	r2,-12(fp)
    15d8:	1080018b 	ldhu	r2,6(r2)
    15dc:	10800044 	addi	r2,r2,1
    15e0:	e0bffb8d 	sth	r2,-18(fp)
	if (!i || !dj->sect)	/* Report EOT when index has reached 65535 */
    15e4:	e0bffb8b 	ldhu	r2,-18(fp)
    15e8:	1005003a 	cmpeq	r2,r2,zero
    15ec:	1000041e 	bne	r2,zero,1600 <dir_next+0x48>
    15f0:	e0bffd17 	ldw	r2,-12(fp)
    15f4:	10800417 	ldw	r2,16(r2)
    15f8:	1004c03a 	cmpne	r2,r2,zero
    15fc:	1000031e 	bne	r2,zero,160c <dir_next+0x54>
		return FR_NO_FILE;
    1600:	00800104 	movi	r2,4
    1604:	e0bfff15 	stw	r2,-4(fp)
    1608:	0000a806 	br	18ac <dir_next+0x2f4>

	if (!(i % (SS(dj->fs) / SZ_DIR))) {	/* Sector changed? */
    160c:	e0bffb8b 	ldhu	r2,-18(fp)
    1610:	108003cc 	andi	r2,r2,15
    1614:	1004c03a 	cmpne	r2,r2,zero
    1618:	1000971e 	bne	r2,zero,1878 <dir_next+0x2c0>
		dj->sect++;					/* Next sector */
    161c:	e0bffd17 	ldw	r2,-12(fp)
    1620:	10800417 	ldw	r2,16(r2)
    1624:	10c00044 	addi	r3,r2,1
    1628:	e0bffd17 	ldw	r2,-12(fp)
    162c:	10c00415 	stw	r3,16(r2)

		if (dj->clust == 0) {	/* Static table */
    1630:	e0bffd17 	ldw	r2,-12(fp)
    1634:	10800317 	ldw	r2,12(r2)
    1638:	1004c03a 	cmpne	r2,r2,zero
    163c:	1000091e 	bne	r2,zero,1664 <dir_next+0xac>
			if (i >= dj->fs->n_rootdir)	/* Report EOT when end of table */
    1640:	e0bffd17 	ldw	r2,-12(fp)
    1644:	10800017 	ldw	r2,0(r2)
    1648:	1080020b 	ldhu	r2,8(r2)
    164c:	10ffffcc 	andi	r3,r2,65535
    1650:	e0bffb8b 	ldhu	r2,-18(fp)
    1654:	10c08836 	bltu	r2,r3,1878 <dir_next+0x2c0>
				return FR_NO_FILE;
    1658:	00800104 	movi	r2,4
    165c:	e0bfff15 	stw	r2,-4(fp)
    1660:	00009206 	br	18ac <dir_next+0x2f4>
		}
		else {					/* Dynamic table */
			if (((i / (SS(dj->fs) / SZ_DIR)) & (dj->fs->csize - 1)) == 0) {	/* Cluster changed? */
    1664:	e0bffb8b 	ldhu	r2,-18(fp)
    1668:	1004d13a 	srli	r2,r2,4
    166c:	10ffffcc 	andi	r3,r2,65535
    1670:	e0bffd17 	ldw	r2,-12(fp)
    1674:	10800017 	ldw	r2,0(r2)
    1678:	10800083 	ldbu	r2,2(r2)
    167c:	10803fcc 	andi	r2,r2,255
    1680:	10bfffc4 	addi	r2,r2,-1
    1684:	1884703a 	and	r2,r3,r2
    1688:	1004c03a 	cmpne	r2,r2,zero
    168c:	10007a1e 	bne	r2,zero,1878 <dir_next+0x2c0>
				clst = get_fat(dj->fs, dj->clust);				/* Get next cluster */
    1690:	e0bffd17 	ldw	r2,-12(fp)
    1694:	11000017 	ldw	r4,0(r2)
    1698:	e0bffd17 	ldw	r2,-12(fp)
    169c:	11400317 	ldw	r5,12(r2)
    16a0:	0000a580 	call	a58 <get_fat>
    16a4:	e0bffc15 	stw	r2,-16(fp)
				if (clst <= 1) return FR_INT_ERR;
    16a8:	e0bffc17 	ldw	r2,-16(fp)
    16ac:	108000a8 	cmpgeui	r2,r2,2
    16b0:	1000031e 	bne	r2,zero,16c0 <dir_next+0x108>
    16b4:	00800084 	movi	r2,2
    16b8:	e0bfff15 	stw	r2,-4(fp)
    16bc:	00007b06 	br	18ac <dir_next+0x2f4>
				if (clst == 0xFFFFFFFF) return FR_DISK_ERR;
    16c0:	e0bffc17 	ldw	r2,-16(fp)
    16c4:	10bfffd8 	cmpnei	r2,r2,-1
    16c8:	1000031e 	bne	r2,zero,16d8 <dir_next+0x120>
    16cc:	00800044 	movi	r2,1
    16d0:	e0bfff15 	stw	r2,-4(fp)
    16d4:	00007506 	br	18ac <dir_next+0x2f4>
				if (clst >= dj->fs->n_fatent) {					/* When it reached end of dynamic table */
    16d8:	e0bffd17 	ldw	r2,-12(fp)
    16dc:	10800017 	ldw	r2,0(r2)
    16e0:	10c00617 	ldw	r3,24(r2)
    16e4:	e0bffc17 	ldw	r2,-16(fp)
    16e8:	10c05936 	bltu	r2,r3,1850 <dir_next+0x298>
#if !_FS_READONLY
					BYTE c;
					if (!stretch) return FR_NO_FILE;			/* When do not stretch, report EOT */
    16ec:	e0bffe17 	ldw	r2,-8(fp)
    16f0:	1004c03a 	cmpne	r2,r2,zero
    16f4:	1000031e 	bne	r2,zero,1704 <dir_next+0x14c>
    16f8:	00800104 	movi	r2,4
    16fc:	e0bfff15 	stw	r2,-4(fp)
    1700:	00006a06 	br	18ac <dir_next+0x2f4>
					clst = create_chain(dj->fs, dj->clust);		/* Stretch cluster chain */
    1704:	e0bffd17 	ldw	r2,-12(fp)
    1708:	11000017 	ldw	r4,0(r2)
    170c:	e0bffd17 	ldw	r2,-12(fp)
    1710:	11400317 	ldw	r5,12(r2)
    1714:	00011ac0 	call	11ac <create_chain>
    1718:	e0bffc15 	stw	r2,-16(fp)
					if (clst == 0) return FR_DENIED;			/* No free cluster */
    171c:	e0bffc17 	ldw	r2,-16(fp)
    1720:	1004c03a 	cmpne	r2,r2,zero
    1724:	1000031e 	bne	r2,zero,1734 <dir_next+0x17c>
    1728:	008001c4 	movi	r2,7
    172c:	e0bfff15 	stw	r2,-4(fp)
    1730:	00005e06 	br	18ac <dir_next+0x2f4>
					if (clst == 1) return FR_INT_ERR;
    1734:	e0bffc17 	ldw	r2,-16(fp)
    1738:	10800058 	cmpnei	r2,r2,1
    173c:	1000031e 	bne	r2,zero,174c <dir_next+0x194>
    1740:	00800084 	movi	r2,2
    1744:	e0bfff15 	stw	r2,-4(fp)
    1748:	00005806 	br	18ac <dir_next+0x2f4>
					if (clst == 0xFFFFFFFF) return FR_DISK_ERR;
    174c:	e0bffc17 	ldw	r2,-16(fp)
    1750:	10bfffd8 	cmpnei	r2,r2,-1
    1754:	1000031e 	bne	r2,zero,1764 <dir_next+0x1ac>
    1758:	00800044 	movi	r2,1
    175c:	e0bfff15 	stw	r2,-4(fp)
    1760:	00005206 	br	18ac <dir_next+0x2f4>
					/* Clean-up stretched table */
					if (move_window(dj->fs, 0)) return FR_DISK_ERR;	/* Flush active window */
    1764:	e0bffd17 	ldw	r2,-12(fp)
    1768:	11000017 	ldw	r4,0(r2)
    176c:	000b883a 	mov	r5,zero
    1770:	00006040 	call	604 <move_window>
    1774:	1005003a 	cmpeq	r2,r2,zero
    1778:	1000031e 	bne	r2,zero,1788 <dir_next+0x1d0>
    177c:	00800044 	movi	r2,1
    1780:	e0bfff15 	stw	r2,-4(fp)
    1784:	00004906 	br	18ac <dir_next+0x2f4>
					mem_set(dj->fs->win, 0, SS(dj->fs));			/* Clear window buffer */
    1788:	e0bffd17 	ldw	r2,-12(fp)
    178c:	10800017 	ldw	r2,0(r2)
    1790:	11000c04 	addi	r4,r2,48
    1794:	000b883a 	mov	r5,zero
    1798:	01808004 	movi	r6,512
    179c:	00004740 	call	474 <mem_set>
					dj->fs->winsect = clust2sect(dj->fs, clst);	/* Cluster start sector */
    17a0:	e0bffd17 	ldw	r2,-12(fp)
    17a4:	14000017 	ldw	r16,0(r2)
    17a8:	e0bffd17 	ldw	r2,-12(fp)
    17ac:	11000017 	ldw	r4,0(r2)
    17b0:	e17ffc17 	ldw	r5,-16(fp)
    17b4:	00009e40 	call	9e4 <clust2sect>
    17b8:	80800b15 	stw	r2,44(r16)
					for (c = 0; c < dj->fs->csize; c++) {		/* Fill the new cluster with 0 */
    17bc:	e03ffb05 	stb	zero,-20(fp)
    17c0:	00001506 	br	1818 <dir_next+0x260>
						dj->fs->wflag = 1;
    17c4:	e0bffd17 	ldw	r2,-12(fp)
    17c8:	10c00017 	ldw	r3,0(r2)
    17cc:	00800044 	movi	r2,1
    17d0:	18800105 	stb	r2,4(r3)
						if (move_window(dj->fs, 0)) return FR_DISK_ERR;
    17d4:	e0bffd17 	ldw	r2,-12(fp)
    17d8:	11000017 	ldw	r4,0(r2)
    17dc:	000b883a 	mov	r5,zero
    17e0:	00006040 	call	604 <move_window>
    17e4:	1005003a 	cmpeq	r2,r2,zero
    17e8:	1000031e 	bne	r2,zero,17f8 <dir_next+0x240>
    17ec:	00800044 	movi	r2,1
    17f0:	e0bfff15 	stw	r2,-4(fp)
    17f4:	00002d06 	br	18ac <dir_next+0x2f4>
						dj->fs->winsect++;
    17f8:	e0bffd17 	ldw	r2,-12(fp)
    17fc:	10c00017 	ldw	r3,0(r2)
    1800:	18800b17 	ldw	r2,44(r3)
    1804:	10800044 	addi	r2,r2,1
    1808:	18800b15 	stw	r2,44(r3)
					if (clst == 0xFFFFFFFF) return FR_DISK_ERR;
					/* Clean-up stretched table */
					if (move_window(dj->fs, 0)) return FR_DISK_ERR;	/* Flush active window */
					mem_set(dj->fs->win, 0, SS(dj->fs));			/* Clear window buffer */
					dj->fs->winsect = clust2sect(dj->fs, clst);	/* Cluster start sector */
					for (c = 0; c < dj->fs->csize; c++) {		/* Fill the new cluster with 0 */
    180c:	e0bffb03 	ldbu	r2,-20(fp)
    1810:	10800044 	addi	r2,r2,1
    1814:	e0bffb05 	stb	r2,-20(fp)
    1818:	e0bffd17 	ldw	r2,-12(fp)
    181c:	10800017 	ldw	r2,0(r2)
    1820:	10800083 	ldbu	r2,2(r2)
    1824:	10c03fcc 	andi	r3,r2,255
    1828:	e0bffb03 	ldbu	r2,-20(fp)
    182c:	10ffe536 	bltu	r2,r3,17c4 <dir_next+0x20c>
						dj->fs->wflag = 1;
						if (move_window(dj->fs, 0)) return FR_DISK_ERR;
						dj->fs->winsect++;
					}
					dj->fs->winsect -= c;						/* Rewind window address */
    1830:	e0bffd17 	ldw	r2,-12(fp)
    1834:	11000017 	ldw	r4,0(r2)
    1838:	e0bffd17 	ldw	r2,-12(fp)
    183c:	10800017 	ldw	r2,0(r2)
    1840:	10c00b17 	ldw	r3,44(r2)
    1844:	e0bffb03 	ldbu	r2,-20(fp)
    1848:	1885c83a 	sub	r2,r3,r2
    184c:	20800b15 	stw	r2,44(r4)
#else
					return FR_NO_FILE;			/* Report EOT */
#endif
				}
				dj->clust = clst;				/* Initialize data for new cluster */
    1850:	e0fffd17 	ldw	r3,-12(fp)
    1854:	e0bffc17 	ldw	r2,-16(fp)
    1858:	18800315 	stw	r2,12(r3)
				dj->sect = clust2sect(dj->fs, clst);
    185c:	e0bffd17 	ldw	r2,-12(fp)
    1860:	11000017 	ldw	r4,0(r2)
    1864:	e17ffc17 	ldw	r5,-16(fp)
    1868:	00009e40 	call	9e4 <clust2sect>
    186c:	1007883a 	mov	r3,r2
    1870:	e0bffd17 	ldw	r2,-12(fp)
    1874:	10c00415 	stw	r3,16(r2)
			}
		}
	}

	dj->index = i;
    1878:	e0fffd17 	ldw	r3,-12(fp)
    187c:	e0bffb8b 	ldhu	r2,-18(fp)
    1880:	1880018d 	sth	r2,6(r3)
	dj->dir = dj->fs->win + (i % (SS(dj->fs) / SZ_DIR)) * SZ_DIR;
    1884:	e0bffd17 	ldw	r2,-12(fp)
    1888:	10800017 	ldw	r2,0(r2)
    188c:	10c00c04 	addi	r3,r2,48
    1890:	e0bffb8b 	ldhu	r2,-18(fp)
    1894:	108003cc 	andi	r2,r2,15
    1898:	1004917a 	slli	r2,r2,5
    189c:	1887883a 	add	r3,r3,r2
    18a0:	e0bffd17 	ldw	r2,-12(fp)
    18a4:	10c00515 	stw	r3,20(r2)

	return FR_OK;
    18a8:	e03fff15 	stw	zero,-4(fp)
    18ac:	e0bfff17 	ldw	r2,-4(fp)
}
    18b0:	e037883a 	mov	sp,fp
    18b4:	dfc00217 	ldw	ra,8(sp)
    18b8:	df000117 	ldw	fp,4(sp)
    18bc:	dc000017 	ldw	r16,0(sp)
    18c0:	dec00304 	addi	sp,sp,12
    18c4:	f800283a 	ret

000018c8 <cmp_lfn>:
static
int cmp_lfn (			/* 1:Matched, 0:Not matched */
	WCHAR *lfnbuf,		/* Pointer to the LFN to be compared */
	BYTE *dir			/* Pointer to the directory entry containing a part of LFN */
)
{
    18c8:	defff804 	addi	sp,sp,-32
    18cc:	dfc00715 	stw	ra,28(sp)
    18d0:	df000615 	stw	fp,24(sp)
    18d4:	df000604 	addi	fp,sp,24
    18d8:	e13ffd15 	stw	r4,-12(fp)
    18dc:	e17ffe15 	stw	r5,-8(fp)
	UINT i, s;
	WCHAR wc, uc;


	i = ((dir[LDIR_Ord] & ~LLE) - 1) * 13;	/* Get offset in the LFN buffer */
    18e0:	e0bffe17 	ldw	r2,-8(fp)
    18e4:	10800003 	ldbu	r2,0(r2)
    18e8:	10c03fcc 	andi	r3,r2,255
    18ec:	00bfefc4 	movi	r2,-65
    18f0:	1884703a 	and	r2,r3,r2
    18f4:	10800364 	muli	r2,r2,13
    18f8:	10bffcc4 	addi	r2,r2,-13
    18fc:	e0bffc15 	stw	r2,-16(fp)
	s = 0; wc = 1;
    1900:	e03ffb15 	stw	zero,-20(fp)
    1904:	00800044 	movi	r2,1
    1908:	e0bffa8d 	sth	r2,-22(fp)
	do {
		uc = LD_WORD(dir+LfnOfs[s]);	/* Pick an LFN character from the entry */
    190c:	e0fffb17 	ldw	r3,-20(fp)
    1910:	00800074 	movhi	r2,1
    1914:	109d2704 	addi	r2,r2,29852
    1918:	10c5883a 	add	r2,r2,r3
    191c:	10800003 	ldbu	r2,0(r2)
    1920:	10803fcc 	andi	r2,r2,255
    1924:	1007883a 	mov	r3,r2
    1928:	e0bffe17 	ldw	r2,-8(fp)
    192c:	1885883a 	add	r2,r3,r2
    1930:	10800044 	addi	r2,r2,1
    1934:	10800003 	ldbu	r2,0(r2)
    1938:	10803fcc 	andi	r2,r2,255
    193c:	1004923a 	slli	r2,r2,8
    1940:	1009883a 	mov	r4,r2
    1944:	e0fffb17 	ldw	r3,-20(fp)
    1948:	00800074 	movhi	r2,1
    194c:	109d2704 	addi	r2,r2,29852
    1950:	10c5883a 	add	r2,r2,r3
    1954:	10800003 	ldbu	r2,0(r2)
    1958:	10803fcc 	andi	r2,r2,255
    195c:	1007883a 	mov	r3,r2
    1960:	e0bffe17 	ldw	r2,-8(fp)
    1964:	1885883a 	add	r2,r3,r2
    1968:	10800003 	ldbu	r2,0(r2)
    196c:	10803fcc 	andi	r2,r2,255
    1970:	2084b03a 	or	r2,r4,r2
    1974:	e0bffa0d 	sth	r2,-24(fp)
		if (wc) {	/* Last char has not been processed */
    1978:	e0bffa8b 	ldhu	r2,-22(fp)
    197c:	1005003a 	cmpeq	r2,r2,zero
    1980:	1000161e 	bne	r2,zero,19dc <cmp_lfn+0x114>
			wc = ff_wtoupper(uc);		/* Convert it to upper case */
    1984:	e13ffa0b 	ldhu	r4,-24(fp)
    1988:	0007d8c0 	call	7d8c <ff_wtoupper>
    198c:	e0bffa8d 	sth	r2,-22(fp)
			if (i >= _MAX_LFN || wc != ff_wtoupper(lfnbuf[i++]))	/* Compare it */
    1990:	e0bffc17 	ldw	r2,-16(fp)
    1994:	10803fe8 	cmpgeui	r2,r2,255
    1998:	10000e1e 	bne	r2,zero,19d4 <cmp_lfn+0x10c>
    199c:	e0bffc17 	ldw	r2,-16(fp)
    19a0:	1085883a 	add	r2,r2,r2
    19a4:	1007883a 	mov	r3,r2
    19a8:	e0bffd17 	ldw	r2,-12(fp)
    19ac:	1885883a 	add	r2,r3,r2
    19b0:	1080000b 	ldhu	r2,0(r2)
    19b4:	113fffcc 	andi	r4,r2,65535
    19b8:	e0bffc17 	ldw	r2,-16(fp)
    19bc:	10800044 	addi	r2,r2,1
    19c0:	e0bffc15 	stw	r2,-16(fp)
    19c4:	0007d8c0 	call	7d8c <ff_wtoupper>
    19c8:	10ffffcc 	andi	r3,r2,65535
    19cc:	e0bffa8b 	ldhu	r2,-22(fp)
    19d0:	18800726 	beq	r3,r2,19f0 <cmp_lfn+0x128>
				return 0;				/* Not matched */
    19d4:	e03fff15 	stw	zero,-4(fp)
    19d8:	00002106 	br	1a60 <cmp_lfn+0x198>
		} else {
			if (uc != 0xFFFF) return 0;	/* Check filler */
    19dc:	e0fffa0b 	ldhu	r3,-24(fp)
    19e0:	00bfffd4 	movui	r2,65535
    19e4:	18800226 	beq	r3,r2,19f0 <cmp_lfn+0x128>
    19e8:	e03fff15 	stw	zero,-4(fp)
    19ec:	00001c06 	br	1a60 <cmp_lfn+0x198>
		}
	} while (++s < 13);				/* Repeat until all chars in the entry are checked */
    19f0:	e0bffb17 	ldw	r2,-20(fp)
    19f4:	10800044 	addi	r2,r2,1
    19f8:	e0bffb15 	stw	r2,-20(fp)
    19fc:	e0bffb17 	ldw	r2,-20(fp)
    1a00:	10800370 	cmpltui	r2,r2,13
    1a04:	103fc11e 	bne	r2,zero,190c <cmp_lfn+0x44>

	if ((dir[LDIR_Ord] & LLE) && wc && lfnbuf[i])	/* Last segment matched but different length */
    1a08:	e0bffe17 	ldw	r2,-8(fp)
    1a0c:	10800003 	ldbu	r2,0(r2)
    1a10:	10803fcc 	andi	r2,r2,255
    1a14:	1080100c 	andi	r2,r2,64
    1a18:	1005003a 	cmpeq	r2,r2,zero
    1a1c:	10000e1e 	bne	r2,zero,1a58 <cmp_lfn+0x190>
    1a20:	e0bffa8b 	ldhu	r2,-22(fp)
    1a24:	1005003a 	cmpeq	r2,r2,zero
    1a28:	10000b1e 	bne	r2,zero,1a58 <cmp_lfn+0x190>
    1a2c:	e0bffc17 	ldw	r2,-16(fp)
    1a30:	1085883a 	add	r2,r2,r2
    1a34:	1007883a 	mov	r3,r2
    1a38:	e0bffd17 	ldw	r2,-12(fp)
    1a3c:	1885883a 	add	r2,r3,r2
    1a40:	1080000b 	ldhu	r2,0(r2)
    1a44:	10bfffcc 	andi	r2,r2,65535
    1a48:	1005003a 	cmpeq	r2,r2,zero
    1a4c:	1000021e 	bne	r2,zero,1a58 <cmp_lfn+0x190>
		return 0;
    1a50:	e03fff15 	stw	zero,-4(fp)
    1a54:	00000206 	br	1a60 <cmp_lfn+0x198>

	return 1;						/* The part of LFN matched */
    1a58:	00800044 	movi	r2,1
    1a5c:	e0bfff15 	stw	r2,-4(fp)
    1a60:	e0bfff17 	ldw	r2,-4(fp)
}
    1a64:	e037883a 	mov	sp,fp
    1a68:	dfc00117 	ldw	ra,4(sp)
    1a6c:	df000017 	ldw	fp,0(sp)
    1a70:	dec00204 	addi	sp,sp,8
    1a74:	f800283a 	ret

00001a78 <pick_lfn>:
static
int pick_lfn (			/* 1:Succeeded, 0:Buffer overflow */
	WCHAR *lfnbuf,		/* Pointer to the Unicode-LFN buffer */
	BYTE *dir			/* Pointer to the directory entry */
)
{
    1a78:	defff904 	addi	sp,sp,-28
    1a7c:	df000615 	stw	fp,24(sp)
    1a80:	df000604 	addi	fp,sp,24
    1a84:	e13ffd15 	stw	r4,-12(fp)
    1a88:	e17ffe15 	stw	r5,-8(fp)
	UINT i, s;
	WCHAR wc, uc;


	i = ((dir[LDIR_Ord] & 0x3F) - 1) * 13;	/* Offset in the LFN buffer */
    1a8c:	e0bffe17 	ldw	r2,-8(fp)
    1a90:	10800003 	ldbu	r2,0(r2)
    1a94:	10803fcc 	andi	r2,r2,255
    1a98:	10800fcc 	andi	r2,r2,63
    1a9c:	10800364 	muli	r2,r2,13
    1aa0:	10bffcc4 	addi	r2,r2,-13
    1aa4:	e0bffc15 	stw	r2,-16(fp)

	s = 0; wc = 1;
    1aa8:	e03ffb15 	stw	zero,-20(fp)
    1aac:	00800044 	movi	r2,1
    1ab0:	e0bffa8d 	sth	r2,-22(fp)
	do {
		uc = LD_WORD(dir+LfnOfs[s]);		/* Pick an LFN character from the entry */
    1ab4:	e0fffb17 	ldw	r3,-20(fp)
    1ab8:	00800074 	movhi	r2,1
    1abc:	109d2704 	addi	r2,r2,29852
    1ac0:	10c5883a 	add	r2,r2,r3
    1ac4:	10800003 	ldbu	r2,0(r2)
    1ac8:	10803fcc 	andi	r2,r2,255
    1acc:	1007883a 	mov	r3,r2
    1ad0:	e0bffe17 	ldw	r2,-8(fp)
    1ad4:	1885883a 	add	r2,r3,r2
    1ad8:	10800044 	addi	r2,r2,1
    1adc:	10800003 	ldbu	r2,0(r2)
    1ae0:	10803fcc 	andi	r2,r2,255
    1ae4:	1004923a 	slli	r2,r2,8
    1ae8:	1009883a 	mov	r4,r2
    1aec:	e0fffb17 	ldw	r3,-20(fp)
    1af0:	00800074 	movhi	r2,1
    1af4:	109d2704 	addi	r2,r2,29852
    1af8:	10c5883a 	add	r2,r2,r3
    1afc:	10800003 	ldbu	r2,0(r2)
    1b00:	10803fcc 	andi	r2,r2,255
    1b04:	1007883a 	mov	r3,r2
    1b08:	e0bffe17 	ldw	r2,-8(fp)
    1b0c:	1885883a 	add	r2,r3,r2
    1b10:	10800003 	ldbu	r2,0(r2)
    1b14:	10803fcc 	andi	r2,r2,255
    1b18:	2084b03a 	or	r2,r4,r2
    1b1c:	e0bffa0d 	sth	r2,-24(fp)
		if (wc) {	/* Last char has not been processed */
    1b20:	e0bffa8b 	ldhu	r2,-22(fp)
    1b24:	1005003a 	cmpeq	r2,r2,zero
    1b28:	1000121e 	bne	r2,zero,1b74 <pick_lfn+0xfc>
			if (i >= _MAX_LFN) return 0;	/* Buffer overflow? */
    1b2c:	e0bffc17 	ldw	r2,-16(fp)
    1b30:	10803ff0 	cmpltui	r2,r2,255
    1b34:	1000021e 	bne	r2,zero,1b40 <pick_lfn+0xc8>
    1b38:	e03fff15 	stw	zero,-4(fp)
    1b3c:	00002b06 	br	1bec <pick_lfn+0x174>
			lfnbuf[i++] = wc = uc;			/* Store it */
    1b40:	e0bffc17 	ldw	r2,-16(fp)
    1b44:	1085883a 	add	r2,r2,r2
    1b48:	1007883a 	mov	r3,r2
    1b4c:	e0bffd17 	ldw	r2,-12(fp)
    1b50:	1887883a 	add	r3,r3,r2
    1b54:	e0bffa0b 	ldhu	r2,-24(fp)
    1b58:	e0bffa8d 	sth	r2,-22(fp)
    1b5c:	e0bffa8b 	ldhu	r2,-22(fp)
    1b60:	1880000d 	sth	r2,0(r3)
    1b64:	e0bffc17 	ldw	r2,-16(fp)
    1b68:	10800044 	addi	r2,r2,1
    1b6c:	e0bffc15 	stw	r2,-16(fp)
    1b70:	00000506 	br	1b88 <pick_lfn+0x110>
		} else {
			if (uc != 0xFFFF) return 0;		/* Check filler */
    1b74:	e0fffa0b 	ldhu	r3,-24(fp)
    1b78:	00bfffd4 	movui	r2,65535
    1b7c:	18800226 	beq	r3,r2,1b88 <pick_lfn+0x110>
    1b80:	e03fff15 	stw	zero,-4(fp)
    1b84:	00001906 	br	1bec <pick_lfn+0x174>
		}
	} while (++s < 13);						/* Read all character in the entry */
    1b88:	e0bffb17 	ldw	r2,-20(fp)
    1b8c:	10800044 	addi	r2,r2,1
    1b90:	e0bffb15 	stw	r2,-20(fp)
    1b94:	e0bffb17 	ldw	r2,-20(fp)
    1b98:	10800370 	cmpltui	r2,r2,13
    1b9c:	103fc51e 	bne	r2,zero,1ab4 <pick_lfn+0x3c>

	if (dir[LDIR_Ord] & LLE) {				/* Put terminator if it is the last LFN part */
    1ba0:	e0bffe17 	ldw	r2,-8(fp)
    1ba4:	10800003 	ldbu	r2,0(r2)
    1ba8:	10803fcc 	andi	r2,r2,255
    1bac:	1080100c 	andi	r2,r2,64
    1bb0:	1005003a 	cmpeq	r2,r2,zero
    1bb4:	10000b1e 	bne	r2,zero,1be4 <pick_lfn+0x16c>
		if (i >= _MAX_LFN) return 0;		/* Buffer overflow? */
    1bb8:	e0bffc17 	ldw	r2,-16(fp)
    1bbc:	10803ff0 	cmpltui	r2,r2,255
    1bc0:	1000021e 	bne	r2,zero,1bcc <pick_lfn+0x154>
    1bc4:	e03fff15 	stw	zero,-4(fp)
    1bc8:	00000806 	br	1bec <pick_lfn+0x174>
		lfnbuf[i] = 0;
    1bcc:	e0bffc17 	ldw	r2,-16(fp)
    1bd0:	1085883a 	add	r2,r2,r2
    1bd4:	1007883a 	mov	r3,r2
    1bd8:	e0bffd17 	ldw	r2,-12(fp)
    1bdc:	1885883a 	add	r2,r3,r2
    1be0:	1000000d 	sth	zero,0(r2)
	}

	return 1;
    1be4:	00800044 	movi	r2,1
    1be8:	e0bfff15 	stw	r2,-4(fp)
    1bec:	e0bfff17 	ldw	r2,-4(fp)
}
    1bf0:	e037883a 	mov	sp,fp
    1bf4:	df000017 	ldw	fp,0(sp)
    1bf8:	dec00104 	addi	sp,sp,4
    1bfc:	f800283a 	ret

00001c00 <fit_lfn>:
	const WCHAR *lfnbuf,	/* Pointer to the LFN buffer */
	BYTE *dir,				/* Pointer to the directory entry */
	BYTE ord,				/* LFN order (1-20) */
	BYTE sum				/* SFN sum */
)
{
    1c00:	defff804 	addi	sp,sp,-32
    1c04:	df000715 	stw	fp,28(sp)
    1c08:	df000704 	addi	fp,sp,28
    1c0c:	e13ffc15 	stw	r4,-16(fp)
    1c10:	e17ffd15 	stw	r5,-12(fp)
    1c14:	e1bffe05 	stb	r6,-8(fp)
    1c18:	e1ffff05 	stb	r7,-4(fp)
	UINT i, s;
	WCHAR wc;


	dir[LDIR_Chksum] = sum;			/* Set check sum */
    1c1c:	e0bffd17 	ldw	r2,-12(fp)
    1c20:	10c00344 	addi	r3,r2,13
    1c24:	e0bfff03 	ldbu	r2,-4(fp)
    1c28:	18800005 	stb	r2,0(r3)
	dir[LDIR_Attr] = AM_LFN;		/* Set attribute. LFN entry */
    1c2c:	e0bffd17 	ldw	r2,-12(fp)
    1c30:	10c002c4 	addi	r3,r2,11
    1c34:	008003c4 	movi	r2,15
    1c38:	18800005 	stb	r2,0(r3)
	dir[LDIR_Type] = 0;
    1c3c:	e0bffd17 	ldw	r2,-12(fp)
    1c40:	10800304 	addi	r2,r2,12
    1c44:	10000005 	stb	zero,0(r2)
	ST_WORD(dir+LDIR_FstClusLO, 0);
    1c48:	e0bffd17 	ldw	r2,-12(fp)
    1c4c:	10800684 	addi	r2,r2,26
    1c50:	10000005 	stb	zero,0(r2)
    1c54:	e0bffd17 	ldw	r2,-12(fp)
    1c58:	108006c4 	addi	r2,r2,27
    1c5c:	10000005 	stb	zero,0(r2)

	i = (ord - 1) * 13;				/* Get offset in the LFN buffer */
    1c60:	e0bffe03 	ldbu	r2,-8(fp)
    1c64:	10800364 	muli	r2,r2,13
    1c68:	10bffcc4 	addi	r2,r2,-13
    1c6c:	e0bffb15 	stw	r2,-20(fp)
	s = wc = 0;
    1c70:	e03ff90d 	sth	zero,-28(fp)
    1c74:	e03ffa15 	stw	zero,-24(fp)
	do {
		if (wc != 0xFFFF) wc = lfnbuf[i++];	/* Get an effective char */
    1c78:	e0fff90b 	ldhu	r3,-28(fp)
    1c7c:	00bfffd4 	movui	r2,65535
    1c80:	18800a26 	beq	r3,r2,1cac <fit_lfn+0xac>
    1c84:	e0bffb17 	ldw	r2,-20(fp)
    1c88:	1085883a 	add	r2,r2,r2
    1c8c:	1007883a 	mov	r3,r2
    1c90:	e0bffc17 	ldw	r2,-16(fp)
    1c94:	1885883a 	add	r2,r3,r2
    1c98:	1080000b 	ldhu	r2,0(r2)
    1c9c:	e0bff90d 	sth	r2,-28(fp)
    1ca0:	e0bffb17 	ldw	r2,-20(fp)
    1ca4:	10800044 	addi	r2,r2,1
    1ca8:	e0bffb15 	stw	r2,-20(fp)
		ST_WORD(dir+LfnOfs[s], wc);	/* Put it */
    1cac:	e0fffa17 	ldw	r3,-24(fp)
    1cb0:	00800074 	movhi	r2,1
    1cb4:	109d2704 	addi	r2,r2,29852
    1cb8:	10c5883a 	add	r2,r2,r3
    1cbc:	10800003 	ldbu	r2,0(r2)
    1cc0:	10803fcc 	andi	r2,r2,255
    1cc4:	1007883a 	mov	r3,r2
    1cc8:	e0bffd17 	ldw	r2,-12(fp)
    1ccc:	1887883a 	add	r3,r3,r2
    1cd0:	e0bff90b 	ldhu	r2,-28(fp)
    1cd4:	18800005 	stb	r2,0(r3)
    1cd8:	e0fffa17 	ldw	r3,-24(fp)
    1cdc:	00800074 	movhi	r2,1
    1ce0:	109d2704 	addi	r2,r2,29852
    1ce4:	10c5883a 	add	r2,r2,r3
    1ce8:	10800003 	ldbu	r2,0(r2)
    1cec:	10803fcc 	andi	r2,r2,255
    1cf0:	1007883a 	mov	r3,r2
    1cf4:	e0bffd17 	ldw	r2,-12(fp)
    1cf8:	1885883a 	add	r2,r3,r2
    1cfc:	10c00044 	addi	r3,r2,1
    1d00:	e0bff90b 	ldhu	r2,-28(fp)
    1d04:	1004d23a 	srli	r2,r2,8
    1d08:	18800005 	stb	r2,0(r3)
		if (!wc) wc = 0xFFFF;		/* Padding chars following last char */
    1d0c:	e0bff90b 	ldhu	r2,-28(fp)
    1d10:	1004c03a 	cmpne	r2,r2,zero
    1d14:	1000021e 	bne	r2,zero,1d20 <fit_lfn+0x120>
    1d18:	00bfffc4 	movi	r2,-1
    1d1c:	e0bff90d 	sth	r2,-28(fp)
	} while (++s < 13);
    1d20:	e0bffa17 	ldw	r2,-24(fp)
    1d24:	10800044 	addi	r2,r2,1
    1d28:	e0bffa15 	stw	r2,-24(fp)
    1d2c:	e0bffa17 	ldw	r2,-24(fp)
    1d30:	10800370 	cmpltui	r2,r2,13
    1d34:	103fd01e 	bne	r2,zero,1c78 <fit_lfn+0x78>
	if (wc == 0xFFFF || !lfnbuf[i]) ord |= LLE;	/* Bottom LFN part is the start of LFN sequence */
    1d38:	e0fff90b 	ldhu	r3,-28(fp)
    1d3c:	00bfffd4 	movui	r2,65535
    1d40:	18800926 	beq	r3,r2,1d68 <fit_lfn+0x168>
    1d44:	e0bffb17 	ldw	r2,-20(fp)
    1d48:	1085883a 	add	r2,r2,r2
    1d4c:	1007883a 	mov	r3,r2
    1d50:	e0bffc17 	ldw	r2,-16(fp)
    1d54:	1885883a 	add	r2,r3,r2
    1d58:	1080000b 	ldhu	r2,0(r2)
    1d5c:	10bfffcc 	andi	r2,r2,65535
    1d60:	1004c03a 	cmpne	r2,r2,zero
    1d64:	1000031e 	bne	r2,zero,1d74 <fit_lfn+0x174>
    1d68:	e0bffe03 	ldbu	r2,-8(fp)
    1d6c:	10801014 	ori	r2,r2,64
    1d70:	e0bffe05 	stb	r2,-8(fp)
	dir[LDIR_Ord] = ord;			/* Set the LFN order */
    1d74:	e0fffd17 	ldw	r3,-12(fp)
    1d78:	e0bffe03 	ldbu	r2,-8(fp)
    1d7c:	18800005 	stb	r2,0(r3)
}
    1d80:	e037883a 	mov	sp,fp
    1d84:	df000017 	ldw	fp,0(sp)
    1d88:	dec00104 	addi	sp,sp,4
    1d8c:	f800283a 	ret

00001d90 <gen_numname>:
	BYTE *dst,			/* Pointer to generated SFN */
	const BYTE *src,	/* Pointer to source SFN to be modified */
	const WCHAR *lfn,	/* Pointer to LFN */
	WORD seq			/* Sequence number */
)
{
    1d90:	defff404 	addi	sp,sp,-48
    1d94:	dfc00b15 	stw	ra,44(sp)
    1d98:	df000a15 	stw	fp,40(sp)
    1d9c:	df000a04 	addi	fp,sp,40
    1da0:	e13ffb15 	stw	r4,-20(fp)
    1da4:	e17ffc15 	stw	r5,-16(fp)
    1da8:	e1bffd15 	stw	r6,-12(fp)
    1dac:	e1fffe0d 	sth	r7,-8(fp)
	BYTE ns[8], c;
	UINT i, j;


	mem_cpy(dst, src, 11);
    1db0:	e13ffb17 	ldw	r4,-20(fp)
    1db4:	e17ffc17 	ldw	r5,-16(fp)
    1db8:	018002c4 	movi	r6,11
    1dbc:	00003f80 	call	3f8 <mem_cpy>

	if (seq > 5) {	/* On many collisions, generate a hash number instead of sequential number */
    1dc0:	e0bffe0b 	ldhu	r2,-8(fp)
    1dc4:	108001b0 	cmpltui	r2,r2,6
    1dc8:	1000141e 	bne	r2,zero,1e1c <gen_numname+0x8c>
		do seq = (seq >> 1) + (seq << 15) + (WORD)*lfn++; while (*lfn);
    1dcc:	e0fffe0b 	ldhu	r3,-8(fp)
    1dd0:	18bfffcc 	andi	r2,r3,65535
    1dd4:	1004d07a 	srli	r2,r2,1
    1dd8:	180693fa 	slli	r3,r3,15
    1ddc:	1009883a 	mov	r4,r2
    1de0:	1805883a 	mov	r2,r3
    1de4:	2084b03a 	or	r2,r4,r2
    1de8:	1007883a 	mov	r3,r2
    1dec:	e0bffd17 	ldw	r2,-12(fp)
    1df0:	1080000b 	ldhu	r2,0(r2)
    1df4:	1885883a 	add	r2,r3,r2
    1df8:	e0bffe0d 	sth	r2,-8(fp)
    1dfc:	e0bffd17 	ldw	r2,-12(fp)
    1e00:	10800084 	addi	r2,r2,2
    1e04:	e0bffd15 	stw	r2,-12(fp)
    1e08:	e0bffd17 	ldw	r2,-12(fp)
    1e0c:	1080000b 	ldhu	r2,0(r2)
    1e10:	10bfffcc 	andi	r2,r2,65535
    1e14:	1004c03a 	cmpne	r2,r2,zero
    1e18:	103fec1e 	bne	r2,zero,1dcc <gen_numname+0x3c>
	}

	/* itoa (hexdecimal) */
	i = 7;
    1e1c:	008001c4 	movi	r2,7
    1e20:	e0bff715 	stw	r2,-36(fp)
	do {
		c = (seq % 16) + '0';
    1e24:	e0bffe0b 	ldhu	r2,-8(fp)
    1e28:	108003cc 	andi	r2,r2,15
    1e2c:	10800c04 	addi	r2,r2,48
    1e30:	e0bff805 	stb	r2,-32(fp)
		if (c > '9') c += 7;
    1e34:	e0bff803 	ldbu	r2,-32(fp)
    1e38:	10800eb0 	cmpltui	r2,r2,58
    1e3c:	1000031e 	bne	r2,zero,1e4c <gen_numname+0xbc>
    1e40:	e0bff803 	ldbu	r2,-32(fp)
    1e44:	108001c4 	addi	r2,r2,7
    1e48:	e0bff805 	stb	r2,-32(fp)
		ns[i--] = c;
    1e4c:	e0fff717 	ldw	r3,-36(fp)
    1e50:	e0bff844 	addi	r2,fp,-31
    1e54:	10c7883a 	add	r3,r2,r3
    1e58:	e0bff803 	ldbu	r2,-32(fp)
    1e5c:	18800005 	stb	r2,0(r3)
    1e60:	e0bff717 	ldw	r2,-36(fp)
    1e64:	10bfffc4 	addi	r2,r2,-1
    1e68:	e0bff715 	stw	r2,-36(fp)
		seq /= 16;
    1e6c:	e0bffe0b 	ldhu	r2,-8(fp)
    1e70:	1004d13a 	srli	r2,r2,4
    1e74:	e0bffe0d 	sth	r2,-8(fp)
	} while (seq);
    1e78:	e0bffe0b 	ldhu	r2,-8(fp)
    1e7c:	1004c03a 	cmpne	r2,r2,zero
    1e80:	103fe81e 	bne	r2,zero,1e24 <gen_numname+0x94>
	ns[i] = '~';
    1e84:	e0fff717 	ldw	r3,-36(fp)
    1e88:	e0bff844 	addi	r2,fp,-31
    1e8c:	10c7883a 	add	r3,r2,r3
    1e90:	00801f84 	movi	r2,126
    1e94:	18800005 	stb	r2,0(r3)

	/* Append the number */
	for (j = 0; j < i && dst[j] != ' '; j++) {
    1e98:	e03ff615 	stw	zero,-40(fp)
    1e9c:	00002606 	br	1f38 <gen_numname+0x1a8>
		if (IsDBCS1(dst[j])) {
    1ea0:	e0fff617 	ldw	r3,-40(fp)
    1ea4:	e0bffb17 	ldw	r2,-20(fp)
    1ea8:	1885883a 	add	r2,r3,r2
    1eac:	10800003 	ldbu	r2,0(r2)
    1eb0:	10803fcc 	andi	r2,r2,255
    1eb4:	10802070 	cmpltui	r2,r2,129
    1eb8:	1000071e 	bne	r2,zero,1ed8 <gen_numname+0x148>
    1ebc:	e0fff617 	ldw	r3,-40(fp)
    1ec0:	e0bffb17 	ldw	r2,-20(fp)
    1ec4:	1885883a 	add	r2,r3,r2
    1ec8:	10800003 	ldbu	r2,0(r2)
    1ecc:	10803fcc 	andi	r2,r2,255
    1ed0:	10802830 	cmpltui	r2,r2,160
    1ed4:	10000e1e 	bne	r2,zero,1f10 <gen_numname+0x180>
    1ed8:	e0fff617 	ldw	r3,-40(fp)
    1edc:	e0bffb17 	ldw	r2,-20(fp)
    1ee0:	1885883a 	add	r2,r3,r2
    1ee4:	10800003 	ldbu	r2,0(r2)
    1ee8:	10803fcc 	andi	r2,r2,255
    1eec:	10803830 	cmpltui	r2,r2,224
    1ef0:	10000e1e 	bne	r2,zero,1f2c <gen_numname+0x19c>
    1ef4:	e0fff617 	ldw	r3,-40(fp)
    1ef8:	e0bffb17 	ldw	r2,-20(fp)
    1efc:	1885883a 	add	r2,r3,r2
    1f00:	10800003 	ldbu	r2,0(r2)
    1f04:	10803fcc 	andi	r2,r2,255
    1f08:	10803f68 	cmpgeui	r2,r2,253
    1f0c:	1000071e 	bne	r2,zero,1f2c <gen_numname+0x19c>
			if (j == i - 1) break;
    1f10:	e0bff717 	ldw	r2,-36(fp)
    1f14:	10ffffc4 	addi	r3,r2,-1
    1f18:	e0bff617 	ldw	r2,-40(fp)
    1f1c:	18801026 	beq	r3,r2,1f60 <gen_numname+0x1d0>
			j++;
    1f20:	e0bff617 	ldw	r2,-40(fp)
    1f24:	10800044 	addi	r2,r2,1
    1f28:	e0bff615 	stw	r2,-40(fp)
		seq /= 16;
	} while (seq);
	ns[i] = '~';

	/* Append the number */
	for (j = 0; j < i && dst[j] != ' '; j++) {
    1f2c:	e0bff617 	ldw	r2,-40(fp)
    1f30:	10800044 	addi	r2,r2,1
    1f34:	e0bff615 	stw	r2,-40(fp)
    1f38:	e0fff617 	ldw	r3,-40(fp)
    1f3c:	e0bff717 	ldw	r2,-36(fp)
    1f40:	1880072e 	bgeu	r3,r2,1f60 <gen_numname+0x1d0>
    1f44:	e0fff617 	ldw	r3,-40(fp)
    1f48:	e0bffb17 	ldw	r2,-20(fp)
    1f4c:	1885883a 	add	r2,r3,r2
    1f50:	10800003 	ldbu	r2,0(r2)
    1f54:	10803fcc 	andi	r2,r2,255
    1f58:	10800818 	cmpnei	r2,r2,32
    1f5c:	103fd01e 	bne	r2,zero,1ea0 <gen_numname+0x110>
			if (j == i - 1) break;
			j++;
		}
	}
	do {
		dst[j++] = (i < 8) ? ns[i++] : ' ';
    1f60:	e0fff617 	ldw	r3,-40(fp)
    1f64:	e0bffb17 	ldw	r2,-20(fp)
    1f68:	1887883a 	add	r3,r3,r2
    1f6c:	e0ffff15 	stw	r3,-4(fp)
    1f70:	e0bff717 	ldw	r2,-36(fp)
    1f74:	10800228 	cmpgeui	r2,r2,8
    1f78:	1000091e 	bne	r2,zero,1fa0 <gen_numname+0x210>
    1f7c:	e0fff717 	ldw	r3,-36(fp)
    1f80:	e0bff844 	addi	r2,fp,-31
    1f84:	10c5883a 	add	r2,r2,r3
    1f88:	10800003 	ldbu	r2,0(r2)
    1f8c:	e0bffe85 	stb	r2,-6(fp)
    1f90:	e0bff717 	ldw	r2,-36(fp)
    1f94:	10800044 	addi	r2,r2,1
    1f98:	e0bff715 	stw	r2,-36(fp)
    1f9c:	00000206 	br	1fa8 <gen_numname+0x218>
    1fa0:	00800804 	movi	r2,32
    1fa4:	e0bffe85 	stb	r2,-6(fp)
    1fa8:	e0fffe83 	ldbu	r3,-6(fp)
    1fac:	e0bfff17 	ldw	r2,-4(fp)
    1fb0:	10c00005 	stb	r3,0(r2)
    1fb4:	e0bff617 	ldw	r2,-40(fp)
    1fb8:	10800044 	addi	r2,r2,1
    1fbc:	e0bff615 	stw	r2,-40(fp)
	} while (j < 8);
    1fc0:	e0bff617 	ldw	r2,-40(fp)
    1fc4:	10800230 	cmpltui	r2,r2,8
    1fc8:	103fe51e 	bne	r2,zero,1f60 <gen_numname+0x1d0>
}
    1fcc:	e037883a 	mov	sp,fp
    1fd0:	dfc00117 	ldw	ra,4(sp)
    1fd4:	df000017 	ldw	fp,0(sp)
    1fd8:	dec00204 	addi	sp,sp,8
    1fdc:	f800283a 	ret

00001fe0 <sum_sfn>:
#if _USE_LFN
static
BYTE sum_sfn (
	const BYTE *dir		/* Ptr to directory entry */
)
{
    1fe0:	defffc04 	addi	sp,sp,-16
    1fe4:	df000315 	stw	fp,12(sp)
    1fe8:	df000304 	addi	fp,sp,12
    1fec:	e13fff15 	stw	r4,-4(fp)
	BYTE sum = 0;
    1ff0:	e03ffe05 	stb	zero,-8(fp)
	UINT n = 11;
    1ff4:	008002c4 	movi	r2,11
    1ff8:	e0bffd15 	stw	r2,-12(fp)

	do sum = (sum >> 1) + (sum << 7) + *dir++; while (--n);
    1ffc:	e0fffe03 	ldbu	r3,-8(fp)
    2000:	18803fcc 	andi	r2,r3,255
    2004:	1004d07a 	srli	r2,r2,1
    2008:	180691fa 	slli	r3,r3,7
    200c:	1009883a 	mov	r4,r2
    2010:	1805883a 	mov	r2,r3
    2014:	2084b03a 	or	r2,r4,r2
    2018:	1007883a 	mov	r3,r2
    201c:	e0bfff17 	ldw	r2,-4(fp)
    2020:	10800003 	ldbu	r2,0(r2)
    2024:	1885883a 	add	r2,r3,r2
    2028:	e0bffe05 	stb	r2,-8(fp)
    202c:	e0bfff17 	ldw	r2,-4(fp)
    2030:	10800044 	addi	r2,r2,1
    2034:	e0bfff15 	stw	r2,-4(fp)
    2038:	e0bffd17 	ldw	r2,-12(fp)
    203c:	10bfffc4 	addi	r2,r2,-1
    2040:	e0bffd15 	stw	r2,-12(fp)
    2044:	e0bffd17 	ldw	r2,-12(fp)
    2048:	1004c03a 	cmpne	r2,r2,zero
    204c:	103feb1e 	bne	r2,zero,1ffc <sum_sfn+0x1c>
	return sum;
    2050:	e0bffe03 	ldbu	r2,-8(fp)
}
    2054:	e037883a 	mov	sp,fp
    2058:	df000017 	ldw	fp,0(sp)
    205c:	dec00104 	addi	sp,sp,4
    2060:	f800283a 	ret

00002064 <dir_find>:

static
FRESULT dir_find (
	DIR *dj			/* Pointer to the directory object linked to the file name */
)
{
    2064:	defff704 	addi	sp,sp,-36
    2068:	dfc00815 	stw	ra,32(sp)
    206c:	df000715 	stw	fp,28(sp)
    2070:	df000704 	addi	fp,sp,28
    2074:	e13ffd15 	stw	r4,-12(fp)
	BYTE c, *dir;
#if _USE_LFN
	BYTE a, ord, sum;
#endif

	res = dir_sdi(dj, 0);			/* Rewind directory object */
    2078:	e13ffd17 	ldw	r4,-12(fp)
    207c:	000b883a 	mov	r5,zero
    2080:	00013bc0 	call	13bc <dir_sdi>
    2084:	e0bffc15 	stw	r2,-16(fp)
	if (res != FR_OK) return res;
    2088:	e0bffc17 	ldw	r2,-16(fp)
    208c:	1005003a 	cmpeq	r2,r2,zero
    2090:	1000031e 	bne	r2,zero,20a0 <dir_find+0x3c>
    2094:	e0bffc17 	ldw	r2,-16(fp)
    2098:	e0bfff15 	stw	r2,-4(fp)
    209c:	00008106 	br	22a4 <dir_find+0x240>

#if _USE_LFN
	ord = sum = 0xFF;
    20a0:	00bfffc4 	movi	r2,-1
    20a4:	e0bff905 	stb	r2,-28(fp)
    20a8:	e0bff903 	ldbu	r2,-28(fp)
    20ac:	e0bff945 	stb	r2,-27(fp)
#endif
	do {
		res = move_window(dj->fs, dj->sect);
    20b0:	e0bffd17 	ldw	r2,-12(fp)
    20b4:	11000017 	ldw	r4,0(r2)
    20b8:	e0bffd17 	ldw	r2,-12(fp)
    20bc:	11400417 	ldw	r5,16(r2)
    20c0:	00006040 	call	604 <move_window>
    20c4:	e0bffc15 	stw	r2,-16(fp)
		if (res != FR_OK) break;
    20c8:	e0bffc17 	ldw	r2,-16(fp)
    20cc:	1004c03a 	cmpne	r2,r2,zero
    20d0:	1000721e 	bne	r2,zero,229c <dir_find+0x238>
		dir = dj->dir;					/* Ptr to the directory entry of current index */
    20d4:	e0bffd17 	ldw	r2,-12(fp)
    20d8:	10800517 	ldw	r2,20(r2)
    20dc:	e0bffa15 	stw	r2,-24(fp)
		c = dir[DIR_Name];
    20e0:	e0bffa17 	ldw	r2,-24(fp)
    20e4:	10800003 	ldbu	r2,0(r2)
    20e8:	e0bffb05 	stb	r2,-20(fp)
		if (c == 0) { res = FR_NO_FILE; break; }	/* Reached to end of table */
    20ec:	e0bffb03 	ldbu	r2,-20(fp)
    20f0:	1004c03a 	cmpne	r2,r2,zero
    20f4:	1000031e 	bne	r2,zero,2104 <dir_find+0xa0>
    20f8:	00800104 	movi	r2,4
    20fc:	e0bffc15 	stw	r2,-16(fp)
    2100:	00006606 	br	229c <dir_find+0x238>
#if _USE_LFN	/* LFN configuration */
		a = dir[DIR_Attr] & AM_MASK;
    2104:	e0bffa17 	ldw	r2,-24(fp)
    2108:	108002c4 	addi	r2,r2,11
    210c:	10800003 	ldbu	r2,0(r2)
    2110:	10800fcc 	andi	r2,r2,63
    2114:	e0bff985 	stb	r2,-26(fp)
		if (c == DDE || ((a & AM_VOL) && a != AM_LFN)) {	/* An entry without valid data */
    2118:	e0bffb03 	ldbu	r2,-20(fp)
    211c:	10803960 	cmpeqi	r2,r2,229
    2120:	1000071e 	bne	r2,zero,2140 <dir_find+0xdc>
    2124:	e0bff983 	ldbu	r2,-26(fp)
    2128:	1080020c 	andi	r2,r2,8
    212c:	1005003a 	cmpeq	r2,r2,zero
    2130:	1000061e 	bne	r2,zero,214c <dir_find+0xe8>
    2134:	e0bff983 	ldbu	r2,-26(fp)
    2138:	108003e0 	cmpeqi	r2,r2,15
    213c:	1000031e 	bne	r2,zero,214c <dir_find+0xe8>
			ord = 0xFF;
    2140:	00bfffc4 	movi	r2,-1
    2144:	e0bff945 	stb	r2,-27(fp)
		dir = dj->dir;					/* Ptr to the directory entry of current index */
		c = dir[DIR_Name];
		if (c == 0) { res = FR_NO_FILE; break; }	/* Reached to end of table */
#if _USE_LFN	/* LFN configuration */
		a = dir[DIR_Attr] & AM_MASK;
		if (c == DDE || ((a & AM_VOL) && a != AM_LFN)) {	/* An entry without valid data */
    2148:	00004d06 	br	2280 <dir_find+0x21c>
			ord = 0xFF;
		} else {
			if (a == AM_LFN) {			/* An LFN entry is found */
    214c:	e0bff983 	ldbu	r2,-26(fp)
    2150:	108003d8 	cmpnei	r2,r2,15
    2154:	10002e1e 	bne	r2,zero,2210 <dir_find+0x1ac>
				if (dj->lfn) {
    2158:	e0bffd17 	ldw	r2,-12(fp)
    215c:	10800717 	ldw	r2,28(r2)
    2160:	1005003a 	cmpeq	r2,r2,zero
    2164:	1000461e 	bne	r2,zero,2280 <dir_find+0x21c>
					if (c & LLE) {		/* Is it start of LFN sequence? */
    2168:	e0bffb03 	ldbu	r2,-20(fp)
    216c:	1080100c 	andi	r2,r2,64
    2170:	1005003a 	cmpeq	r2,r2,zero
    2174:	10000e1e 	bne	r2,zero,21b0 <dir_find+0x14c>
						sum = dir[LDIR_Chksum];
    2178:	e0bffa17 	ldw	r2,-24(fp)
    217c:	10800344 	addi	r2,r2,13
    2180:	10800003 	ldbu	r2,0(r2)
    2184:	e0bff905 	stb	r2,-28(fp)
						c &= ~LLE; ord = c;	/* LFN start order */
    2188:	e0fffb03 	ldbu	r3,-20(fp)
    218c:	00bfefc4 	movi	r2,-65
    2190:	1884703a 	and	r2,r3,r2
    2194:	e0bffb05 	stb	r2,-20(fp)
    2198:	e0bffb03 	ldbu	r2,-20(fp)
    219c:	e0bff945 	stb	r2,-27(fp)
						dj->lfn_idx = dj->index;
    21a0:	e0bffd17 	ldw	r2,-12(fp)
    21a4:	10c0018b 	ldhu	r3,6(r2)
    21a8:	e0bffd17 	ldw	r2,-12(fp)
    21ac:	10c0080d 	sth	r3,32(r2)
					}
					/* Check validity of the LFN entry and compare it with given name */
					ord = (c == ord && sum == dir[LDIR_Chksum] && cmp_lfn(dj->lfn, dir)) ? ord - 1 : 0xFF;
    21b0:	e0fffb03 	ldbu	r3,-20(fp)
    21b4:	e0bff943 	ldbu	r2,-27(fp)
    21b8:	1880101e 	bne	r3,r2,21fc <dir_find+0x198>
    21bc:	e0bffa17 	ldw	r2,-24(fp)
    21c0:	10800344 	addi	r2,r2,13
    21c4:	10800003 	ldbu	r2,0(r2)
    21c8:	10c03fcc 	andi	r3,r2,255
    21cc:	e0bff903 	ldbu	r2,-28(fp)
    21d0:	18800a1e 	bne	r3,r2,21fc <dir_find+0x198>
    21d4:	e0bffd17 	ldw	r2,-12(fp)
    21d8:	11000717 	ldw	r4,28(r2)
    21dc:	e17ffa17 	ldw	r5,-24(fp)
    21e0:	00018c80 	call	18c8 <cmp_lfn>
    21e4:	1005003a 	cmpeq	r2,r2,zero
    21e8:	1000041e 	bne	r2,zero,21fc <dir_find+0x198>
    21ec:	e0bff943 	ldbu	r2,-27(fp)
    21f0:	10bfffc4 	addi	r2,r2,-1
    21f4:	e0bffe05 	stb	r2,-8(fp)
    21f8:	00000206 	br	2204 <dir_find+0x1a0>
    21fc:	00bfffc4 	movi	r2,-1
    2200:	e0bffe05 	stb	r2,-8(fp)
    2204:	e0bffe03 	ldbu	r2,-8(fp)
    2208:	e0bff945 	stb	r2,-27(fp)
    220c:	00001c06 	br	2280 <dir_find+0x21c>
				}
			} else {					/* An SFN entry is found */
				if (!ord && sum == sum_sfn(dir)) break;	/* LFN matched? */
    2210:	e0bff943 	ldbu	r2,-27(fp)
    2214:	1004c03a 	cmpne	r2,r2,zero
    2218:	1000051e 	bne	r2,zero,2230 <dir_find+0x1cc>
    221c:	e13ffa17 	ldw	r4,-24(fp)
    2220:	0001fe00 	call	1fe0 <sum_sfn>
    2224:	10c03fcc 	andi	r3,r2,255
    2228:	e0bff903 	ldbu	r2,-28(fp)
    222c:	18801b26 	beq	r3,r2,229c <dir_find+0x238>
				ord = 0xFF; dj->lfn_idx = 0xFFFF;	/* Reset LFN sequence */
    2230:	00bfffc4 	movi	r2,-1
    2234:	e0bff945 	stb	r2,-27(fp)
    2238:	e0fffd17 	ldw	r3,-12(fp)
    223c:	00bfffc4 	movi	r2,-1
    2240:	1880080d 	sth	r2,32(r3)
				if (!(dj->fn[NS] & NS_LOSS) && !mem_cmp(dir, dj->fn, 11)) break;	/* SFN matched? */
    2244:	e0bffd17 	ldw	r2,-12(fp)
    2248:	10800617 	ldw	r2,24(r2)
    224c:	108002c4 	addi	r2,r2,11
    2250:	10800003 	ldbu	r2,0(r2)
    2254:	10803fcc 	andi	r2,r2,255
    2258:	1080004c 	andi	r2,r2,1
    225c:	1004c03a 	cmpne	r2,r2,zero
    2260:	1000071e 	bne	r2,zero,2280 <dir_find+0x21c>
    2264:	e0bffd17 	ldw	r2,-12(fp)
    2268:	11400617 	ldw	r5,24(r2)
    226c:	e13ffa17 	ldw	r4,-24(fp)
    2270:	018002c4 	movi	r6,11
    2274:	00004dc0 	call	4dc <mem_cmp>
    2278:	1005003a 	cmpeq	r2,r2,zero
    227c:	1000071e 	bne	r2,zero,229c <dir_find+0x238>
		}
#else		/* Non LFN configuration */
		if (!(dir[DIR_Attr] & AM_VOL) && !mem_cmp(dir, dj->fn, 11)) /* Is it a valid entry? */
			break;
#endif
		res = dir_next(dj, 0);		/* Next entry */
    2280:	e13ffd17 	ldw	r4,-12(fp)
    2284:	000b883a 	mov	r5,zero
    2288:	00015b80 	call	15b8 <dir_next>
    228c:	e0bffc15 	stw	r2,-16(fp)
	} while (res == FR_OK);
    2290:	e0bffc17 	ldw	r2,-16(fp)
    2294:	1005003a 	cmpeq	r2,r2,zero
    2298:	103f851e 	bne	r2,zero,20b0 <dir_find+0x4c>

	return res;
    229c:	e0bffc17 	ldw	r2,-16(fp)
    22a0:	e0bfff15 	stw	r2,-4(fp)
    22a4:	e0bfff17 	ldw	r2,-4(fp)
}
    22a8:	e037883a 	mov	sp,fp
    22ac:	dfc00117 	ldw	ra,4(sp)
    22b0:	df000017 	ldw	fp,0(sp)
    22b4:	dec00204 	addi	sp,sp,8
    22b8:	f800283a 	ret

000022bc <dir_read>:
#if _FS_MINIMIZE <= 1
static
FRESULT dir_read (
	DIR *dj			/* Pointer to the directory object that pointing the entry to be read */
)
{
    22bc:	defff804 	addi	sp,sp,-32
    22c0:	dfc00715 	stw	ra,28(sp)
    22c4:	df000615 	stw	fp,24(sp)
    22c8:	df000604 	addi	fp,sp,24
    22cc:	e13ffe15 	stw	r4,-8(fp)
	FRESULT res;
	BYTE c, *dir;
#if _USE_LFN
	BYTE a, ord = 0xFF, sum = 0xFF;
    22d0:	00bfffc4 	movi	r2,-1
    22d4:	e0bffa45 	stb	r2,-23(fp)
    22d8:	00bfffc4 	movi	r2,-1
    22dc:	e0bffa05 	stb	r2,-24(fp)
#endif

	res = FR_NO_FILE;
    22e0:	00800104 	movi	r2,4
    22e4:	e0bffd15 	stw	r2,-12(fp)
	while (dj->sect) {
    22e8:	00006a06 	br	2494 <dir_read+0x1d8>
		res = move_window(dj->fs, dj->sect);
    22ec:	e0bffe17 	ldw	r2,-8(fp)
    22f0:	11000017 	ldw	r4,0(r2)
    22f4:	e0bffe17 	ldw	r2,-8(fp)
    22f8:	11400417 	ldw	r5,16(r2)
    22fc:	00006040 	call	604 <move_window>
    2300:	e0bffd15 	stw	r2,-12(fp)
		if (res != FR_OK) break;
    2304:	e0bffd17 	ldw	r2,-12(fp)
    2308:	1004c03a 	cmpne	r2,r2,zero
    230c:	1000651e 	bne	r2,zero,24a4 <dir_read+0x1e8>
		dir = dj->dir;					/* Ptr to the directory entry of current index */
    2310:	e0bffe17 	ldw	r2,-8(fp)
    2314:	10800517 	ldw	r2,20(r2)
    2318:	e0bffb15 	stw	r2,-20(fp)
		c = dir[DIR_Name];
    231c:	e0bffb17 	ldw	r2,-20(fp)
    2320:	10800003 	ldbu	r2,0(r2)
    2324:	e0bffc05 	stb	r2,-16(fp)
		if (c == 0) { res = FR_NO_FILE; break; }	/* Reached to end of table */
    2328:	e0bffc03 	ldbu	r2,-16(fp)
    232c:	1004c03a 	cmpne	r2,r2,zero
    2330:	1000031e 	bne	r2,zero,2340 <dir_read+0x84>
    2334:	00800104 	movi	r2,4
    2338:	e0bffd15 	stw	r2,-12(fp)
    233c:	00005906 	br	24a4 <dir_read+0x1e8>
#if _USE_LFN	/* LFN configuration */
		a = dir[DIR_Attr] & AM_MASK;
    2340:	e0bffb17 	ldw	r2,-20(fp)
    2344:	108002c4 	addi	r2,r2,11
    2348:	10800003 	ldbu	r2,0(r2)
    234c:	10800fcc 	andi	r2,r2,63
    2350:	e0bffa85 	stb	r2,-22(fp)
		if (c == DDE || (!_FS_RPATH && c == '.') || ((a & AM_VOL) && a != AM_LFN)) {	/* An entry without valid data */
    2354:	e0bffc03 	ldbu	r2,-16(fp)
    2358:	10803960 	cmpeqi	r2,r2,229
    235c:	10000a1e 	bne	r2,zero,2388 <dir_read+0xcc>
    2360:	e0bffc03 	ldbu	r2,-16(fp)
    2364:	10800ba0 	cmpeqi	r2,r2,46
    2368:	1000071e 	bne	r2,zero,2388 <dir_read+0xcc>
    236c:	e0bffa83 	ldbu	r2,-22(fp)
    2370:	1080020c 	andi	r2,r2,8
    2374:	1005003a 	cmpeq	r2,r2,zero
    2378:	1000061e 	bne	r2,zero,2394 <dir_read+0xd8>
    237c:	e0bffa83 	ldbu	r2,-22(fp)
    2380:	108003e0 	cmpeqi	r2,r2,15
    2384:	1000031e 	bne	r2,zero,2394 <dir_read+0xd8>
			ord = 0xFF;
    2388:	00bfffc4 	movi	r2,-1
    238c:	e0bffa45 	stb	r2,-23(fp)
		dir = dj->dir;					/* Ptr to the directory entry of current index */
		c = dir[DIR_Name];
		if (c == 0) { res = FR_NO_FILE; break; }	/* Reached to end of table */
#if _USE_LFN	/* LFN configuration */
		a = dir[DIR_Attr] & AM_MASK;
		if (c == DDE || (!_FS_RPATH && c == '.') || ((a & AM_VOL) && a != AM_LFN)) {	/* An entry without valid data */
    2390:	00003906 	br	2478 <dir_read+0x1bc>
			ord = 0xFF;
		} else {
			if (a == AM_LFN) {			/* An LFN entry is found */
    2394:	e0bffa83 	ldbu	r2,-22(fp)
    2398:	108003d8 	cmpnei	r2,r2,15
    239c:	10002a1e 	bne	r2,zero,2448 <dir_read+0x18c>
				if (c & LLE) {			/* Is it start of LFN sequence? */
    23a0:	e0bffc03 	ldbu	r2,-16(fp)
    23a4:	1080100c 	andi	r2,r2,64
    23a8:	1005003a 	cmpeq	r2,r2,zero
    23ac:	10000e1e 	bne	r2,zero,23e8 <dir_read+0x12c>
					sum = dir[LDIR_Chksum];
    23b0:	e0bffb17 	ldw	r2,-20(fp)
    23b4:	10800344 	addi	r2,r2,13
    23b8:	10800003 	ldbu	r2,0(r2)
    23bc:	e0bffa05 	stb	r2,-24(fp)
					c &= ~LLE; ord = c;
    23c0:	e0fffc03 	ldbu	r3,-16(fp)
    23c4:	00bfefc4 	movi	r2,-65
    23c8:	1884703a 	and	r2,r3,r2
    23cc:	e0bffc05 	stb	r2,-16(fp)
    23d0:	e0bffc03 	ldbu	r2,-16(fp)
    23d4:	e0bffa45 	stb	r2,-23(fp)
					dj->lfn_idx = dj->index;
    23d8:	e0bffe17 	ldw	r2,-8(fp)
    23dc:	10c0018b 	ldhu	r3,6(r2)
    23e0:	e0bffe17 	ldw	r2,-8(fp)
    23e4:	10c0080d 	sth	r3,32(r2)
				}
				/* Check LFN validity and capture it */
				ord = (c == ord && sum == dir[LDIR_Chksum] && pick_lfn(dj->lfn, dir)) ? ord - 1 : 0xFF;
    23e8:	e0fffc03 	ldbu	r3,-16(fp)
    23ec:	e0bffa43 	ldbu	r2,-23(fp)
    23f0:	1880101e 	bne	r3,r2,2434 <dir_read+0x178>
    23f4:	e0bffb17 	ldw	r2,-20(fp)
    23f8:	10800344 	addi	r2,r2,13
    23fc:	10800003 	ldbu	r2,0(r2)
    2400:	10c03fcc 	andi	r3,r2,255
    2404:	e0bffa03 	ldbu	r2,-24(fp)
    2408:	18800a1e 	bne	r3,r2,2434 <dir_read+0x178>
    240c:	e0bffe17 	ldw	r2,-8(fp)
    2410:	11000717 	ldw	r4,28(r2)
    2414:	e17ffb17 	ldw	r5,-20(fp)
    2418:	0001a780 	call	1a78 <pick_lfn>
    241c:	1005003a 	cmpeq	r2,r2,zero
    2420:	1000041e 	bne	r2,zero,2434 <dir_read+0x178>
    2424:	e0bffa43 	ldbu	r2,-23(fp)
    2428:	10bfffc4 	addi	r2,r2,-1
    242c:	e0bfff05 	stb	r2,-4(fp)
    2430:	00000206 	br	243c <dir_read+0x180>
    2434:	00bfffc4 	movi	r2,-1
    2438:	e0bfff05 	stb	r2,-4(fp)
    243c:	e0bfff03 	ldbu	r2,-4(fp)
    2440:	e0bffa45 	stb	r2,-23(fp)
    2444:	00000c06 	br	2478 <dir_read+0x1bc>
			} else {					/* An SFN entry is found */
				if (ord || sum != sum_sfn(dir))	/* Is there a valid LFN? */
    2448:	e0bffa43 	ldbu	r2,-23(fp)
    244c:	1004c03a 	cmpne	r2,r2,zero
    2450:	1000051e 	bne	r2,zero,2468 <dir_read+0x1ac>
    2454:	e13ffb17 	ldw	r4,-20(fp)
    2458:	0001fe00 	call	1fe0 <sum_sfn>
    245c:	10c03fcc 	andi	r3,r2,255
    2460:	e0bffa03 	ldbu	r2,-24(fp)
    2464:	18800f26 	beq	r3,r2,24a4 <dir_read+0x1e8>
					dj->lfn_idx = 0xFFFF;		/* It has no LFN. */
    2468:	e0fffe17 	ldw	r3,-8(fp)
    246c:	00bfffc4 	movi	r2,-1
    2470:	1880080d 	sth	r2,32(r3)
				break;
    2474:	00000b06 	br	24a4 <dir_read+0x1e8>
		}
#else		/* Non LFN configuration */
		if (c != DDE && (_FS_RPATH || c != '.') && !(dir[DIR_Attr] & AM_VOL))	/* Is it a valid entry? */
			break;
#endif
		res = dir_next(dj, 0);				/* Next entry */
    2478:	e13ffe17 	ldw	r4,-8(fp)
    247c:	000b883a 	mov	r5,zero
    2480:	00015b80 	call	15b8 <dir_next>
    2484:	e0bffd15 	stw	r2,-12(fp)
		if (res != FR_OK) break;
    2488:	e0bffd17 	ldw	r2,-12(fp)
    248c:	1004c03a 	cmpne	r2,r2,zero
    2490:	1000041e 	bne	r2,zero,24a4 <dir_read+0x1e8>
#if _USE_LFN
	BYTE a, ord = 0xFF, sum = 0xFF;
#endif

	res = FR_NO_FILE;
	while (dj->sect) {
    2494:	e0bffe17 	ldw	r2,-8(fp)
    2498:	10800417 	ldw	r2,16(r2)
    249c:	1004c03a 	cmpne	r2,r2,zero
    24a0:	103f921e 	bne	r2,zero,22ec <dir_read+0x30>
#endif
		res = dir_next(dj, 0);				/* Next entry */
		if (res != FR_OK) break;
	}

	if (res != FR_OK) dj->sect = 0;
    24a4:	e0bffd17 	ldw	r2,-12(fp)
    24a8:	1005003a 	cmpeq	r2,r2,zero
    24ac:	1000021e 	bne	r2,zero,24b8 <dir_read+0x1fc>
    24b0:	e0bffe17 	ldw	r2,-8(fp)
    24b4:	10000415 	stw	zero,16(r2)

	return res;
    24b8:	e0bffd17 	ldw	r2,-12(fp)
}
    24bc:	e037883a 	mov	sp,fp
    24c0:	dfc00117 	ldw	ra,4(sp)
    24c4:	df000017 	ldw	fp,0(sp)
    24c8:	dec00204 	addi	sp,sp,8
    24cc:	f800283a 	ret

000024d0 <dir_register>:
#if !_FS_READONLY
static
FRESULT dir_register (	/* FR_OK:Successful, FR_DENIED:No free entry or too many SFN collision, FR_DISK_ERR:Disk error */
	DIR *dj				/* Target directory with object name to be created */
)
{
    24d0:	defff104 	addi	sp,sp,-60
    24d4:	dfc00e15 	stw	ra,56(sp)
    24d8:	df000d15 	stw	fp,52(sp)
    24dc:	df000d04 	addi	fp,sp,52
    24e0:	e13ffe15 	stw	r4,-8(fp)
	WORD n, ne, is;
	BYTE sn[12], *fn, sum;
	WCHAR *lfn;


	fn = dj->fn; lfn = dj->lfn;
    24e4:	e0bffe17 	ldw	r2,-8(fp)
    24e8:	10800617 	ldw	r2,24(r2)
    24ec:	e0bff515 	stw	r2,-44(fp)
    24f0:	e0bffe17 	ldw	r2,-8(fp)
    24f4:	10800717 	ldw	r2,28(r2)
    24f8:	e0bff315 	stw	r2,-52(fp)
	mem_cpy(sn, fn, 12);
    24fc:	e13ffb04 	addi	r4,fp,-20
    2500:	e17ff517 	ldw	r5,-44(fp)
    2504:	01800304 	movi	r6,12
    2508:	00003f80 	call	3f8 <mem_cpy>

	if (_FS_RPATH && (sn[NS] & NS_DOT))		/* Cannot create dot entry */
		return FR_INVALID_NAME;

	if (sn[NS] & NS_LOSS) {			/* When LFN is out of 8.3 format, generate a numbered name */
    250c:	e0bffdc3 	ldbu	r2,-9(fp)
    2510:	10803fcc 	andi	r2,r2,255
    2514:	1080004c 	andi	r2,r2,1
    2518:	10803fcc 	andi	r2,r2,255
    251c:	1005003a 	cmpeq	r2,r2,zero
    2520:	10002c1e 	bne	r2,zero,25d4 <dir_register+0x104>
		fn[NS] = 0; dj->lfn = 0;			/* Find only SFN */
    2524:	e0bff517 	ldw	r2,-44(fp)
    2528:	108002c4 	addi	r2,r2,11
    252c:	10000005 	stb	zero,0(r2)
    2530:	e0bffe17 	ldw	r2,-8(fp)
    2534:	10000715 	stw	zero,28(r2)
		for (n = 1; n < 100; n++) {
    2538:	00800044 	movi	r2,1
    253c:	e0bff70d 	sth	r2,-36(fp)
    2540:	00000e06 	br	257c <dir_register+0xac>
			gen_numname(fn, sn, lfn, n);	/* Generate a numbered name */
    2544:	e1fff70b 	ldhu	r7,-36(fp)
    2548:	e17ffb04 	addi	r5,fp,-20
    254c:	e13ff517 	ldw	r4,-44(fp)
    2550:	e1bff317 	ldw	r6,-52(fp)
    2554:	0001d900 	call	1d90 <gen_numname>
			res = dir_find(dj);				/* Check if the name collides with existing SFN */
    2558:	e13ffe17 	ldw	r4,-8(fp)
    255c:	00020640 	call	2064 <dir_find>
    2560:	e0bffa15 	stw	r2,-24(fp)
			if (res != FR_OK) break;
    2564:	e0bffa17 	ldw	r2,-24(fp)
    2568:	1004c03a 	cmpne	r2,r2,zero
    256c:	1000061e 	bne	r2,zero,2588 <dir_register+0xb8>
	if (_FS_RPATH && (sn[NS] & NS_DOT))		/* Cannot create dot entry */
		return FR_INVALID_NAME;

	if (sn[NS] & NS_LOSS) {			/* When LFN is out of 8.3 format, generate a numbered name */
		fn[NS] = 0; dj->lfn = 0;			/* Find only SFN */
		for (n = 1; n < 100; n++) {
    2570:	e0bff70b 	ldhu	r2,-36(fp)
    2574:	10800044 	addi	r2,r2,1
    2578:	e0bff70d 	sth	r2,-36(fp)
    257c:	e0bff70b 	ldhu	r2,-36(fp)
    2580:	10801930 	cmpltui	r2,r2,100
    2584:	103fef1e 	bne	r2,zero,2544 <dir_register+0x74>
			gen_numname(fn, sn, lfn, n);	/* Generate a numbered name */
			res = dir_find(dj);				/* Check if the name collides with existing SFN */
			if (res != FR_OK) break;
		}
		if (n == 100) return FR_DENIED;		/* Abort if too many collisions */
    2588:	e0bff70b 	ldhu	r2,-36(fp)
    258c:	10801918 	cmpnei	r2,r2,100
    2590:	1000031e 	bne	r2,zero,25a0 <dir_register+0xd0>
    2594:	008001c4 	movi	r2,7
    2598:	e0bfff15 	stw	r2,-4(fp)
    259c:	0000b906 	br	2884 <dir_register+0x3b4>
		if (res != FR_NO_FILE) return res;	/* Abort if the result is other than 'not collided' */
    25a0:	e0bffa17 	ldw	r2,-24(fp)
    25a4:	10800120 	cmpeqi	r2,r2,4
    25a8:	1000031e 	bne	r2,zero,25b8 <dir_register+0xe8>
    25ac:	e0bffa17 	ldw	r2,-24(fp)
    25b0:	e0bfff15 	stw	r2,-4(fp)
    25b4:	0000b306 	br	2884 <dir_register+0x3b4>
		fn[NS] = sn[NS]; dj->lfn = lfn;
    25b8:	e0bff517 	ldw	r2,-44(fp)
    25bc:	10c002c4 	addi	r3,r2,11
    25c0:	e0bffdc3 	ldbu	r2,-9(fp)
    25c4:	18800005 	stb	r2,0(r3)
    25c8:	e0fffe17 	ldw	r3,-8(fp)
    25cc:	e0bff317 	ldw	r2,-52(fp)
    25d0:	18800715 	stw	r2,28(r3)
	}

	if (sn[NS] & NS_LFN) {			/* When LFN is to be created, reserve an SFN + LFN entries. */
    25d4:	e0bffdc3 	ldbu	r2,-9(fp)
    25d8:	10803fcc 	andi	r2,r2,255
    25dc:	1080008c 	andi	r2,r2,2
    25e0:	1005003a 	cmpeq	r2,r2,zero
    25e4:	1000141e 	bne	r2,zero,2638 <dir_register+0x168>
		for (ne = 0; lfn[ne]; ne++) ;
    25e8:	e03ff68d 	sth	zero,-38(fp)
    25ec:	00000306 	br	25fc <dir_register+0x12c>
    25f0:	e0bff68b 	ldhu	r2,-38(fp)
    25f4:	10800044 	addi	r2,r2,1
    25f8:	e0bff68d 	sth	r2,-38(fp)
    25fc:	e0bff68b 	ldhu	r2,-38(fp)
    2600:	1085883a 	add	r2,r2,r2
    2604:	1007883a 	mov	r3,r2
    2608:	e0bff317 	ldw	r2,-52(fp)
    260c:	1885883a 	add	r2,r3,r2
    2610:	1080000b 	ldhu	r2,0(r2)
    2614:	10bfffcc 	andi	r2,r2,65535
    2618:	1004c03a 	cmpne	r2,r2,zero
    261c:	103ff41e 	bne	r2,zero,25f0 <dir_register+0x120>
		ne = (ne + 25) / 13;
    2620:	e0bff68b 	ldhu	r2,-38(fp)
    2624:	10c00644 	addi	r3,r2,25
    2628:	00800344 	movi	r2,13
    262c:	1885283a 	div	r2,r3,r2
    2630:	e0bff68d 	sth	r2,-38(fp)
    2634:	00000206 	br	2640 <dir_register+0x170>
	} else {						/* Otherwise reserve only an SFN entry. */
		ne = 1;
    2638:	00800044 	movi	r2,1
    263c:	e0bff68d 	sth	r2,-38(fp)
	}

	/* Reserve contiguous entries */
	res = dir_sdi(dj, 0);
    2640:	e13ffe17 	ldw	r4,-8(fp)
    2644:	000b883a 	mov	r5,zero
    2648:	00013bc0 	call	13bc <dir_sdi>
    264c:	e0bffa15 	stw	r2,-24(fp)
	if (res != FR_OK) return res;
    2650:	e0bffa17 	ldw	r2,-24(fp)
    2654:	1005003a 	cmpeq	r2,r2,zero
    2658:	1000031e 	bne	r2,zero,2668 <dir_register+0x198>
    265c:	e0bffa17 	ldw	r2,-24(fp)
    2660:	e0bfff15 	stw	r2,-4(fp)
    2664:	00008706 	br	2884 <dir_register+0x3b4>
	n = is = 0;
    2668:	e03ff60d 	sth	zero,-40(fp)
    266c:	e0bff60b 	ldhu	r2,-40(fp)
    2670:	e0bff70d 	sth	r2,-36(fp)
	do {
		res = move_window(dj->fs, dj->sect);
    2674:	e0bffe17 	ldw	r2,-8(fp)
    2678:	11000017 	ldw	r4,0(r2)
    267c:	e0bffe17 	ldw	r2,-8(fp)
    2680:	11400417 	ldw	r5,16(r2)
    2684:	00006040 	call	604 <move_window>
    2688:	e0bffa15 	stw	r2,-24(fp)
		if (res != FR_OK) break;
    268c:	e0bffa17 	ldw	r2,-24(fp)
    2690:	1004c03a 	cmpne	r2,r2,zero
    2694:	10001f1e 	bne	r2,zero,2714 <dir_register+0x244>
		c = *dj->dir;				/* Check the entry status */
    2698:	e0bffe17 	ldw	r2,-8(fp)
    269c:	10800517 	ldw	r2,20(r2)
    26a0:	10800003 	ldbu	r2,0(r2)
    26a4:	e0bff905 	stb	r2,-28(fp)
		if (c == DDE || c == 0) {	/* Is it a blank entry? */
    26a8:	e0bff903 	ldbu	r2,-28(fp)
    26ac:	10803960 	cmpeqi	r2,r2,229
    26b0:	1000031e 	bne	r2,zero,26c0 <dir_register+0x1f0>
    26b4:	e0bff903 	ldbu	r2,-28(fp)
    26b8:	1004c03a 	cmpne	r2,r2,zero
    26bc:	10000d1e 	bne	r2,zero,26f4 <dir_register+0x224>
			if (n == 0) is = dj->index;	/* First index of the contiguous entry */
    26c0:	e0bff70b 	ldhu	r2,-36(fp)
    26c4:	1004c03a 	cmpne	r2,r2,zero
    26c8:	1000031e 	bne	r2,zero,26d8 <dir_register+0x208>
    26cc:	e0bffe17 	ldw	r2,-8(fp)
    26d0:	1080018b 	ldhu	r2,6(r2)
    26d4:	e0bff60d 	sth	r2,-40(fp)
			if (++n == ne) break;	/* A contiguous entry that required count is found */
    26d8:	e0bff70b 	ldhu	r2,-36(fp)
    26dc:	10800044 	addi	r2,r2,1
    26e0:	e0bff70d 	sth	r2,-36(fp)
    26e4:	e0fff70b 	ldhu	r3,-36(fp)
    26e8:	e0bff68b 	ldhu	r2,-38(fp)
    26ec:	18800926 	beq	r3,r2,2714 <dir_register+0x244>
	n = is = 0;
	do {
		res = move_window(dj->fs, dj->sect);
		if (res != FR_OK) break;
		c = *dj->dir;				/* Check the entry status */
		if (c == DDE || c == 0) {	/* Is it a blank entry? */
    26f0:	00000106 	br	26f8 <dir_register+0x228>
			if (n == 0) is = dj->index;	/* First index of the contiguous entry */
			if (++n == ne) break;	/* A contiguous entry that required count is found */
		} else {
			n = 0;					/* Not a blank entry. Restart to search */
    26f4:	e03ff70d 	sth	zero,-36(fp)
		}
		res = dir_next(dj, 1);		/* Next entry with table stretch */
    26f8:	e13ffe17 	ldw	r4,-8(fp)
    26fc:	01400044 	movi	r5,1
    2700:	00015b80 	call	15b8 <dir_next>
    2704:	e0bffa15 	stw	r2,-24(fp)
	} while (res == FR_OK);
    2708:	e0bffa17 	ldw	r2,-24(fp)
    270c:	1005003a 	cmpeq	r2,r2,zero
    2710:	103fd81e 	bne	r2,zero,2674 <dir_register+0x1a4>

	if (res == FR_OK && ne > 1) {	/* Initialize LFN entry if needed */
    2714:	e0bffa17 	ldw	r2,-24(fp)
    2718:	1004c03a 	cmpne	r2,r2,zero
    271c:	1000331e 	bne	r2,zero,27ec <dir_register+0x31c>
    2720:	e0bff68b 	ldhu	r2,-38(fp)
    2724:	108000b0 	cmpltui	r2,r2,2
    2728:	1000301e 	bne	r2,zero,27ec <dir_register+0x31c>
		res = dir_sdi(dj, is);
    272c:	e17ff60b 	ldhu	r5,-40(fp)
    2730:	e13ffe17 	ldw	r4,-8(fp)
    2734:	00013bc0 	call	13bc <dir_sdi>
    2738:	e0bffa15 	stw	r2,-24(fp)
		if (res == FR_OK) {
    273c:	e0bffa17 	ldw	r2,-24(fp)
    2740:	1004c03a 	cmpne	r2,r2,zero
    2744:	1000291e 	bne	r2,zero,27ec <dir_register+0x31c>
			sum = sum_sfn(dj->fn);	/* Sum of the SFN tied to the LFN */
    2748:	e0bffe17 	ldw	r2,-8(fp)
    274c:	11000617 	ldw	r4,24(r2)
    2750:	0001fe00 	call	1fe0 <sum_sfn>
    2754:	e0bff405 	stb	r2,-48(fp)
			ne--;
    2758:	e0bff68b 	ldhu	r2,-38(fp)
    275c:	10bfffc4 	addi	r2,r2,-1
    2760:	e0bff68d 	sth	r2,-38(fp)
			do {					/* Store LFN entries in bottom first */
				res = move_window(dj->fs, dj->sect);
    2764:	e0bffe17 	ldw	r2,-8(fp)
    2768:	11000017 	ldw	r4,0(r2)
    276c:	e0bffe17 	ldw	r2,-8(fp)
    2770:	11400417 	ldw	r5,16(r2)
    2774:	00006040 	call	604 <move_window>
    2778:	e0bffa15 	stw	r2,-24(fp)
				if (res != FR_OK) break;
    277c:	e0bffa17 	ldw	r2,-24(fp)
    2780:	1004c03a 	cmpne	r2,r2,zero
    2784:	1000191e 	bne	r2,zero,27ec <dir_register+0x31c>
				fit_lfn(dj->lfn, dj->dir, (BYTE)ne, sum);
    2788:	e0bffe17 	ldw	r2,-8(fp)
    278c:	11000717 	ldw	r4,28(r2)
    2790:	e0bffe17 	ldw	r2,-8(fp)
    2794:	11400517 	ldw	r5,20(r2)
    2798:	e0bff68b 	ldhu	r2,-38(fp)
    279c:	11803fcc 	andi	r6,r2,255
    27a0:	e1fff403 	ldbu	r7,-48(fp)
    27a4:	0001c000 	call	1c00 <fit_lfn>
				dj->fs->wflag = 1;
    27a8:	e0bffe17 	ldw	r2,-8(fp)
    27ac:	10c00017 	ldw	r3,0(r2)
    27b0:	00800044 	movi	r2,1
    27b4:	18800105 	stb	r2,4(r3)
				res = dir_next(dj, 0);	/* Next entry */
    27b8:	e13ffe17 	ldw	r4,-8(fp)
    27bc:	000b883a 	mov	r5,zero
    27c0:	00015b80 	call	15b8 <dir_next>
    27c4:	e0bffa15 	stw	r2,-24(fp)
			} while (res == FR_OK && --ne);
    27c8:	e0bffa17 	ldw	r2,-24(fp)
    27cc:	1004c03a 	cmpne	r2,r2,zero
    27d0:	1000061e 	bne	r2,zero,27ec <dir_register+0x31c>
    27d4:	e0bff68b 	ldhu	r2,-38(fp)
    27d8:	10bfffc4 	addi	r2,r2,-1
    27dc:	e0bff68d 	sth	r2,-38(fp)
    27e0:	e0bff68b 	ldhu	r2,-38(fp)
    27e4:	1004c03a 	cmpne	r2,r2,zero
    27e8:	103fde1e 	bne	r2,zero,2764 <dir_register+0x294>
			res = dir_next(dj, 1);			/* Next entry with table stretch */
		} while (res == FR_OK);
	}
#endif

	if (res == FR_OK) {		/* Initialize the SFN entry */
    27ec:	e0bffa17 	ldw	r2,-24(fp)
    27f0:	1004c03a 	cmpne	r2,r2,zero
    27f4:	1000211e 	bne	r2,zero,287c <dir_register+0x3ac>
		res = move_window(dj->fs, dj->sect);
    27f8:	e0bffe17 	ldw	r2,-8(fp)
    27fc:	11000017 	ldw	r4,0(r2)
    2800:	e0bffe17 	ldw	r2,-8(fp)
    2804:	11400417 	ldw	r5,16(r2)
    2808:	00006040 	call	604 <move_window>
    280c:	e0bffa15 	stw	r2,-24(fp)
		if (res == FR_OK) {
    2810:	e0bffa17 	ldw	r2,-24(fp)
    2814:	1004c03a 	cmpne	r2,r2,zero
    2818:	1000181e 	bne	r2,zero,287c <dir_register+0x3ac>
			dir = dj->dir;
    281c:	e0bffe17 	ldw	r2,-8(fp)
    2820:	10800517 	ldw	r2,20(r2)
    2824:	e0bff815 	stw	r2,-32(fp)
			mem_set(dir, 0, SZ_DIR);	/* Clean the entry */
    2828:	e13ff817 	ldw	r4,-32(fp)
    282c:	000b883a 	mov	r5,zero
    2830:	01800804 	movi	r6,32
    2834:	00004740 	call	474 <mem_set>
			mem_cpy(dir, dj->fn, 11);	/* Put SFN */
    2838:	e0bffe17 	ldw	r2,-8(fp)
    283c:	11400617 	ldw	r5,24(r2)
    2840:	e13ff817 	ldw	r4,-32(fp)
    2844:	018002c4 	movi	r6,11
    2848:	00003f80 	call	3f8 <mem_cpy>
#if _USE_LFN
			dir[DIR_NTres] = *(dj->fn+NS) & (NS_BODY | NS_EXT);	/* Put NT flag */
    284c:	e0bff817 	ldw	r2,-32(fp)
    2850:	10c00304 	addi	r3,r2,12
    2854:	e0bffe17 	ldw	r2,-8(fp)
    2858:	10800617 	ldw	r2,24(r2)
    285c:	108002c4 	addi	r2,r2,11
    2860:	10800003 	ldbu	r2,0(r2)
    2864:	1080060c 	andi	r2,r2,24
    2868:	18800005 	stb	r2,0(r3)
#endif
			dj->fs->wflag = 1;
    286c:	e0bffe17 	ldw	r2,-8(fp)
    2870:	10c00017 	ldw	r3,0(r2)
    2874:	00800044 	movi	r2,1
    2878:	18800105 	stb	r2,4(r3)
		}
	}

	return res;
    287c:	e0bffa17 	ldw	r2,-24(fp)
    2880:	e0bfff15 	stw	r2,-4(fp)
    2884:	e0bfff17 	ldw	r2,-4(fp)
}
    2888:	e037883a 	mov	sp,fp
    288c:	dfc00117 	ldw	ra,4(sp)
    2890:	df000017 	ldw	fp,0(sp)
    2894:	dec00204 	addi	sp,sp,8
    2898:	f800283a 	ret

0000289c <dir_remove>:
#if !_FS_READONLY && !_FS_MINIMIZE
static
FRESULT dir_remove (	/* FR_OK: Successful, FR_DISK_ERR: A disk error */
	DIR *dj				/* Directory object pointing the entry to be removed */
)
{
    289c:	defffa04 	addi	sp,sp,-24
    28a0:	dfc00515 	stw	ra,20(sp)
    28a4:	df000415 	stw	fp,16(sp)
    28a8:	df000404 	addi	fp,sp,16
    28ac:	e13ffe15 	stw	r4,-8(fp)
	FRESULT res;
#if _USE_LFN	/* LFN configuration */
	WORD i;

	i = dj->index;	/* SFN index */
    28b0:	e0bffe17 	ldw	r2,-8(fp)
    28b4:	1080018b 	ldhu	r2,6(r2)
    28b8:	e0bffc0d 	sth	r2,-16(fp)
	res = dir_sdi(dj, (WORD)((dj->lfn_idx == 0xFFFF) ? i : dj->lfn_idx));	/* Goto the SFN or top of the LFN entries */
    28bc:	e0bffe17 	ldw	r2,-8(fp)
    28c0:	1080080b 	ldhu	r2,32(r2)
    28c4:	10ffffcc 	andi	r3,r2,65535
    28c8:	00bfffd4 	movui	r2,65535
    28cc:	18800526 	beq	r3,r2,28e4 <dir_remove+0x48>
    28d0:	e0bffe17 	ldw	r2,-8(fp)
    28d4:	1080080b 	ldhu	r2,32(r2)
    28d8:	10bfffcc 	andi	r2,r2,65535
    28dc:	e0bfff15 	stw	r2,-4(fp)
    28e0:	00000206 	br	28ec <dir_remove+0x50>
    28e4:	e0bffc0b 	ldhu	r2,-16(fp)
    28e8:	e0bfff15 	stw	r2,-4(fp)
    28ec:	e13ffe17 	ldw	r4,-8(fp)
    28f0:	e17fff17 	ldw	r5,-4(fp)
    28f4:	00013bc0 	call	13bc <dir_sdi>
    28f8:	e0bffd15 	stw	r2,-12(fp)
	if (res == FR_OK) {
    28fc:	e0bffd17 	ldw	r2,-12(fp)
    2900:	1004c03a 	cmpne	r2,r2,zero
    2904:	1000221e 	bne	r2,zero,2990 <dir_remove+0xf4>
		do {
			res = move_window(dj->fs, dj->sect);
    2908:	e0bffe17 	ldw	r2,-8(fp)
    290c:	11000017 	ldw	r4,0(r2)
    2910:	e0bffe17 	ldw	r2,-8(fp)
    2914:	11400417 	ldw	r5,16(r2)
    2918:	00006040 	call	604 <move_window>
    291c:	e0bffd15 	stw	r2,-12(fp)
			if (res != FR_OK) break;
    2920:	e0bffd17 	ldw	r2,-12(fp)
    2924:	1004c03a 	cmpne	r2,r2,zero
    2928:	1000141e 	bne	r2,zero,297c <dir_remove+0xe0>
			*dj->dir = DDE;			/* Mark the entry "deleted" */
    292c:	e0bffe17 	ldw	r2,-8(fp)
    2930:	10c00517 	ldw	r3,20(r2)
    2934:	00bff944 	movi	r2,-27
    2938:	18800005 	stb	r2,0(r3)
			dj->fs->wflag = 1;
    293c:	e0bffe17 	ldw	r2,-8(fp)
    2940:	10c00017 	ldw	r3,0(r2)
    2944:	00800044 	movi	r2,1
    2948:	18800105 	stb	r2,4(r3)
			if (dj->index >= i) break;	/* When reached SFN, all entries of the object has been deleted. */
    294c:	e0bffe17 	ldw	r2,-8(fp)
    2950:	1080018b 	ldhu	r2,6(r2)
    2954:	10ffffcc 	andi	r3,r2,65535
    2958:	e0bffc0b 	ldhu	r2,-16(fp)
    295c:	1880072e 	bgeu	r3,r2,297c <dir_remove+0xe0>
			res = dir_next(dj, 0);		/* Next entry */
    2960:	e13ffe17 	ldw	r4,-8(fp)
    2964:	000b883a 	mov	r5,zero
    2968:	00015b80 	call	15b8 <dir_next>
    296c:	e0bffd15 	stw	r2,-12(fp)
		} while (res == FR_OK);
    2970:	e0bffd17 	ldw	r2,-12(fp)
    2974:	1005003a 	cmpeq	r2,r2,zero
    2978:	103fe31e 	bne	r2,zero,2908 <dir_remove+0x6c>
		if (res == FR_NO_FILE) res = FR_INT_ERR;
    297c:	e0bffd17 	ldw	r2,-12(fp)
    2980:	10800118 	cmpnei	r2,r2,4
    2984:	1000021e 	bne	r2,zero,2990 <dir_remove+0xf4>
    2988:	00800084 	movi	r2,2
    298c:	e0bffd15 	stw	r2,-12(fp)
			dj->fs->wflag = 1;
		}
	}
#endif

	return res;
    2990:	e0bffd17 	ldw	r2,-12(fp)
}
    2994:	e037883a 	mov	sp,fp
    2998:	dfc00117 	ldw	ra,4(sp)
    299c:	df000017 	ldw	fp,0(sp)
    29a0:	dec00204 	addi	sp,sp,8
    29a4:	f800283a 	ret

000029a8 <create_name>:
static
FRESULT create_name (
	DIR *dj,			/* Pointer to the directory object */
	const TCHAR **path	/* Pointer to pointer to the segment in the path string */
)
{
    29a8:	defff304 	addi	sp,sp,-52
    29ac:	dfc00c15 	stw	ra,48(sp)
    29b0:	df000b15 	stw	fp,44(sp)
    29b4:	df000b04 	addi	fp,sp,44
    29b8:	e13ffc15 	stw	r4,-16(fp)
    29bc:	e17ffd15 	stw	r5,-12(fp)
	WCHAR w, *lfn;
	UINT i, ni, si, di;
	const TCHAR *p;

	/* Create LFN in Unicode */
	for (p = *path; *p == '/' || *p == '\\'; p++) ;	/* Strip duplicated separator */
    29c0:	e0bffd17 	ldw	r2,-12(fp)
    29c4:	10800017 	ldw	r2,0(r2)
    29c8:	e0bff515 	stw	r2,-44(fp)
    29cc:	00000306 	br	29dc <create_name+0x34>
    29d0:	e0bff517 	ldw	r2,-44(fp)
    29d4:	10800044 	addi	r2,r2,1
    29d8:	e0bff515 	stw	r2,-44(fp)
    29dc:	e0bff517 	ldw	r2,-44(fp)
    29e0:	10800003 	ldbu	r2,0(r2)
    29e4:	10803fcc 	andi	r2,r2,255
    29e8:	1080201c 	xori	r2,r2,128
    29ec:	10bfe004 	addi	r2,r2,-128
    29f0:	10800be0 	cmpeqi	r2,r2,47
    29f4:	103ff61e 	bne	r2,zero,29d0 <create_name+0x28>
    29f8:	e0bff517 	ldw	r2,-44(fp)
    29fc:	10800003 	ldbu	r2,0(r2)
    2a00:	10803fcc 	andi	r2,r2,255
    2a04:	1080201c 	xori	r2,r2,128
    2a08:	10bfe004 	addi	r2,r2,-128
    2a0c:	10801720 	cmpeqi	r2,r2,92
    2a10:	103fef1e 	bne	r2,zero,29d0 <create_name+0x28>
	lfn = dj->lfn;
    2a14:	e0bffc17 	ldw	r2,-16(fp)
    2a18:	10800717 	ldw	r2,28(r2)
    2a1c:	e0bffa15 	stw	r2,-24(fp)
	si = di = 0;
    2a20:	e03ff615 	stw	zero,-40(fp)
    2a24:	e0bff617 	ldw	r2,-40(fp)
    2a28:	e0bff715 	stw	r2,-36(fp)
	for (;;) {
		w = p[si++];					/* Get a character */
    2a2c:	e0fff717 	ldw	r3,-36(fp)
    2a30:	e0bff517 	ldw	r2,-44(fp)
    2a34:	1885883a 	add	r2,r3,r2
    2a38:	10800003 	ldbu	r2,0(r2)
    2a3c:	10803fcc 	andi	r2,r2,255
    2a40:	1080201c 	xori	r2,r2,128
    2a44:	10bfe004 	addi	r2,r2,-128
    2a48:	e0bffb0d 	sth	r2,-20(fp)
    2a4c:	e0bff717 	ldw	r2,-36(fp)
    2a50:	10800044 	addi	r2,r2,1
    2a54:	e0bff715 	stw	r2,-36(fp)
		if (w < ' ' || w == '/' || w == '\\') break;	/* Break on end of segment */
    2a58:	e0bffb0b 	ldhu	r2,-20(fp)
    2a5c:	10800830 	cmpltui	r2,r2,32
    2a60:	1000601e 	bne	r2,zero,2be4 <create_name+0x23c>
    2a64:	e0bffb0b 	ldhu	r2,-20(fp)
    2a68:	10800be0 	cmpeqi	r2,r2,47
    2a6c:	10005d1e 	bne	r2,zero,2be4 <create_name+0x23c>
    2a70:	e0bffb0b 	ldhu	r2,-20(fp)
    2a74:	10801720 	cmpeqi	r2,r2,92
    2a78:	10005a1e 	bne	r2,zero,2be4 <create_name+0x23c>
		if (di >= _MAX_LFN)				/* Reject too long name */
    2a7c:	e0bff617 	ldw	r2,-40(fp)
    2a80:	10803ff0 	cmpltui	r2,r2,255
    2a84:	1000031e 	bne	r2,zero,2a94 <create_name+0xec>
			return FR_INVALID_NAME;
    2a88:	00800184 	movi	r2,6
    2a8c:	e0bfff15 	stw	r2,-4(fp)
    2a90:	00017d06 	br	3088 <create_name+0x6e0>
#if !_LFN_UNICODE
		w &= 0xFF;
    2a94:	e0bffb0b 	ldhu	r2,-20(fp)
    2a98:	10803fcc 	andi	r2,r2,255
    2a9c:	e0bffb0d 	sth	r2,-20(fp)
		if (IsDBCS1(w)) {				/* Check if it is a DBC 1st byte (always false on SBCS cfg) */
    2aa0:	e0bffb0b 	ldhu	r2,-20(fp)
    2aa4:	10803fcc 	andi	r2,r2,255
    2aa8:	10802070 	cmpltui	r2,r2,129
    2aac:	1000041e 	bne	r2,zero,2ac0 <create_name+0x118>
    2ab0:	e0bffb0b 	ldhu	r2,-20(fp)
    2ab4:	10803fcc 	andi	r2,r2,255
    2ab8:	10802830 	cmpltui	r2,r2,160
    2abc:	1000081e 	bne	r2,zero,2ae0 <create_name+0x138>
    2ac0:	e0bffb0b 	ldhu	r2,-20(fp)
    2ac4:	10803fcc 	andi	r2,r2,255
    2ac8:	10803830 	cmpltui	r2,r2,224
    2acc:	1000241e 	bne	r2,zero,2b60 <create_name+0x1b8>
    2ad0:	e0bffb0b 	ldhu	r2,-20(fp)
    2ad4:	10803fcc 	andi	r2,r2,255
    2ad8:	10803f68 	cmpgeui	r2,r2,253
    2adc:	1000201e 	bne	r2,zero,2b60 <create_name+0x1b8>
			b = (BYTE)p[si++];			/* Get 2nd byte */
    2ae0:	e0fff717 	ldw	r3,-36(fp)
    2ae4:	e0bff517 	ldw	r2,-44(fp)
    2ae8:	1885883a 	add	r2,r3,r2
    2aec:	10800003 	ldbu	r2,0(r2)
    2af0:	e0bffbc5 	stb	r2,-17(fp)
    2af4:	e0bff717 	ldw	r2,-36(fp)
    2af8:	10800044 	addi	r2,r2,1
    2afc:	e0bff715 	stw	r2,-36(fp)
			if (!IsDBCS2(b))
    2b00:	e0bffbc3 	ldbu	r2,-17(fp)
    2b04:	10801030 	cmpltui	r2,r2,64
    2b08:	1000031e 	bne	r2,zero,2b18 <create_name+0x170>
    2b0c:	e0bffbc3 	ldbu	r2,-17(fp)
    2b10:	10801ff0 	cmpltui	r2,r2,127
    2b14:	10000c1e 	bne	r2,zero,2b48 <create_name+0x1a0>
    2b18:	e0bffbc3 	ldbu	r2,-17(fp)
    2b1c:	10803fcc 	andi	r2,r2,255
    2b20:	1080201c 	xori	r2,r2,128
    2b24:	10bfe004 	addi	r2,r2,-128
    2b28:	1004403a 	cmpge	r2,r2,zero
    2b2c:	1000031e 	bne	r2,zero,2b3c <create_name+0x194>
    2b30:	e0bffbc3 	ldbu	r2,-17(fp)
    2b34:	10803f70 	cmpltui	r2,r2,253
    2b38:	1000031e 	bne	r2,zero,2b48 <create_name+0x1a0>
				return FR_INVALID_NAME;	/* Reject invalid sequence */
    2b3c:	00800184 	movi	r2,6
    2b40:	e0bfff15 	stw	r2,-4(fp)
    2b44:	00015006 	br	3088 <create_name+0x6e0>
			w = (w << 8) + b;			/* Create a DBC */
    2b48:	e0bffb0b 	ldhu	r2,-20(fp)
    2b4c:	1004923a 	slli	r2,r2,8
    2b50:	1007883a 	mov	r3,r2
    2b54:	e0bffbc3 	ldbu	r2,-17(fp)
    2b58:	1885883a 	add	r2,r3,r2
    2b5c:	e0bffb0d 	sth	r2,-20(fp)
		}
		w = ff_convert(w, 1);			/* Convert ANSI/OEM to Unicode */
    2b60:	e13ffb0b 	ldhu	r4,-20(fp)
    2b64:	01400044 	movi	r5,1
    2b68:	0007c200 	call	7c20 <ff_convert>
    2b6c:	e0bffb0d 	sth	r2,-20(fp)
		if (!w) return FR_INVALID_NAME;	/* Reject invalid code */
    2b70:	e0bffb0b 	ldhu	r2,-20(fp)
    2b74:	1004c03a 	cmpne	r2,r2,zero
    2b78:	1000031e 	bne	r2,zero,2b88 <create_name+0x1e0>
    2b7c:	00800184 	movi	r2,6
    2b80:	e0bfff15 	stw	r2,-4(fp)
    2b84:	00014006 	br	3088 <create_name+0x6e0>
#endif
		if (w < 0x80 && chk_chr("\"*:<>\?|\x7F", w)) /* Reject illegal chars for LFN */
    2b88:	e0bffb0b 	ldhu	r2,-20(fp)
    2b8c:	10802028 	cmpgeui	r2,r2,128
    2b90:	1000091e 	bne	r2,zero,2bb8 <create_name+0x210>
    2b94:	e17ffb0b 	ldhu	r5,-20(fp)
    2b98:	01000074 	movhi	r4,1
    2b9c:	211d2b04 	addi	r4,r4,29868
    2ba0:	00005840 	call	584 <chk_chr>
    2ba4:	1005003a 	cmpeq	r2,r2,zero
    2ba8:	1000031e 	bne	r2,zero,2bb8 <create_name+0x210>
			return FR_INVALID_NAME;
    2bac:	00800184 	movi	r2,6
    2bb0:	e0bfff15 	stw	r2,-4(fp)
    2bb4:	00013406 	br	3088 <create_name+0x6e0>
		lfn[di++] = w;					/* Store the Unicode char */
    2bb8:	e0bff617 	ldw	r2,-40(fp)
    2bbc:	1085883a 	add	r2,r2,r2
    2bc0:	1007883a 	mov	r3,r2
    2bc4:	e0bffa17 	ldw	r2,-24(fp)
    2bc8:	1887883a 	add	r3,r3,r2
    2bcc:	e0bffb0b 	ldhu	r2,-20(fp)
    2bd0:	1880000d 	sth	r2,0(r3)
    2bd4:	e0bff617 	ldw	r2,-40(fp)
    2bd8:	10800044 	addi	r2,r2,1
    2bdc:	e0bff615 	stw	r2,-40(fp)
	}
    2be0:	003f9206 	br	2a2c <create_name+0x84>
	*path = &p[si];						/* Return pointer to the next segment */
    2be4:	e0fff717 	ldw	r3,-36(fp)
    2be8:	e0bff517 	ldw	r2,-44(fp)
    2bec:	1887883a 	add	r3,r3,r2
    2bf0:	e0bffd17 	ldw	r2,-12(fp)
    2bf4:	10c00015 	stw	r3,0(r2)
	cf = (w < ' ') ? NS_LAST : 0;		/* Set last segment flag if end of path */
    2bf8:	e0bffb0b 	ldhu	r2,-20(fp)
    2bfc:	10800828 	cmpgeui	r2,r2,32
    2c00:	1000031e 	bne	r2,zero,2c10 <create_name+0x268>
    2c04:	00800104 	movi	r2,4
    2c08:	e0bffe05 	stb	r2,-8(fp)
    2c0c:	00000106 	br	2c14 <create_name+0x26c>
    2c10:	e03ffe05 	stb	zero,-8(fp)
    2c14:	e0bffe03 	ldbu	r2,-8(fp)
    2c18:	e0bffb85 	stb	r2,-18(fp)
			dj->fn[i] = (i < di) ? '.' : ' ';
		dj->fn[i] = cf | NS_DOT;		/* This is a dot entry */
		return FR_OK;
	}
#endif
	while (di) {						/* Strip trailing spaces and dots */
    2c1c:	00001106 	br	2c64 <create_name+0x2bc>
		w = lfn[di-1];
    2c20:	e0bff617 	ldw	r2,-40(fp)
    2c24:	1085883a 	add	r2,r2,r2
    2c28:	1007883a 	mov	r3,r2
    2c2c:	e0bffa17 	ldw	r2,-24(fp)
    2c30:	1885883a 	add	r2,r3,r2
    2c34:	10bfff84 	addi	r2,r2,-2
    2c38:	1080000b 	ldhu	r2,0(r2)
    2c3c:	e0bffb0d 	sth	r2,-20(fp)
		if (w != ' ' && w != '.') break;
    2c40:	e0bffb0b 	ldhu	r2,-20(fp)
    2c44:	10800820 	cmpeqi	r2,r2,32
    2c48:	1000031e 	bne	r2,zero,2c58 <create_name+0x2b0>
    2c4c:	e0bffb0b 	ldhu	r2,-20(fp)
    2c50:	10800b98 	cmpnei	r2,r2,46
    2c54:	1000061e 	bne	r2,zero,2c70 <create_name+0x2c8>
		di--;
    2c58:	e0bff617 	ldw	r2,-40(fp)
    2c5c:	10bfffc4 	addi	r2,r2,-1
    2c60:	e0bff615 	stw	r2,-40(fp)
			dj->fn[i] = (i < di) ? '.' : ' ';
		dj->fn[i] = cf | NS_DOT;		/* This is a dot entry */
		return FR_OK;
	}
#endif
	while (di) {						/* Strip trailing spaces and dots */
    2c64:	e0bff617 	ldw	r2,-40(fp)
    2c68:	1004c03a 	cmpne	r2,r2,zero
    2c6c:	103fec1e 	bne	r2,zero,2c20 <create_name+0x278>
		w = lfn[di-1];
		if (w != ' ' && w != '.') break;
		di--;
	}
	if (!di) return FR_INVALID_NAME;	/* Reject nul string */
    2c70:	e0bff617 	ldw	r2,-40(fp)
    2c74:	1004c03a 	cmpne	r2,r2,zero
    2c78:	1000031e 	bne	r2,zero,2c88 <create_name+0x2e0>
    2c7c:	00800184 	movi	r2,6
    2c80:	e0bfff15 	stw	r2,-4(fp)
    2c84:	00010006 	br	3088 <create_name+0x6e0>

	lfn[di] = 0;						/* LFN is created */
    2c88:	e0bff617 	ldw	r2,-40(fp)
    2c8c:	1085883a 	add	r2,r2,r2
    2c90:	1007883a 	mov	r3,r2
    2c94:	e0bffa17 	ldw	r2,-24(fp)
    2c98:	1885883a 	add	r2,r3,r2
    2c9c:	1000000d 	sth	zero,0(r2)

	/* Create SFN in directory form */
	mem_set(dj->fn, ' ', 11);
    2ca0:	e0bffc17 	ldw	r2,-16(fp)
    2ca4:	11000617 	ldw	r4,24(r2)
    2ca8:	01400804 	movi	r5,32
    2cac:	018002c4 	movi	r6,11
    2cb0:	00004740 	call	474 <mem_set>
	for (si = 0; lfn[si] == ' ' || lfn[si] == '.'; si++) ;	/* Strip leading spaces and dots */
    2cb4:	e03ff715 	stw	zero,-36(fp)
    2cb8:	00000306 	br	2cc8 <create_name+0x320>
    2cbc:	e0bff717 	ldw	r2,-36(fp)
    2cc0:	10800044 	addi	r2,r2,1
    2cc4:	e0bff715 	stw	r2,-36(fp)
    2cc8:	e0bff717 	ldw	r2,-36(fp)
    2ccc:	1085883a 	add	r2,r2,r2
    2cd0:	1007883a 	mov	r3,r2
    2cd4:	e0bffa17 	ldw	r2,-24(fp)
    2cd8:	1885883a 	add	r2,r3,r2
    2cdc:	1080000b 	ldhu	r2,0(r2)
    2ce0:	10bfffcc 	andi	r2,r2,65535
    2ce4:	10800820 	cmpeqi	r2,r2,32
    2ce8:	103ff41e 	bne	r2,zero,2cbc <create_name+0x314>
    2cec:	e0bff717 	ldw	r2,-36(fp)
    2cf0:	1085883a 	add	r2,r2,r2
    2cf4:	1007883a 	mov	r3,r2
    2cf8:	e0bffa17 	ldw	r2,-24(fp)
    2cfc:	1885883a 	add	r2,r3,r2
    2d00:	1080000b 	ldhu	r2,0(r2)
    2d04:	10bfffcc 	andi	r2,r2,65535
    2d08:	10800ba0 	cmpeqi	r2,r2,46
    2d0c:	103feb1e 	bne	r2,zero,2cbc <create_name+0x314>
	if (si) cf |= NS_LOSS | NS_LFN;
    2d10:	e0bff717 	ldw	r2,-36(fp)
    2d14:	1005003a 	cmpeq	r2,r2,zero
    2d18:	1000071e 	bne	r2,zero,2d38 <create_name+0x390>
    2d1c:	e0bffb83 	ldbu	r2,-18(fp)
    2d20:	108000d4 	ori	r2,r2,3
    2d24:	e0bffb85 	stb	r2,-18(fp)
	while (di && lfn[di - 1] != '.') di--;	/* Find extension (di<=si: no extension) */
    2d28:	00000306 	br	2d38 <create_name+0x390>
    2d2c:	e0bff617 	ldw	r2,-40(fp)
    2d30:	10bfffc4 	addi	r2,r2,-1
    2d34:	e0bff615 	stw	r2,-40(fp)
    2d38:	e0bff617 	ldw	r2,-40(fp)
    2d3c:	1005003a 	cmpeq	r2,r2,zero
    2d40:	10000a1e 	bne	r2,zero,2d6c <create_name+0x3c4>
    2d44:	e0bff617 	ldw	r2,-40(fp)
    2d48:	1085883a 	add	r2,r2,r2
    2d4c:	1007883a 	mov	r3,r2
    2d50:	e0bffa17 	ldw	r2,-24(fp)
    2d54:	1885883a 	add	r2,r3,r2
    2d58:	10bfff84 	addi	r2,r2,-2
    2d5c:	1080000b 	ldhu	r2,0(r2)
    2d60:	10bfffcc 	andi	r2,r2,65535
    2d64:	10800b98 	cmpnei	r2,r2,46
    2d68:	103ff01e 	bne	r2,zero,2d2c <create_name+0x384>

	b = i = 0; ni = 8;
    2d6c:	e03ff915 	stw	zero,-28(fp)
    2d70:	e03ffbc5 	stb	zero,-17(fp)
    2d74:	00800204 	movi	r2,8
    2d78:	e0bff815 	stw	r2,-32(fp)
    2d7c:	00000006 	br	2d80 <create_name+0x3d8>
	for (;;) {
		w = lfn[si++];					/* Get an LFN char */
    2d80:	e0bff717 	ldw	r2,-36(fp)
    2d84:	1085883a 	add	r2,r2,r2
    2d88:	1007883a 	mov	r3,r2
    2d8c:	e0bffa17 	ldw	r2,-24(fp)
    2d90:	1885883a 	add	r2,r3,r2
    2d94:	1080000b 	ldhu	r2,0(r2)
    2d98:	e0bffb0d 	sth	r2,-20(fp)
    2d9c:	e0bff717 	ldw	r2,-36(fp)
    2da0:	10800044 	addi	r2,r2,1
    2da4:	e0bff715 	stw	r2,-36(fp)
		if (!w) break;					/* Break on end of the LFN */
    2da8:	e0bffb0b 	ldhu	r2,-20(fp)
    2dac:	1005003a 	cmpeq	r2,r2,zero
    2db0:	1000811e 	bne	r2,zero,2fb8 <create_name+0x610>
		if (w == ' ' || (w == '.' && si != di)) {	/* Remove spaces and dots */
    2db4:	e0bffb0b 	ldhu	r2,-20(fp)
    2db8:	10800820 	cmpeqi	r2,r2,32
    2dbc:	1000061e 	bne	r2,zero,2dd8 <create_name+0x430>
    2dc0:	e0bffb0b 	ldhu	r2,-20(fp)
    2dc4:	10800b98 	cmpnei	r2,r2,46
    2dc8:	1000071e 	bne	r2,zero,2de8 <create_name+0x440>
    2dcc:	e0fff717 	ldw	r3,-36(fp)
    2dd0:	e0bff617 	ldw	r2,-40(fp)
    2dd4:	18800426 	beq	r3,r2,2de8 <create_name+0x440>
			cf |= NS_LOSS | NS_LFN; continue;
    2dd8:	e0bffb83 	ldbu	r2,-18(fp)
    2ddc:	108000d4 	ori	r2,r2,3
    2de0:	e0bffb85 	stb	r2,-18(fp)
    2de4:	003fe606 	br	2d80 <create_name+0x3d8>
		}

		if (i >= ni || si == di) {		/* Extension or end of SFN */
    2de8:	e0fff917 	ldw	r3,-28(fp)
    2dec:	e0bff817 	ldw	r2,-32(fp)
    2df0:	1880032e 	bgeu	r3,r2,2e00 <create_name+0x458>
    2df4:	e0fff717 	ldw	r3,-36(fp)
    2df8:	e0bff617 	ldw	r2,-40(fp)
    2dfc:	18801b1e 	bne	r3,r2,2e6c <create_name+0x4c4>
			if (ni == 11) {				/* Long extension */
    2e00:	e0bff817 	ldw	r2,-32(fp)
    2e04:	108002d8 	cmpnei	r2,r2,11
    2e08:	1000041e 	bne	r2,zero,2e1c <create_name+0x474>
				cf |= NS_LOSS | NS_LFN; break;
    2e0c:	e0bffb83 	ldbu	r2,-18(fp)
    2e10:	108000d4 	ori	r2,r2,3
    2e14:	e0bffb85 	stb	r2,-18(fp)
    2e18:	00006706 	br	2fb8 <create_name+0x610>
			}
			if (si != di) cf |= NS_LOSS | NS_LFN;	/* Out of 8.3 format */
    2e1c:	e0fff717 	ldw	r3,-36(fp)
    2e20:	e0bff617 	ldw	r2,-40(fp)
    2e24:	18800326 	beq	r3,r2,2e34 <create_name+0x48c>
    2e28:	e0bffb83 	ldbu	r2,-18(fp)
    2e2c:	108000d4 	ori	r2,r2,3
    2e30:	e0bffb85 	stb	r2,-18(fp)
			if (si > di) break;			/* No extension */
    2e34:	e0fff717 	ldw	r3,-36(fp)
    2e38:	e0bff617 	ldw	r2,-40(fp)
    2e3c:	10c05e36 	bltu	r2,r3,2fb8 <create_name+0x610>
			si = di; i = 8; ni = 11;	/* Enter extension section */
    2e40:	e0bff617 	ldw	r2,-40(fp)
    2e44:	e0bff715 	stw	r2,-36(fp)
    2e48:	00800204 	movi	r2,8
    2e4c:	e0bff915 	stw	r2,-28(fp)
    2e50:	008002c4 	movi	r2,11
    2e54:	e0bff815 	stw	r2,-32(fp)
			b <<= 2; continue;
    2e58:	e0bffbc3 	ldbu	r2,-17(fp)
    2e5c:	1085883a 	add	r2,r2,r2
    2e60:	1085883a 	add	r2,r2,r2
    2e64:	e0bffbc5 	stb	r2,-17(fp)
    2e68:	003fc506 	br	2d80 <create_name+0x3d8>
		}

		if (w >= 0x80) {				/* Non ASCII char */
    2e6c:	e0bffb0b 	ldhu	r2,-20(fp)
    2e70:	10802030 	cmpltui	r2,r2,128
    2e74:	1000091e 	bne	r2,zero,2e9c <create_name+0x4f4>
#ifdef _EXCVT
			w = ff_convert(w, 0);		/* Unicode -> OEM code */
			if (w) w = excvt[w - 0x80];	/* Convert extended char to upper (SBCS) */
#else
			w = ff_convert(ff_wtoupper(w), 0);	/* Upper converted Unicode -> OEM code */
    2e78:	e13ffb0b 	ldhu	r4,-20(fp)
    2e7c:	0007d8c0 	call	7d8c <ff_wtoupper>
    2e80:	113fffcc 	andi	r4,r2,65535
    2e84:	000b883a 	mov	r5,zero
    2e88:	0007c200 	call	7c20 <ff_convert>
    2e8c:	e0bffb0d 	sth	r2,-20(fp)
#endif
			cf |= NS_LFN;				/* Force create LFN entry */
    2e90:	e0bffb83 	ldbu	r2,-18(fp)
    2e94:	10800094 	ori	r2,r2,2
    2e98:	e0bffb85 	stb	r2,-18(fp)
		}

		if (_DF1S && w >= 0x100) {		/* Double byte char (always false on SBCS cfg) */
    2e9c:	e0bffb0b 	ldhu	r2,-20(fp)
    2ea0:	10804030 	cmpltui	r2,r2,256
    2ea4:	1000151e 	bne	r2,zero,2efc <create_name+0x554>
			if (i >= ni - 1) {
    2ea8:	e0bff817 	ldw	r2,-32(fp)
    2eac:	10ffffc4 	addi	r3,r2,-1
    2eb0:	e0bff917 	ldw	r2,-28(fp)
    2eb4:	10c00636 	bltu	r2,r3,2ed0 <create_name+0x528>
				cf |= NS_LOSS | NS_LFN; i = ni; continue;
    2eb8:	e0bffb83 	ldbu	r2,-18(fp)
    2ebc:	108000d4 	ori	r2,r2,3
    2ec0:	e0bffb85 	stb	r2,-18(fp)
    2ec4:	e0bff817 	ldw	r2,-32(fp)
    2ec8:	e0bff915 	stw	r2,-28(fp)
    2ecc:	003fac06 	br	2d80 <create_name+0x3d8>
			}
			dj->fn[i++] = (BYTE)(w >> 8);
    2ed0:	e0bffc17 	ldw	r2,-16(fp)
    2ed4:	10c00617 	ldw	r3,24(r2)
    2ed8:	e0bff917 	ldw	r2,-28(fp)
    2edc:	1887883a 	add	r3,r3,r2
    2ee0:	e0bffb0b 	ldhu	r2,-20(fp)
    2ee4:	1004d23a 	srli	r2,r2,8
    2ee8:	18800005 	stb	r2,0(r3)
    2eec:	e0bff917 	ldw	r2,-28(fp)
    2ef0:	10800044 	addi	r2,r2,1
    2ef4:	e0bff915 	stw	r2,-28(fp)
    2ef8:	00002506 	br	2f90 <create_name+0x5e8>
		} else {						/* Single byte char */
			if (!w || chk_chr("+,;=[]", w)) {	/* Replace illegal chars for SFN */
    2efc:	e0bffb0b 	ldhu	r2,-20(fp)
    2f00:	1005003a 	cmpeq	r2,r2,zero
    2f04:	1000061e 	bne	r2,zero,2f20 <create_name+0x578>
    2f08:	e17ffb0b 	ldhu	r5,-20(fp)
    2f0c:	01000074 	movhi	r4,1
    2f10:	211d2e04 	addi	r4,r4,29880
    2f14:	00005840 	call	584 <chk_chr>
    2f18:	1005003a 	cmpeq	r2,r2,zero
    2f1c:	1000061e 	bne	r2,zero,2f38 <create_name+0x590>
				w = '_'; cf |= NS_LOSS | NS_LFN;/* Lossy conversion */
    2f20:	008017c4 	movi	r2,95
    2f24:	e0bffb0d 	sth	r2,-20(fp)
    2f28:	e0bffb83 	ldbu	r2,-18(fp)
    2f2c:	108000d4 	ori	r2,r2,3
    2f30:	e0bffb85 	stb	r2,-18(fp)
			if (i >= ni - 1) {
				cf |= NS_LOSS | NS_LFN; i = ni; continue;
			}
			dj->fn[i++] = (BYTE)(w >> 8);
		} else {						/* Single byte char */
			if (!w || chk_chr("+,;=[]", w)) {	/* Replace illegal chars for SFN */
    2f34:	00001606 	br	2f90 <create_name+0x5e8>
				w = '_'; cf |= NS_LOSS | NS_LFN;/* Lossy conversion */
			} else {
				if (IsUpper(w)) {		/* ASCII large capital */
    2f38:	e0bffb0b 	ldhu	r2,-20(fp)
    2f3c:	10801070 	cmpltui	r2,r2,65
    2f40:	1000071e 	bne	r2,zero,2f60 <create_name+0x5b8>
    2f44:	e0bffb0b 	ldhu	r2,-20(fp)
    2f48:	108016e8 	cmpgeui	r2,r2,91
    2f4c:	1000041e 	bne	r2,zero,2f60 <create_name+0x5b8>
					b |= 2;
    2f50:	e0bffbc3 	ldbu	r2,-17(fp)
    2f54:	10800094 	ori	r2,r2,2
    2f58:	e0bffbc5 	stb	r2,-17(fp)
			dj->fn[i++] = (BYTE)(w >> 8);
		} else {						/* Single byte char */
			if (!w || chk_chr("+,;=[]", w)) {	/* Replace illegal chars for SFN */
				w = '_'; cf |= NS_LOSS | NS_LFN;/* Lossy conversion */
			} else {
				if (IsUpper(w)) {		/* ASCII large capital */
    2f5c:	00000c06 	br	2f90 <create_name+0x5e8>
					b |= 2;
				} else {
					if (IsLower(w)) {	/* ASCII small capital */
    2f60:	e0bffb0b 	ldhu	r2,-20(fp)
    2f64:	10801870 	cmpltui	r2,r2,97
    2f68:	1000091e 	bne	r2,zero,2f90 <create_name+0x5e8>
    2f6c:	e0bffb0b 	ldhu	r2,-20(fp)
    2f70:	10801ee8 	cmpgeui	r2,r2,123
    2f74:	1000061e 	bne	r2,zero,2f90 <create_name+0x5e8>
						b |= 1; w -= 0x20;
    2f78:	e0bffbc3 	ldbu	r2,-17(fp)
    2f7c:	10800054 	ori	r2,r2,1
    2f80:	e0bffbc5 	stb	r2,-17(fp)
    2f84:	e0bffb0b 	ldhu	r2,-20(fp)
    2f88:	10bff804 	addi	r2,r2,-32
    2f8c:	e0bffb0d 	sth	r2,-20(fp)
					}
				}
			}
		}
		dj->fn[i++] = (BYTE)w;
    2f90:	e0bffc17 	ldw	r2,-16(fp)
    2f94:	10c00617 	ldw	r3,24(r2)
    2f98:	e0bff917 	ldw	r2,-28(fp)
    2f9c:	1887883a 	add	r3,r3,r2
    2fa0:	e0bffb0b 	ldhu	r2,-20(fp)
    2fa4:	18800005 	stb	r2,0(r3)
    2fa8:	e0bff917 	ldw	r2,-28(fp)
    2fac:	10800044 	addi	r2,r2,1
    2fb0:	e0bff915 	stw	r2,-28(fp)
	}
    2fb4:	003f7206 	br	2d80 <create_name+0x3d8>

	if (dj->fn[0] == DDE) dj->fn[0] = NDDE;	/* If the first char collides with deleted mark, replace it with 0x05 */
    2fb8:	e0bffc17 	ldw	r2,-16(fp)
    2fbc:	10800617 	ldw	r2,24(r2)
    2fc0:	10800003 	ldbu	r2,0(r2)
    2fc4:	10803fcc 	andi	r2,r2,255
    2fc8:	10803958 	cmpnei	r2,r2,229
    2fcc:	1000041e 	bne	r2,zero,2fe0 <create_name+0x638>
    2fd0:	e0bffc17 	ldw	r2,-16(fp)
    2fd4:	10c00617 	ldw	r3,24(r2)
    2fd8:	00800144 	movi	r2,5
    2fdc:	18800005 	stb	r2,0(r3)

	if (ni == 8) b <<= 2;
    2fe0:	e0bff817 	ldw	r2,-32(fp)
    2fe4:	10800218 	cmpnei	r2,r2,8
    2fe8:	1000041e 	bne	r2,zero,2ffc <create_name+0x654>
    2fec:	e0bffbc3 	ldbu	r2,-17(fp)
    2ff0:	1085883a 	add	r2,r2,r2
    2ff4:	1085883a 	add	r2,r2,r2
    2ff8:	e0bffbc5 	stb	r2,-17(fp)
	if ((b & 0x0C) == 0x0C || (b & 0x03) == 0x03)	/* Create LFN entry when there are composite capitals */
    2ffc:	e0bffbc3 	ldbu	r2,-17(fp)
    3000:	1080030c 	andi	r2,r2,12
    3004:	10800320 	cmpeqi	r2,r2,12
    3008:	1000041e 	bne	r2,zero,301c <create_name+0x674>
    300c:	e0bffbc3 	ldbu	r2,-17(fp)
    3010:	108000cc 	andi	r2,r2,3
    3014:	108000d8 	cmpnei	r2,r2,3
    3018:	1000031e 	bne	r2,zero,3028 <create_name+0x680>
		cf |= NS_LFN;
    301c:	e0bffb83 	ldbu	r2,-18(fp)
    3020:	10800094 	ori	r2,r2,2
    3024:	e0bffb85 	stb	r2,-18(fp)
	if (!(cf & NS_LFN)) {						/* When LFN is in 8.3 format without extended char, NT flags are created */
    3028:	e0bffb83 	ldbu	r2,-18(fp)
    302c:	1080008c 	andi	r2,r2,2
    3030:	1004c03a 	cmpne	r2,r2,zero
    3034:	10000e1e 	bne	r2,zero,3070 <create_name+0x6c8>
		if ((b & 0x03) == 0x01) cf |= NS_EXT;	/* NT flag (Extension has only small capital) */
    3038:	e0bffbc3 	ldbu	r2,-17(fp)
    303c:	108000cc 	andi	r2,r2,3
    3040:	10800058 	cmpnei	r2,r2,1
    3044:	1000031e 	bne	r2,zero,3054 <create_name+0x6ac>
    3048:	e0bffb83 	ldbu	r2,-18(fp)
    304c:	10800414 	ori	r2,r2,16
    3050:	e0bffb85 	stb	r2,-18(fp)
		if ((b & 0x0C) == 0x04) cf |= NS_BODY;	/* NT flag (Filename has only small capital) */
    3054:	e0bffbc3 	ldbu	r2,-17(fp)
    3058:	1080030c 	andi	r2,r2,12
    305c:	10800118 	cmpnei	r2,r2,4
    3060:	1000031e 	bne	r2,zero,3070 <create_name+0x6c8>
    3064:	e0bffb83 	ldbu	r2,-18(fp)
    3068:	10800214 	ori	r2,r2,8
    306c:	e0bffb85 	stb	r2,-18(fp)
	}

	dj->fn[NS] = cf;	/* SFN is created */
    3070:	e0bffc17 	ldw	r2,-16(fp)
    3074:	10800617 	ldw	r2,24(r2)
    3078:	10c002c4 	addi	r3,r2,11
    307c:	e0bffb83 	ldbu	r2,-18(fp)
    3080:	18800005 	stb	r2,0(r3)

	return FR_OK;
    3084:	e03fff15 	stw	zero,-4(fp)
    3088:	e0bfff17 	ldw	r2,-4(fp)

	sfn[NS] = c;		/* Store NT flag, File name is created */

	return FR_OK;
#endif
}
    308c:	e037883a 	mov	sp,fp
    3090:	dfc00117 	ldw	ra,4(sp)
    3094:	df000017 	ldw	fp,0(sp)
    3098:	dec00204 	addi	sp,sp,8
    309c:	f800283a 	ret

000030a0 <get_fileinfo>:
static
void get_fileinfo (		/* No return code */
	DIR *dj,			/* Pointer to the directory object */
	FILINFO *fno	 	/* Pointer to the file information to be filled */
)
{
    30a0:	defff404 	addi	sp,sp,-48
    30a4:	dfc00b15 	stw	ra,44(sp)
    30a8:	df000a15 	stw	fp,40(sp)
    30ac:	df000a04 	addi	fp,sp,40
    30b0:	e13ffe15 	stw	r4,-8(fp)
    30b4:	e17fff15 	stw	r5,-4(fp)
	UINT i;
	BYTE nt, *dir;
	TCHAR *p, c;


	p = fno->fname;
    30b8:	e0bfff17 	ldw	r2,-4(fp)
    30bc:	10800244 	addi	r2,r2,9
    30c0:	e0bffa15 	stw	r2,-24(fp)
	if (dj->sect) {
    30c4:	e0bffe17 	ldw	r2,-8(fp)
    30c8:	10800417 	ldw	r2,16(r2)
    30cc:	1005003a 	cmpeq	r2,r2,zero
    30d0:	1000981e 	bne	r2,zero,3334 <get_fileinfo+0x294>
		dir = dj->dir;
    30d4:	e0bffe17 	ldw	r2,-8(fp)
    30d8:	10800517 	ldw	r2,20(r2)
    30dc:	e0bffb15 	stw	r2,-20(fp)
		nt = dir[DIR_NTres];		/* NT flag */
    30e0:	e0bffb17 	ldw	r2,-20(fp)
    30e4:	10800304 	addi	r2,r2,12
    30e8:	10800003 	ldbu	r2,0(r2)
    30ec:	e0bffc05 	stb	r2,-16(fp)
		for (i = 0; i < 8; i++) {	/* Copy name body */
    30f0:	e03ffd15 	stw	zero,-12(fp)
    30f4:	00002306 	br	3184 <get_fileinfo+0xe4>
			c = dir[i];
    30f8:	e0fffd17 	ldw	r3,-12(fp)
    30fc:	e0bffb17 	ldw	r2,-20(fp)
    3100:	1885883a 	add	r2,r3,r2
    3104:	10800003 	ldbu	r2,0(r2)
    3108:	e0bff905 	stb	r2,-28(fp)
			if (c == ' ') break;
    310c:	e0bff907 	ldb	r2,-28(fp)
    3110:	10800820 	cmpeqi	r2,r2,32
    3114:	10001e1e 	bne	r2,zero,3190 <get_fileinfo+0xf0>
			if (c == NDDE) c = (TCHAR)DDE;
    3118:	e0bff907 	ldb	r2,-28(fp)
    311c:	10800158 	cmpnei	r2,r2,5
    3120:	1000021e 	bne	r2,zero,312c <get_fileinfo+0x8c>
    3124:	00bff944 	movi	r2,-27
    3128:	e0bff905 	stb	r2,-28(fp)
			if (_USE_LFN && (nt & NS_BODY) && IsUpper(c)) c += 0x20;
    312c:	e0bffc03 	ldbu	r2,-16(fp)
    3130:	1080020c 	andi	r2,r2,8
    3134:	1005003a 	cmpeq	r2,r2,zero
    3138:	1000091e 	bne	r2,zero,3160 <get_fileinfo+0xc0>
    313c:	e0bff907 	ldb	r2,-28(fp)
    3140:	10801050 	cmplti	r2,r2,65
    3144:	1000061e 	bne	r2,zero,3160 <get_fileinfo+0xc0>
    3148:	e0bff907 	ldb	r2,-28(fp)
    314c:	108016c8 	cmpgei	r2,r2,91
    3150:	1000031e 	bne	r2,zero,3160 <get_fileinfo+0xc0>
    3154:	e0bff903 	ldbu	r2,-28(fp)
    3158:	10800804 	addi	r2,r2,32
    315c:	e0bff905 	stb	r2,-28(fp)
			if (IsDBCS1(c) && i < 7 && IsDBCS2(dir[i+1]))
				c = (c << 8) | dir[++i];
			c = ff_convert(c, 1);
			if (!c) c = '?';
#endif
			*p++ = c;
    3160:	e0fffa17 	ldw	r3,-24(fp)
    3164:	e0bff903 	ldbu	r2,-28(fp)
    3168:	18800005 	stb	r2,0(r3)
    316c:	e0bffa17 	ldw	r2,-24(fp)
    3170:	10800044 	addi	r2,r2,1
    3174:	e0bffa15 	stw	r2,-24(fp)

	p = fno->fname;
	if (dj->sect) {
		dir = dj->dir;
		nt = dir[DIR_NTres];		/* NT flag */
		for (i = 0; i < 8; i++) {	/* Copy name body */
    3178:	e0bffd17 	ldw	r2,-12(fp)
    317c:	10800044 	addi	r2,r2,1
    3180:	e0bffd15 	stw	r2,-12(fp)
    3184:	e0bffd17 	ldw	r2,-12(fp)
    3188:	10800230 	cmpltui	r2,r2,8
    318c:	103fda1e 	bne	r2,zero,30f8 <get_fileinfo+0x58>
			c = ff_convert(c, 1);
			if (!c) c = '?';
#endif
			*p++ = c;
		}
		if (dir[8] != ' ') {		/* Copy name extension */
    3190:	e0bffb17 	ldw	r2,-20(fp)
    3194:	10800204 	addi	r2,r2,8
    3198:	10800003 	ldbu	r2,0(r2)
    319c:	10803fcc 	andi	r2,r2,255
    31a0:	10800820 	cmpeqi	r2,r2,32
    31a4:	10002a1e 	bne	r2,zero,3250 <get_fileinfo+0x1b0>
			*p++ = '.';
    31a8:	e0fffa17 	ldw	r3,-24(fp)
    31ac:	00800b84 	movi	r2,46
    31b0:	18800005 	stb	r2,0(r3)
    31b4:	e0bffa17 	ldw	r2,-24(fp)
    31b8:	10800044 	addi	r2,r2,1
    31bc:	e0bffa15 	stw	r2,-24(fp)
			for (i = 8; i < 11; i++) {
    31c0:	00800204 	movi	r2,8
    31c4:	e0bffd15 	stw	r2,-12(fp)
    31c8:	00001e06 	br	3244 <get_fileinfo+0x1a4>
				c = dir[i];
    31cc:	e0fffd17 	ldw	r3,-12(fp)
    31d0:	e0bffb17 	ldw	r2,-20(fp)
    31d4:	1885883a 	add	r2,r3,r2
    31d8:	10800003 	ldbu	r2,0(r2)
    31dc:	e0bff905 	stb	r2,-28(fp)
				if (c == ' ') break;
    31e0:	e0bff907 	ldb	r2,-28(fp)
    31e4:	10800820 	cmpeqi	r2,r2,32
    31e8:	1000191e 	bne	r2,zero,3250 <get_fileinfo+0x1b0>
				if (_USE_LFN && (nt & NS_EXT) && IsUpper(c)) c += 0x20;
    31ec:	e0bffc03 	ldbu	r2,-16(fp)
    31f0:	1080040c 	andi	r2,r2,16
    31f4:	1005003a 	cmpeq	r2,r2,zero
    31f8:	1000091e 	bne	r2,zero,3220 <get_fileinfo+0x180>
    31fc:	e0bff907 	ldb	r2,-28(fp)
    3200:	10801050 	cmplti	r2,r2,65
    3204:	1000061e 	bne	r2,zero,3220 <get_fileinfo+0x180>
    3208:	e0bff907 	ldb	r2,-28(fp)
    320c:	108016c8 	cmpgei	r2,r2,91
    3210:	1000031e 	bne	r2,zero,3220 <get_fileinfo+0x180>
    3214:	e0bff903 	ldbu	r2,-28(fp)
    3218:	10800804 	addi	r2,r2,32
    321c:	e0bff905 	stb	r2,-28(fp)
				if (IsDBCS1(c) && i < 10 && IsDBCS2(dir[i+1]))
					c = (c << 8) | dir[++i];
				c = ff_convert(c, 1);
				if (!c) c = '?';
#endif
				*p++ = c;
    3220:	e0fffa17 	ldw	r3,-24(fp)
    3224:	e0bff903 	ldbu	r2,-28(fp)
    3228:	18800005 	stb	r2,0(r3)
    322c:	e0bffa17 	ldw	r2,-24(fp)
    3230:	10800044 	addi	r2,r2,1
    3234:	e0bffa15 	stw	r2,-24(fp)
#endif
			*p++ = c;
		}
		if (dir[8] != ' ') {		/* Copy name extension */
			*p++ = '.';
			for (i = 8; i < 11; i++) {
    3238:	e0bffd17 	ldw	r2,-12(fp)
    323c:	10800044 	addi	r2,r2,1
    3240:	e0bffd15 	stw	r2,-12(fp)
    3244:	e0bffd17 	ldw	r2,-12(fp)
    3248:	108002f0 	cmpltui	r2,r2,11
    324c:	103fdf1e 	bne	r2,zero,31cc <get_fileinfo+0x12c>
				if (!c) c = '?';
#endif
				*p++ = c;
			}
		}
		fno->fattrib = dir[DIR_Attr];				/* Attribute */
    3250:	e0bffb17 	ldw	r2,-20(fp)
    3254:	108002c4 	addi	r2,r2,11
    3258:	10c00003 	ldbu	r3,0(r2)
    325c:	e0bfff17 	ldw	r2,-4(fp)
    3260:	10c00205 	stb	r3,8(r2)
		fno->fsize = LD_DWORD(dir+DIR_FileSize);	/* Size */
    3264:	e0bffb17 	ldw	r2,-20(fp)
    3268:	108007c4 	addi	r2,r2,31
    326c:	10800003 	ldbu	r2,0(r2)
    3270:	10803fcc 	andi	r2,r2,255
    3274:	1006963a 	slli	r3,r2,24
    3278:	e0bffb17 	ldw	r2,-20(fp)
    327c:	10800784 	addi	r2,r2,30
    3280:	10800003 	ldbu	r2,0(r2)
    3284:	10803fcc 	andi	r2,r2,255
    3288:	1004943a 	slli	r2,r2,16
    328c:	1886b03a 	or	r3,r3,r2
    3290:	e0bffb17 	ldw	r2,-20(fp)
    3294:	10800744 	addi	r2,r2,29
    3298:	10800003 	ldbu	r2,0(r2)
    329c:	10803fcc 	andi	r2,r2,255
    32a0:	1004923a 	slli	r2,r2,8
    32a4:	1886b03a 	or	r3,r3,r2
    32a8:	e0bffb17 	ldw	r2,-20(fp)
    32ac:	10800704 	addi	r2,r2,28
    32b0:	10800003 	ldbu	r2,0(r2)
    32b4:	10803fcc 	andi	r2,r2,255
    32b8:	1886b03a 	or	r3,r3,r2
    32bc:	e0bfff17 	ldw	r2,-4(fp)
    32c0:	10c00015 	stw	r3,0(r2)
		fno->fdate = LD_WORD(dir+DIR_WrtDate);		/* Date */
    32c4:	e0bffb17 	ldw	r2,-20(fp)
    32c8:	10800644 	addi	r2,r2,25
    32cc:	10800003 	ldbu	r2,0(r2)
    32d0:	10803fcc 	andi	r2,r2,255
    32d4:	1004923a 	slli	r2,r2,8
    32d8:	1007883a 	mov	r3,r2
    32dc:	e0bffb17 	ldw	r2,-20(fp)
    32e0:	10800604 	addi	r2,r2,24
    32e4:	10800003 	ldbu	r2,0(r2)
    32e8:	10803fcc 	andi	r2,r2,255
    32ec:	1884b03a 	or	r2,r3,r2
    32f0:	1007883a 	mov	r3,r2
    32f4:	e0bfff17 	ldw	r2,-4(fp)
    32f8:	10c0010d 	sth	r3,4(r2)
		fno->ftime = LD_WORD(dir+DIR_WrtTime);		/* Time */
    32fc:	e0bffb17 	ldw	r2,-20(fp)
    3300:	108005c4 	addi	r2,r2,23
    3304:	10800003 	ldbu	r2,0(r2)
    3308:	10803fcc 	andi	r2,r2,255
    330c:	1004923a 	slli	r2,r2,8
    3310:	1007883a 	mov	r3,r2
    3314:	e0bffb17 	ldw	r2,-20(fp)
    3318:	10800584 	addi	r2,r2,22
    331c:	10800003 	ldbu	r2,0(r2)
    3320:	10803fcc 	andi	r2,r2,255
    3324:	1884b03a 	or	r2,r3,r2
    3328:	1007883a 	mov	r3,r2
    332c:	e0bfff17 	ldw	r2,-4(fp)
    3330:	10c0018d 	sth	r3,6(r2)
	}
	*p = 0;		/* Terminate SFN str by a \0 */
    3334:	e0bffa17 	ldw	r2,-24(fp)
    3338:	10000005 	stb	zero,0(r2)

#if _USE_LFN
	if (fno->lfname && fno->lfsize) {
    333c:	e0bfff17 	ldw	r2,-4(fp)
    3340:	10800617 	ldw	r2,24(r2)
    3344:	1005003a 	cmpeq	r2,r2,zero
    3348:	1000491e 	bne	r2,zero,3470 <get_fileinfo+0x3d0>
    334c:	e0bfff17 	ldw	r2,-4(fp)
    3350:	10800717 	ldw	r2,28(r2)
    3354:	1005003a 	cmpeq	r2,r2,zero
    3358:	1000451e 	bne	r2,zero,3470 <get_fileinfo+0x3d0>
		TCHAR *tp = fno->lfname;
    335c:	e0bfff17 	ldw	r2,-4(fp)
    3360:	10800617 	ldw	r2,24(r2)
    3364:	e0bff815 	stw	r2,-32(fp)
		WCHAR w, *lfn;

		i = 0;
    3368:	e03ffd15 	stw	zero,-12(fp)
		if (dj->sect && dj->lfn_idx != 0xFFFF) {/* Get LFN if available */
    336c:	e0bffe17 	ldw	r2,-8(fp)
    3370:	10800417 	ldw	r2,16(r2)
    3374:	1005003a 	cmpeq	r2,r2,zero
    3378:	1000391e 	bne	r2,zero,3460 <get_fileinfo+0x3c0>
    337c:	e0bffe17 	ldw	r2,-8(fp)
    3380:	1080080b 	ldhu	r2,32(r2)
    3384:	10ffffcc 	andi	r3,r2,65535
    3388:	00bfffd4 	movui	r2,65535
    338c:	18803426 	beq	r3,r2,3460 <get_fileinfo+0x3c0>
			lfn = dj->lfn;
    3390:	e0bffe17 	ldw	r2,-8(fp)
    3394:	10800717 	ldw	r2,28(r2)
    3398:	e0bff615 	stw	r2,-40(fp)
			while ((w = *lfn++) != 0) {			/* Get an LFN char */
    339c:	00002406 	br	3430 <get_fileinfo+0x390>
#if !_LFN_UNICODE
				w = ff_convert(w, 0);			/* Unicode -> OEM conversion */
    33a0:	e13ff70b 	ldhu	r4,-36(fp)
    33a4:	000b883a 	mov	r5,zero
    33a8:	0007c200 	call	7c20 <ff_convert>
    33ac:	e0bff70d 	sth	r2,-36(fp)
				if (!w) { i = 0; break; }		/* Could not convert, no LFN */
    33b0:	e0bff70b 	ldhu	r2,-36(fp)
    33b4:	1004c03a 	cmpne	r2,r2,zero
    33b8:	1000021e 	bne	r2,zero,33c4 <get_fileinfo+0x324>
    33bc:	e03ffd15 	stw	zero,-12(fp)
    33c0:	00002706 	br	3460 <get_fileinfo+0x3c0>
				if (_DF1S && w >= 0x100)		/* Put 1st byte if it is a DBC (always false on SBCS cfg) */
    33c4:	e0bff70b 	ldhu	r2,-36(fp)
    33c8:	10804030 	cmpltui	r2,r2,256
    33cc:	1000091e 	bne	r2,zero,33f4 <get_fileinfo+0x354>
					tp[i++] = (TCHAR)(w >> 8);
    33d0:	e0fffd17 	ldw	r3,-12(fp)
    33d4:	e0bff817 	ldw	r2,-32(fp)
    33d8:	1887883a 	add	r3,r3,r2
    33dc:	e0bff70b 	ldhu	r2,-36(fp)
    33e0:	1004d23a 	srli	r2,r2,8
    33e4:	18800005 	stb	r2,0(r3)
    33e8:	e0bffd17 	ldw	r2,-12(fp)
    33ec:	10800044 	addi	r2,r2,1
    33f0:	e0bffd15 	stw	r2,-12(fp)
#endif
				if (i >= fno->lfsize - 1) { i = 0; break; }	/* Buffer overflow, no LFN */
    33f4:	e0bfff17 	ldw	r2,-4(fp)
    33f8:	10800717 	ldw	r2,28(r2)
    33fc:	10ffffc4 	addi	r3,r2,-1
    3400:	e0bffd17 	ldw	r2,-12(fp)
    3404:	10c00236 	bltu	r2,r3,3410 <get_fileinfo+0x370>
    3408:	e03ffd15 	stw	zero,-12(fp)
    340c:	00001406 	br	3460 <get_fileinfo+0x3c0>
				tp[i++] = (TCHAR)w;
    3410:	e0fffd17 	ldw	r3,-12(fp)
    3414:	e0bff817 	ldw	r2,-32(fp)
    3418:	1887883a 	add	r3,r3,r2
    341c:	e0bff70b 	ldhu	r2,-36(fp)
    3420:	18800005 	stb	r2,0(r3)
    3424:	e0bffd17 	ldw	r2,-12(fp)
    3428:	10800044 	addi	r2,r2,1
    342c:	e0bffd15 	stw	r2,-12(fp)
		WCHAR w, *lfn;

		i = 0;
		if (dj->sect && dj->lfn_idx != 0xFFFF) {/* Get LFN if available */
			lfn = dj->lfn;
			while ((w = *lfn++) != 0) {			/* Get an LFN char */
    3430:	e0bff617 	ldw	r2,-40(fp)
    3434:	1080000b 	ldhu	r2,0(r2)
    3438:	e0bff70d 	sth	r2,-36(fp)
    343c:	e0bff70b 	ldhu	r2,-36(fp)
    3440:	1004c03a 	cmpne	r2,r2,zero
    3444:	1007883a 	mov	r3,r2
    3448:	e0bff617 	ldw	r2,-40(fp)
    344c:	10800084 	addi	r2,r2,2
    3450:	e0bff615 	stw	r2,-40(fp)
    3454:	18803fcc 	andi	r2,r3,255
    3458:	1004c03a 	cmpne	r2,r2,zero
    345c:	103fd01e 	bne	r2,zero,33a0 <get_fileinfo+0x300>
#endif
				if (i >= fno->lfsize - 1) { i = 0; break; }	/* Buffer overflow, no LFN */
				tp[i++] = (TCHAR)w;
			}
		}
		tp[i] = 0;	/* Terminate the LFN str by a \0 */
    3460:	e0bffd17 	ldw	r2,-12(fp)
    3464:	e0fff817 	ldw	r3,-32(fp)
    3468:	10c5883a 	add	r2,r2,r3
    346c:	10000005 	stb	zero,0(r2)
	}
#endif
}
    3470:	e037883a 	mov	sp,fp
    3474:	dfc00117 	ldw	ra,4(sp)
    3478:	df000017 	ldw	fp,0(sp)
    347c:	dec00204 	addi	sp,sp,8
    3480:	f800283a 	ret

00003484 <follow_path>:
static
FRESULT follow_path (	/* FR_OK(0): successful, !=0: error code */
	DIR *dj,			/* Directory object to return last directory and found object */
	const TCHAR *path	/* Full-path string to find a file or directory */
)
{
    3484:	defff904 	addi	sp,sp,-28
    3488:	dfc00615 	stw	ra,24(sp)
    348c:	df000515 	stw	fp,20(sp)
    3490:	df000504 	addi	fp,sp,20
    3494:	e13ffe15 	stw	r4,-8(fp)
    3498:	e17fff15 	stw	r5,-4(fp)
		path++;	dj->sclust = 0;		/* Strip it and start from the root dir */
	} else {							/* No heading separator */
		dj->sclust = dj->fs->cdir;	/* Start from the current dir */
	}
#else
	if (*path == '/' || *path == '\\')	/* Strip heading separator if exist */
    349c:	e0bfff17 	ldw	r2,-4(fp)
    34a0:	10800003 	ldbu	r2,0(r2)
    34a4:	10803fcc 	andi	r2,r2,255
    34a8:	1080201c 	xori	r2,r2,128
    34ac:	10bfe004 	addi	r2,r2,-128
    34b0:	10800be0 	cmpeqi	r2,r2,47
    34b4:	1000071e 	bne	r2,zero,34d4 <follow_path+0x50>
    34b8:	e0bfff17 	ldw	r2,-4(fp)
    34bc:	10800003 	ldbu	r2,0(r2)
    34c0:	10803fcc 	andi	r2,r2,255
    34c4:	1080201c 	xori	r2,r2,128
    34c8:	10bfe004 	addi	r2,r2,-128
    34cc:	10801718 	cmpnei	r2,r2,92
    34d0:	1000031e 	bne	r2,zero,34e0 <follow_path+0x5c>
		path++;
    34d4:	e0bfff17 	ldw	r2,-4(fp)
    34d8:	10800044 	addi	r2,r2,1
    34dc:	e0bfff15 	stw	r2,-4(fp)
	dj->sclust = 0;						/* Start from the root dir */
    34e0:	e0bffe17 	ldw	r2,-8(fp)
    34e4:	10000215 	stw	zero,8(r2)
#endif

	if ((UINT)*path < ' ') {			/* Nul path means the start directory itself */
    34e8:	e0bfff17 	ldw	r2,-4(fp)
    34ec:	10800003 	ldbu	r2,0(r2)
    34f0:	10803fcc 	andi	r2,r2,255
    34f4:	10800828 	cmpgeui	r2,r2,32
    34f8:	1000071e 	bne	r2,zero,3518 <follow_path+0x94>
		res = dir_sdi(dj, 0);
    34fc:	e13ffe17 	ldw	r4,-8(fp)
    3500:	000b883a 	mov	r5,zero
    3504:	00013bc0 	call	13bc <dir_sdi>
    3508:	e0bffd15 	stw	r2,-12(fp)
		dj->dir = 0;
    350c:	e0bffe17 	ldw	r2,-8(fp)
    3510:	10000515 	stw	zero,20(r2)
    3514:	00004a06 	br	3640 <follow_path+0x1bc>

	} else {							/* Follow path */
		for (;;) {
			res = create_name(dj, &path);	/* Get a segment */
    3518:	e17fff04 	addi	r5,fp,-4
    351c:	e13ffe17 	ldw	r4,-8(fp)
    3520:	00029a80 	call	29a8 <create_name>
    3524:	e0bffd15 	stw	r2,-12(fp)
			if (res != FR_OK) break;
    3528:	e0bffd17 	ldw	r2,-12(fp)
    352c:	1004c03a 	cmpne	r2,r2,zero
    3530:	1000431e 	bne	r2,zero,3640 <follow_path+0x1bc>
			res = dir_find(dj);				/* Find it */
    3534:	e13ffe17 	ldw	r4,-8(fp)
    3538:	00020640 	call	2064 <dir_find>
    353c:	e0bffd15 	stw	r2,-12(fp)
			ns = *(dj->fn+NS);
    3540:	e0bffe17 	ldw	r2,-8(fp)
    3544:	10800617 	ldw	r2,24(r2)
    3548:	108002c4 	addi	r2,r2,11
    354c:	10800003 	ldbu	r2,0(r2)
    3550:	e0bffb05 	stb	r2,-20(fp)
			if (res != FR_OK) {				/* Failed to find the object */
    3554:	e0bffd17 	ldw	r2,-12(fp)
    3558:	1005003a 	cmpeq	r2,r2,zero
    355c:	10000a1e 	bne	r2,zero,3588 <follow_path+0x104>
				if (res != FR_NO_FILE) break;	/* Abort if any hard error occured */
    3560:	e0bffd17 	ldw	r2,-12(fp)
    3564:	10800118 	cmpnei	r2,r2,4
    3568:	1000351e 	bne	r2,zero,3640 <follow_path+0x1bc>
				if (_FS_RPATH && (ns & NS_DOT)) {	/* If dot entry is not exit */
					dj->sclust = 0; dj->dir = 0;	/* It is the root dir */
					res = FR_OK;
					if (!(ns & NS_LAST)) continue;
				} else {							/* Could not find the object */
					if (!(ns & NS_LAST)) res = FR_NO_PATH;
    356c:	e0bffb03 	ldbu	r2,-20(fp)
    3570:	1080010c 	andi	r2,r2,4
    3574:	1004c03a 	cmpne	r2,r2,zero
    3578:	1000311e 	bne	r2,zero,3640 <follow_path+0x1bc>
    357c:	00800144 	movi	r2,5
    3580:	e0bffd15 	stw	r2,-12(fp)
				}
				break;
    3584:	00002e06 	br	3640 <follow_path+0x1bc>
			}
			if (ns & NS_LAST) break;			/* Last segment match. Function completed. */
    3588:	e0bffb03 	ldbu	r2,-20(fp)
    358c:	1080010c 	andi	r2,r2,4
    3590:	1004c03a 	cmpne	r2,r2,zero
    3594:	10002a1e 	bne	r2,zero,3640 <follow_path+0x1bc>
			dir = dj->dir;						/* There is next segment. Follow the sub directory */
    3598:	e0bffe17 	ldw	r2,-8(fp)
    359c:	10800517 	ldw	r2,20(r2)
    35a0:	e0bffc15 	stw	r2,-16(fp)
			if (!(dir[DIR_Attr] & AM_DIR)) {	/* Cannot follow because it is a file */
    35a4:	e0bffc17 	ldw	r2,-16(fp)
    35a8:	108002c4 	addi	r2,r2,11
    35ac:	10800003 	ldbu	r2,0(r2)
    35b0:	10803fcc 	andi	r2,r2,255
    35b4:	1080040c 	andi	r2,r2,16
    35b8:	1004c03a 	cmpne	r2,r2,zero
    35bc:	1000031e 	bne	r2,zero,35cc <follow_path+0x148>
				res = FR_NO_PATH; break;
    35c0:	00800144 	movi	r2,5
    35c4:	e0bffd15 	stw	r2,-12(fp)
    35c8:	00001d06 	br	3640 <follow_path+0x1bc>
			}
			dj->sclust = LD_CLUST(dir);
    35cc:	e0bffc17 	ldw	r2,-16(fp)
    35d0:	10800544 	addi	r2,r2,21
    35d4:	10800003 	ldbu	r2,0(r2)
    35d8:	10803fcc 	andi	r2,r2,255
    35dc:	1004923a 	slli	r2,r2,8
    35e0:	1007883a 	mov	r3,r2
    35e4:	e0bffc17 	ldw	r2,-16(fp)
    35e8:	10800504 	addi	r2,r2,20
    35ec:	10800003 	ldbu	r2,0(r2)
    35f0:	10803fcc 	andi	r2,r2,255
    35f4:	1884b03a 	or	r2,r3,r2
    35f8:	10bfffcc 	andi	r2,r2,65535
    35fc:	1008943a 	slli	r4,r2,16
    3600:	e0bffc17 	ldw	r2,-16(fp)
    3604:	108006c4 	addi	r2,r2,27
    3608:	10800003 	ldbu	r2,0(r2)
    360c:	10803fcc 	andi	r2,r2,255
    3610:	1004923a 	slli	r2,r2,8
    3614:	1007883a 	mov	r3,r2
    3618:	e0bffc17 	ldw	r2,-16(fp)
    361c:	10800684 	addi	r2,r2,26
    3620:	10800003 	ldbu	r2,0(r2)
    3624:	10803fcc 	andi	r2,r2,255
    3628:	1884b03a 	or	r2,r3,r2
    362c:	10bfffcc 	andi	r2,r2,65535
    3630:	2086b03a 	or	r3,r4,r2
    3634:	e0bffe17 	ldw	r2,-8(fp)
    3638:	10c00215 	stw	r3,8(r2)
		}
    363c:	003fb606 	br	3518 <follow_path+0x94>
	}

	return res;
    3640:	e0bffd17 	ldw	r2,-12(fp)
}
    3644:	e037883a 	mov	sp,fp
    3648:	dfc00117 	ldw	ra,4(sp)
    364c:	df000017 	ldw	fp,0(sp)
    3650:	dec00204 	addi	sp,sp,8
    3654:	f800283a 	ret

00003658 <check_fs>:
static
BYTE check_fs (	/* 0:FAT-VBR, 1:Valid BR but not FAT, 2:Not a BR, 3:Disk error */
	FATFS *fs,	/* File system object */
	DWORD sect	/* Sector# (lba) to check if it is an FAT boot record or not */
)
{
    3658:	defffb04 	addi	sp,sp,-20
    365c:	dfc00415 	stw	ra,16(sp)
    3660:	df000315 	stw	fp,12(sp)
    3664:	df000304 	addi	fp,sp,12
    3668:	e13ffd15 	stw	r4,-12(fp)
    366c:	e17ffe15 	stw	r5,-8(fp)
	if (disk_read(fs->drv, fs->win, sect, 1) != RES_OK)	/* Load boot record */
    3670:	e0bffd17 	ldw	r2,-12(fp)
    3674:	10800043 	ldbu	r2,1(r2)
    3678:	11003fcc 	andi	r4,r2,255
    367c:	e0bffd17 	ldw	r2,-12(fp)
    3680:	11400c04 	addi	r5,r2,48
    3684:	e1bffe17 	ldw	r6,-8(fp)
    3688:	01c00044 	movi	r7,1
    368c:	00077580 	call	7758 <disk_read>
    3690:	1005003a 	cmpeq	r2,r2,zero
    3694:	1000031e 	bne	r2,zero,36a4 <check_fs+0x4c>
		return 3;
    3698:	008000c4 	movi	r2,3
    369c:	e0bfff15 	stw	r2,-4(fp)
    36a0:	00005b06 	br	3810 <check_fs+0x1b8>
	if (LD_WORD(&fs->win[BS_55AA]) != 0xAA55)		/* Check record signature (always placed at offset 510 even if the sector size is >512) */
    36a4:	e0bffd17 	ldw	r2,-12(fp)
    36a8:	10800c04 	addi	r2,r2,48
    36ac:	10807fc4 	addi	r2,r2,511
    36b0:	10800003 	ldbu	r2,0(r2)
    36b4:	10803fcc 	andi	r2,r2,255
    36b8:	1004923a 	slli	r2,r2,8
    36bc:	1007883a 	mov	r3,r2
    36c0:	e0bffd17 	ldw	r2,-12(fp)
    36c4:	10800c04 	addi	r2,r2,48
    36c8:	10807f84 	addi	r2,r2,510
    36cc:	10800003 	ldbu	r2,0(r2)
    36d0:	10803fcc 	andi	r2,r2,255
    36d4:	1884b03a 	or	r2,r3,r2
    36d8:	10bfffcc 	andi	r2,r2,65535
    36dc:	10a0001c 	xori	r2,r2,32768
    36e0:	10a00004 	addi	r2,r2,-32768
    36e4:	10aa9560 	cmpeqi	r2,r2,-21931
    36e8:	1000031e 	bne	r2,zero,36f8 <check_fs+0xa0>
		return 2;
    36ec:	00800084 	movi	r2,2
    36f0:	e0bfff15 	stw	r2,-4(fp)
    36f4:	00004606 	br	3810 <check_fs+0x1b8>

	if ((LD_DWORD(&fs->win[BS_FilSysType]) & 0xFFFFFF) == 0x544146)	/* Check "FAT" string */
    36f8:	e0bffd17 	ldw	r2,-12(fp)
    36fc:	10800c04 	addi	r2,r2,48
    3700:	10800e44 	addi	r2,r2,57
    3704:	10800003 	ldbu	r2,0(r2)
    3708:	10803fcc 	andi	r2,r2,255
    370c:	1006963a 	slli	r3,r2,24
    3710:	e0bffd17 	ldw	r2,-12(fp)
    3714:	10800c04 	addi	r2,r2,48
    3718:	10800e04 	addi	r2,r2,56
    371c:	10800003 	ldbu	r2,0(r2)
    3720:	10803fcc 	andi	r2,r2,255
    3724:	1004943a 	slli	r2,r2,16
    3728:	1886b03a 	or	r3,r3,r2
    372c:	e0bffd17 	ldw	r2,-12(fp)
    3730:	10800c04 	addi	r2,r2,48
    3734:	10800dc4 	addi	r2,r2,55
    3738:	10800003 	ldbu	r2,0(r2)
    373c:	10803fcc 	andi	r2,r2,255
    3740:	1004923a 	slli	r2,r2,8
    3744:	1886b03a 	or	r3,r3,r2
    3748:	e0bffd17 	ldw	r2,-12(fp)
    374c:	10800c04 	addi	r2,r2,48
    3750:	10800d84 	addi	r2,r2,54
    3754:	10800003 	ldbu	r2,0(r2)
    3758:	10803fcc 	andi	r2,r2,255
    375c:	1886b03a 	or	r3,r3,r2
    3760:	00804034 	movhi	r2,256
    3764:	10bfffc4 	addi	r2,r2,-1
    3768:	1886703a 	and	r3,r3,r2
    376c:	00801534 	movhi	r2,84
    3770:	10905184 	addi	r2,r2,16710
    3774:	1880021e 	bne	r3,r2,3780 <check_fs+0x128>
		return 0;
    3778:	e03fff15 	stw	zero,-4(fp)
    377c:	00002406 	br	3810 <check_fs+0x1b8>
	if ((LD_DWORD(&fs->win[BS_FilSysType32]) & 0xFFFFFF) == 0x544146)
    3780:	e0bffd17 	ldw	r2,-12(fp)
    3784:	10800c04 	addi	r2,r2,48
    3788:	10801544 	addi	r2,r2,85
    378c:	10800003 	ldbu	r2,0(r2)
    3790:	10803fcc 	andi	r2,r2,255
    3794:	1006963a 	slli	r3,r2,24
    3798:	e0bffd17 	ldw	r2,-12(fp)
    379c:	10800c04 	addi	r2,r2,48
    37a0:	10801504 	addi	r2,r2,84
    37a4:	10800003 	ldbu	r2,0(r2)
    37a8:	10803fcc 	andi	r2,r2,255
    37ac:	1004943a 	slli	r2,r2,16
    37b0:	1886b03a 	or	r3,r3,r2
    37b4:	e0bffd17 	ldw	r2,-12(fp)
    37b8:	10800c04 	addi	r2,r2,48
    37bc:	108014c4 	addi	r2,r2,83
    37c0:	10800003 	ldbu	r2,0(r2)
    37c4:	10803fcc 	andi	r2,r2,255
    37c8:	1004923a 	slli	r2,r2,8
    37cc:	1886b03a 	or	r3,r3,r2
    37d0:	e0bffd17 	ldw	r2,-12(fp)
    37d4:	10800c04 	addi	r2,r2,48
    37d8:	10801484 	addi	r2,r2,82
    37dc:	10800003 	ldbu	r2,0(r2)
    37e0:	10803fcc 	andi	r2,r2,255
    37e4:	1886b03a 	or	r3,r3,r2
    37e8:	00804034 	movhi	r2,256
    37ec:	10bfffc4 	addi	r2,r2,-1
    37f0:	1886703a 	and	r3,r3,r2
    37f4:	00801534 	movhi	r2,84
    37f8:	10905184 	addi	r2,r2,16710
    37fc:	1880021e 	bne	r3,r2,3808 <check_fs+0x1b0>
		return 0;
    3800:	e03fff15 	stw	zero,-4(fp)
    3804:	00000206 	br	3810 <check_fs+0x1b8>

	return 1;
    3808:	00800044 	movi	r2,1
    380c:	e0bfff15 	stw	r2,-4(fp)
    3810:	e0bfff17 	ldw	r2,-4(fp)
}
    3814:	e037883a 	mov	sp,fp
    3818:	dfc00117 	ldw	ra,4(sp)
    381c:	df000017 	ldw	fp,0(sp)
    3820:	dec00204 	addi	sp,sp,8
    3824:	f800283a 	ret

00003828 <chk_mounted>:
FRESULT chk_mounted (	/* FR_OK(0): successful, !=0: any error occurred */
	const TCHAR **path,	/* Pointer to pointer to the path name (drive number) */
	FATFS **rfs,		/* Pointer to pointer to the found file system object */
	BYTE chk_wp			/* !=0: Check media write protection for write access */
)
{
    3828:	deffec04 	addi	sp,sp,-80
    382c:	dfc01315 	stw	ra,76(sp)
    3830:	df001215 	stw	fp,72(sp)
    3834:	df001204 	addi	fp,sp,72
    3838:	e13ffb15 	stw	r4,-20(fp)
    383c:	e17ffc15 	stw	r5,-16(fp)
    3840:	e1bffd05 	stb	r6,-12(fp)
	BYTE fmt, b, pi, *tbl;
	UINT vol;
	DSTATUS stat;
	DWORD bsect, fasize, tsect, sysect, nclst, szbfat;
	WORD nrsv;
	const TCHAR *p = *path;
    3844:	e0bffb17 	ldw	r2,-20(fp)
    3848:	10800017 	ldw	r2,0(r2)
    384c:	e0bfef15 	stw	r2,-68(fp)
	FATFS *fs;

	/* Get logical drive number from the path name */
	vol = p[0] - '0';					/* Is there a drive number? */
    3850:	e0bfef17 	ldw	r2,-68(fp)
    3854:	10800003 	ldbu	r2,0(r2)
    3858:	10803fcc 	andi	r2,r2,255
    385c:	1080201c 	xori	r2,r2,128
    3860:	10bfe004 	addi	r2,r2,-128
    3864:	10bff404 	addi	r2,r2,-48
    3868:	e0bff815 	stw	r2,-32(fp)
	if (vol <= 9 && p[1] == ':') {		/* Found a drive number, get and strip it */
    386c:	e0bff817 	ldw	r2,-32(fp)
    3870:	108002a8 	cmpgeui	r2,r2,10
    3874:	10000f1e 	bne	r2,zero,38b4 <chk_mounted+0x8c>
    3878:	e0bfef17 	ldw	r2,-68(fp)
    387c:	10800044 	addi	r2,r2,1
    3880:	10800003 	ldbu	r2,0(r2)
    3884:	10803fcc 	andi	r2,r2,255
    3888:	1080201c 	xori	r2,r2,128
    388c:	10bfe004 	addi	r2,r2,-128
    3890:	10800e98 	cmpnei	r2,r2,58
    3894:	1000071e 	bne	r2,zero,38b4 <chk_mounted+0x8c>
		p += 2; *path = p;				/* Return pointer to the path name */
    3898:	e0bfef17 	ldw	r2,-68(fp)
    389c:	10800084 	addi	r2,r2,2
    38a0:	e0bfef15 	stw	r2,-68(fp)
    38a4:	e0fffb17 	ldw	r3,-20(fp)
    38a8:	e0bfef17 	ldw	r2,-68(fp)
    38ac:	18800015 	stw	r2,0(r3)
	const TCHAR *p = *path;
	FATFS *fs;

	/* Get logical drive number from the path name */
	vol = p[0] - '0';					/* Is there a drive number? */
	if (vol <= 9 && p[1] == ':') {		/* Found a drive number, get and strip it */
    38b0:	00000106 	br	38b8 <chk_mounted+0x90>
		p += 2; *path = p;				/* Return pointer to the path name */
	} else {							/* No drive number is given */
#if _FS_RPATH
		vol = CurrVol;					/* Use current drive */
#else
		vol = 0;						/* Use drive 0 */
    38b4:	e03ff815 	stw	zero,-32(fp)
#endif
	}

	/* Check if the file system object is valid or not */
	if (vol >= _VOLUMES) 				/* Is the drive number valid? */
    38b8:	e0bff817 	ldw	r2,-32(fp)
    38bc:	1005003a 	cmpeq	r2,r2,zero
    38c0:	1000031e 	bne	r2,zero,38d0 <chk_mounted+0xa8>
		return FR_INVALID_DRIVE;
    38c4:	008002c4 	movi	r2,11
    38c8:	e0bfff15 	stw	r2,-4(fp)
    38cc:	00029606 	br	4328 <chk_mounted+0xb00>
	*rfs = fs = FatFs[vol];				/* Return pointer to the corresponding file system object */
    38d0:	e0bff817 	ldw	r2,-32(fp)
    38d4:	1085883a 	add	r2,r2,r2
    38d8:	1087883a 	add	r3,r2,r2
    38dc:	d0a01304 	addi	r2,gp,-32692
    38e0:	1885883a 	add	r2,r3,r2
    38e4:	10800017 	ldw	r2,0(r2)
    38e8:	e0bfee15 	stw	r2,-72(fp)
    38ec:	e0fffc17 	ldw	r3,-16(fp)
    38f0:	e0bfee17 	ldw	r2,-72(fp)
    38f4:	18800015 	stw	r2,0(r3)
	if (!fs) return FR_NOT_ENABLED;		/* Is the file system object available? */
    38f8:	e0bfee17 	ldw	r2,-72(fp)
    38fc:	1004c03a 	cmpne	r2,r2,zero
    3900:	1000031e 	bne	r2,zero,3910 <chk_mounted+0xe8>
    3904:	00800304 	movi	r2,12
    3908:	e0bfff15 	stw	r2,-4(fp)
    390c:	00028606 	br	4328 <chk_mounted+0xb00>

	ENTER_FF(fs);						/* Lock file system */

	if (fs->fs_type) {					/* If the logical drive has been mounted */
    3910:	e0bfee17 	ldw	r2,-72(fp)
    3914:	10800003 	ldbu	r2,0(r2)
    3918:	10803fcc 	andi	r2,r2,255
    391c:	1005003a 	cmpeq	r2,r2,zero
    3920:	1000151e 	bne	r2,zero,3978 <chk_mounted+0x150>
		stat = disk_status(fs->drv);
    3924:	e0bfee17 	ldw	r2,-72(fp)
    3928:	10800043 	ldbu	r2,1(r2)
    392c:	11003fcc 	andi	r4,r2,255
    3930:	00073c80 	call	73c8 <disk_status>
    3934:	e0bff705 	stb	r2,-36(fp)
		if (!(stat & STA_NOINIT)) {		/* and the physical drive is kept initialized (has not been changed), */
    3938:	e0bff703 	ldbu	r2,-36(fp)
    393c:	1080004c 	andi	r2,r2,1
    3940:	1004c03a 	cmpne	r2,r2,zero
    3944:	10000c1e 	bne	r2,zero,3978 <chk_mounted+0x150>
			if (!_FS_READONLY && chk_wp && (stat & STA_PROTECT))	/* Check write protection if needed */
    3948:	e0bffd03 	ldbu	r2,-12(fp)
    394c:	1005003a 	cmpeq	r2,r2,zero
    3950:	1000071e 	bne	r2,zero,3970 <chk_mounted+0x148>
    3954:	e0bff703 	ldbu	r2,-36(fp)
    3958:	1080010c 	andi	r2,r2,4
    395c:	1005003a 	cmpeq	r2,r2,zero
    3960:	1000031e 	bne	r2,zero,3970 <chk_mounted+0x148>
				return FR_WRITE_PROTECTED;
    3964:	00800284 	movi	r2,10
    3968:	e0bfff15 	stw	r2,-4(fp)
    396c:	00026e06 	br	4328 <chk_mounted+0xb00>
			return FR_OK;				/* The file system object is valid */
    3970:	e03fff15 	stw	zero,-4(fp)
    3974:	00026c06 	br	4328 <chk_mounted+0xb00>
	}

	/* The file system object is not valid. */
	/* Following code attempts to mount the volume. (analyze BPB and initialize the fs object) */

	fs->fs_type = 0;					/* Clear the file system object */
    3978:	e0bfee17 	ldw	r2,-72(fp)
    397c:	10000005 	stb	zero,0(r2)
	fs->drv = LD2PD(vol);				/* Bind the logical drive and a physical drive */
    3980:	e0bff817 	ldw	r2,-32(fp)
    3984:	1007883a 	mov	r3,r2
    3988:	e0bfee17 	ldw	r2,-72(fp)
    398c:	10c00045 	stb	r3,1(r2)
	stat = disk_initialize(fs->drv);	/* Initialize low level disk I/O layer */
    3990:	e0bfee17 	ldw	r2,-72(fp)
    3994:	10800043 	ldbu	r2,1(r2)
    3998:	11003fcc 	andi	r4,r2,255
    399c:	00074a80 	call	74a8 <disk_initialize>
    39a0:	e0bff705 	stb	r2,-36(fp)
	if (stat & STA_NOINIT)				/* Check if the initialization succeeded */
    39a4:	e0bff703 	ldbu	r2,-36(fp)
    39a8:	1080004c 	andi	r2,r2,1
    39ac:	10803fcc 	andi	r2,r2,255
    39b0:	1005003a 	cmpeq	r2,r2,zero
    39b4:	1000031e 	bne	r2,zero,39c4 <chk_mounted+0x19c>
		return FR_NOT_READY;			/* Failed to initialize due to no media or hard error */
    39b8:	008000c4 	movi	r2,3
    39bc:	e0bfff15 	stw	r2,-4(fp)
    39c0:	00025906 	br	4328 <chk_mounted+0xb00>
	if (!_FS_READONLY && chk_wp && (stat & STA_PROTECT))	/* Check disk write protection if needed */
    39c4:	e0bffd03 	ldbu	r2,-12(fp)
    39c8:	1005003a 	cmpeq	r2,r2,zero
    39cc:	1000071e 	bne	r2,zero,39ec <chk_mounted+0x1c4>
    39d0:	e0bff703 	ldbu	r2,-36(fp)
    39d4:	1080010c 	andi	r2,r2,4
    39d8:	1005003a 	cmpeq	r2,r2,zero
    39dc:	1000031e 	bne	r2,zero,39ec <chk_mounted+0x1c4>
		return FR_WRITE_PROTECTED;
    39e0:	00800284 	movi	r2,10
    39e4:	e0bfff15 	stw	r2,-4(fp)
    39e8:	00024f06 	br	4328 <chk_mounted+0xb00>
#if _MAX_SS != 512						/* Get disk sector size (variable sector size cfg only) */
	if (disk_ioctl(fs->drv, GET_SECTOR_SIZE, &fs->ssize) != RES_OK)
		return FR_DISK_ERR;
#endif
	/* Search FAT partition on the drive. Supports only generic partitionings, FDISK and SFD. */
	fmt = check_fs(fs, bsect = 0);		/* Load sector 0 and check if it is an FAT-VBR (in SFD) */
    39ec:	e03ff615 	stw	zero,-40(fp)
    39f0:	e13fee17 	ldw	r4,-72(fp)
    39f4:	e17ff617 	ldw	r5,-40(fp)
    39f8:	00036580 	call	3658 <check_fs>
    39fc:	e0bffa85 	stb	r2,-22(fp)
	if (LD2PT(vol) && !fmt) fmt = 1;	/* Force non-SFD if the volume is forced partition */
	if (fmt == 1) {						/* Not an FAT-VBR, the physical drive can be partitioned */
    3a00:	e0bffa83 	ldbu	r2,-22(fp)
    3a04:	10800058 	cmpnei	r2,r2,1
    3a08:	10002f1e 	bne	r2,zero,3ac8 <chk_mounted+0x2a0>
		/* Check the partition listed in the partition table */
		pi = LD2PT(vol);
    3a0c:	e03ffa05 	stb	zero,-24(fp)
		if (pi) pi--;
    3a10:	e0bffa03 	ldbu	r2,-24(fp)
    3a14:	1005003a 	cmpeq	r2,r2,zero
    3a18:	1000031e 	bne	r2,zero,3a28 <chk_mounted+0x200>
    3a1c:	e0bffa03 	ldbu	r2,-24(fp)
    3a20:	10bfffc4 	addi	r2,r2,-1
    3a24:	e0bffa05 	stb	r2,-24(fp)
		tbl = &fs->win[MBR_Table + pi * SZ_PTE];/* Partition table */
    3a28:	e0bfee17 	ldw	r2,-72(fp)
    3a2c:	10c00c04 	addi	r3,r2,48
    3a30:	e0bffa03 	ldbu	r2,-24(fp)
    3a34:	1004913a 	slli	r2,r2,4
    3a38:	1885883a 	add	r2,r3,r2
    3a3c:	10806f84 	addi	r2,r2,446
    3a40:	e0bff915 	stw	r2,-28(fp)
		if (tbl[4]) {						/* Is the partition existing? */
    3a44:	e0bff917 	ldw	r2,-28(fp)
    3a48:	10800104 	addi	r2,r2,4
    3a4c:	10800003 	ldbu	r2,0(r2)
    3a50:	10803fcc 	andi	r2,r2,255
    3a54:	1005003a 	cmpeq	r2,r2,zero
    3a58:	10001b1e 	bne	r2,zero,3ac8 <chk_mounted+0x2a0>
			bsect = LD_DWORD(&tbl[8]);		/* Partition offset in LBA */
    3a5c:	e0bff917 	ldw	r2,-28(fp)
    3a60:	108002c4 	addi	r2,r2,11
    3a64:	10800003 	ldbu	r2,0(r2)
    3a68:	10803fcc 	andi	r2,r2,255
    3a6c:	1006963a 	slli	r3,r2,24
    3a70:	e0bff917 	ldw	r2,-28(fp)
    3a74:	10800284 	addi	r2,r2,10
    3a78:	10800003 	ldbu	r2,0(r2)
    3a7c:	10803fcc 	andi	r2,r2,255
    3a80:	1004943a 	slli	r2,r2,16
    3a84:	1886b03a 	or	r3,r3,r2
    3a88:	e0bff917 	ldw	r2,-28(fp)
    3a8c:	10800244 	addi	r2,r2,9
    3a90:	10800003 	ldbu	r2,0(r2)
    3a94:	10803fcc 	andi	r2,r2,255
    3a98:	1004923a 	slli	r2,r2,8
    3a9c:	1886b03a 	or	r3,r3,r2
    3aa0:	e0bff917 	ldw	r2,-28(fp)
    3aa4:	10800204 	addi	r2,r2,8
    3aa8:	10800003 	ldbu	r2,0(r2)
    3aac:	10803fcc 	andi	r2,r2,255
    3ab0:	1884b03a 	or	r2,r3,r2
    3ab4:	e0bff615 	stw	r2,-40(fp)
			fmt = check_fs(fs, bsect);		/* Check the partition */
    3ab8:	e13fee17 	ldw	r4,-72(fp)
    3abc:	e17ff617 	ldw	r5,-40(fp)
    3ac0:	00036580 	call	3658 <check_fs>
    3ac4:	e0bffa85 	stb	r2,-22(fp)
		}
	}
	if (fmt == 3) return FR_DISK_ERR;
    3ac8:	e0bffa83 	ldbu	r2,-22(fp)
    3acc:	108000d8 	cmpnei	r2,r2,3
    3ad0:	1000031e 	bne	r2,zero,3ae0 <chk_mounted+0x2b8>
    3ad4:	00800044 	movi	r2,1
    3ad8:	e0bfff15 	stw	r2,-4(fp)
    3adc:	00021206 	br	4328 <chk_mounted+0xb00>
	if (fmt) return FR_NO_FILESYSTEM;		/* No FAT volume is found */
    3ae0:	e0bffa83 	ldbu	r2,-22(fp)
    3ae4:	1005003a 	cmpeq	r2,r2,zero
    3ae8:	1000031e 	bne	r2,zero,3af8 <chk_mounted+0x2d0>
    3aec:	00800344 	movi	r2,13
    3af0:	e0bfff15 	stw	r2,-4(fp)
    3af4:	00020c06 	br	4328 <chk_mounted+0xb00>

	/* An FAT volume is found. Following code initializes the file system object */

	if (LD_WORD(fs->win+BPB_BytsPerSec) != SS(fs))		/* (BPB_BytsPerSec must be equal to the physical sector size) */
    3af8:	e0bfee17 	ldw	r2,-72(fp)
    3afc:	10800c04 	addi	r2,r2,48
    3b00:	10800304 	addi	r2,r2,12
    3b04:	10800003 	ldbu	r2,0(r2)
    3b08:	10803fcc 	andi	r2,r2,255
    3b0c:	1004923a 	slli	r2,r2,8
    3b10:	1007883a 	mov	r3,r2
    3b14:	e0bfee17 	ldw	r2,-72(fp)
    3b18:	10800c04 	addi	r2,r2,48
    3b1c:	108002c4 	addi	r2,r2,11
    3b20:	10800003 	ldbu	r2,0(r2)
    3b24:	10803fcc 	andi	r2,r2,255
    3b28:	1884b03a 	or	r2,r3,r2
    3b2c:	10bfffcc 	andi	r2,r2,65535
    3b30:	10a0001c 	xori	r2,r2,32768
    3b34:	10a00004 	addi	r2,r2,-32768
    3b38:	10808020 	cmpeqi	r2,r2,512
    3b3c:	1000031e 	bne	r2,zero,3b4c <chk_mounted+0x324>
		return FR_NO_FILESYSTEM;
    3b40:	00800344 	movi	r2,13
    3b44:	e0bfff15 	stw	r2,-4(fp)
    3b48:	0001f706 	br	4328 <chk_mounted+0xb00>

	fasize = LD_WORD(fs->win+BPB_FATSz16);				/* Number of sectors per FAT */
    3b4c:	e0bfee17 	ldw	r2,-72(fp)
    3b50:	10800c04 	addi	r2,r2,48
    3b54:	108005c4 	addi	r2,r2,23
    3b58:	10800003 	ldbu	r2,0(r2)
    3b5c:	10803fcc 	andi	r2,r2,255
    3b60:	1004923a 	slli	r2,r2,8
    3b64:	1007883a 	mov	r3,r2
    3b68:	e0bfee17 	ldw	r2,-72(fp)
    3b6c:	10800c04 	addi	r2,r2,48
    3b70:	10800584 	addi	r2,r2,22
    3b74:	10800003 	ldbu	r2,0(r2)
    3b78:	10803fcc 	andi	r2,r2,255
    3b7c:	1884b03a 	or	r2,r3,r2
    3b80:	10bfffcc 	andi	r2,r2,65535
    3b84:	e0bff515 	stw	r2,-44(fp)
	if (!fasize) fasize = LD_DWORD(fs->win+BPB_FATSz32);
    3b88:	e0bff517 	ldw	r2,-44(fp)
    3b8c:	1004c03a 	cmpne	r2,r2,zero
    3b90:	10001b1e 	bne	r2,zero,3c00 <chk_mounted+0x3d8>
    3b94:	e0bfee17 	ldw	r2,-72(fp)
    3b98:	10800c04 	addi	r2,r2,48
    3b9c:	108009c4 	addi	r2,r2,39
    3ba0:	10800003 	ldbu	r2,0(r2)
    3ba4:	10803fcc 	andi	r2,r2,255
    3ba8:	1006963a 	slli	r3,r2,24
    3bac:	e0bfee17 	ldw	r2,-72(fp)
    3bb0:	10800c04 	addi	r2,r2,48
    3bb4:	10800984 	addi	r2,r2,38
    3bb8:	10800003 	ldbu	r2,0(r2)
    3bbc:	10803fcc 	andi	r2,r2,255
    3bc0:	1004943a 	slli	r2,r2,16
    3bc4:	1886b03a 	or	r3,r3,r2
    3bc8:	e0bfee17 	ldw	r2,-72(fp)
    3bcc:	10800c04 	addi	r2,r2,48
    3bd0:	10800944 	addi	r2,r2,37
    3bd4:	10800003 	ldbu	r2,0(r2)
    3bd8:	10803fcc 	andi	r2,r2,255
    3bdc:	1004923a 	slli	r2,r2,8
    3be0:	1886b03a 	or	r3,r3,r2
    3be4:	e0bfee17 	ldw	r2,-72(fp)
    3be8:	10800c04 	addi	r2,r2,48
    3bec:	10800904 	addi	r2,r2,36
    3bf0:	10800003 	ldbu	r2,0(r2)
    3bf4:	10803fcc 	andi	r2,r2,255
    3bf8:	1884b03a 	or	r2,r3,r2
    3bfc:	e0bff515 	stw	r2,-44(fp)
	fs->fsize = fasize;
    3c00:	e0ffee17 	ldw	r3,-72(fp)
    3c04:	e0bff517 	ldw	r2,-44(fp)
    3c08:	18800715 	stw	r2,28(r3)

	fs->n_fats = b = fs->win[BPB_NumFATs];				/* Number of FAT copies */
    3c0c:	e0bfee17 	ldw	r2,-72(fp)
    3c10:	10801003 	ldbu	r2,64(r2)
    3c14:	e0bffa45 	stb	r2,-23(fp)
    3c18:	e0ffee17 	ldw	r3,-72(fp)
    3c1c:	e0bffa43 	ldbu	r2,-23(fp)
    3c20:	188000c5 	stb	r2,3(r3)
	if (b != 1 && b != 2) return FR_NO_FILESYSTEM;		/* (Must be 1 or 2) */
    3c24:	e0bffa43 	ldbu	r2,-23(fp)
    3c28:	10800060 	cmpeqi	r2,r2,1
    3c2c:	1000061e 	bne	r2,zero,3c48 <chk_mounted+0x420>
    3c30:	e0bffa43 	ldbu	r2,-23(fp)
    3c34:	108000a0 	cmpeqi	r2,r2,2
    3c38:	1000031e 	bne	r2,zero,3c48 <chk_mounted+0x420>
    3c3c:	00800344 	movi	r2,13
    3c40:	e0bfff15 	stw	r2,-4(fp)
    3c44:	0001b806 	br	4328 <chk_mounted+0xb00>
	fasize *= b;										/* Number of sectors for FAT area */
    3c48:	e0fffa43 	ldbu	r3,-23(fp)
    3c4c:	e0bff517 	ldw	r2,-44(fp)
    3c50:	10c5383a 	mul	r2,r2,r3
    3c54:	e0bff515 	stw	r2,-44(fp)

	fs->csize = b = fs->win[BPB_SecPerClus];			/* Number of sectors per cluster */
    3c58:	e0bfee17 	ldw	r2,-72(fp)
    3c5c:	10800f43 	ldbu	r2,61(r2)
    3c60:	e0bffa45 	stb	r2,-23(fp)
    3c64:	e0ffee17 	ldw	r3,-72(fp)
    3c68:	e0bffa43 	ldbu	r2,-23(fp)
    3c6c:	18800085 	stb	r2,2(r3)
	if (!b || (b & (b - 1))) return FR_NO_FILESYSTEM;	/* (Must be power of 2) */
    3c70:	e0bffa43 	ldbu	r2,-23(fp)
    3c74:	1005003a 	cmpeq	r2,r2,zero
    3c78:	1000061e 	bne	r2,zero,3c94 <chk_mounted+0x46c>
    3c7c:	e0fffa43 	ldbu	r3,-23(fp)
    3c80:	e0bffa43 	ldbu	r2,-23(fp)
    3c84:	10bfffc4 	addi	r2,r2,-1
    3c88:	1884703a 	and	r2,r3,r2
    3c8c:	1005003a 	cmpeq	r2,r2,zero
    3c90:	1000031e 	bne	r2,zero,3ca0 <chk_mounted+0x478>
    3c94:	00800344 	movi	r2,13
    3c98:	e0bfff15 	stw	r2,-4(fp)
    3c9c:	0001a206 	br	4328 <chk_mounted+0xb00>

	fs->n_rootdir = LD_WORD(fs->win+BPB_RootEntCnt);	/* Number of root directory entries */
    3ca0:	e0bfee17 	ldw	r2,-72(fp)
    3ca4:	10800c04 	addi	r2,r2,48
    3ca8:	10800484 	addi	r2,r2,18
    3cac:	10800003 	ldbu	r2,0(r2)
    3cb0:	10803fcc 	andi	r2,r2,255
    3cb4:	1004923a 	slli	r2,r2,8
    3cb8:	1007883a 	mov	r3,r2
    3cbc:	e0bfee17 	ldw	r2,-72(fp)
    3cc0:	10800c04 	addi	r2,r2,48
    3cc4:	10800444 	addi	r2,r2,17
    3cc8:	10800003 	ldbu	r2,0(r2)
    3ccc:	10803fcc 	andi	r2,r2,255
    3cd0:	1884b03a 	or	r2,r3,r2
    3cd4:	1007883a 	mov	r3,r2
    3cd8:	e0bfee17 	ldw	r2,-72(fp)
    3cdc:	10c0020d 	sth	r3,8(r2)
	if (fs->n_rootdir % (SS(fs) / SZ_DIR)) return FR_NO_FILESYSTEM;	/* (BPB_RootEntCnt must be sector aligned) */
    3ce0:	e0bfee17 	ldw	r2,-72(fp)
    3ce4:	1080020b 	ldhu	r2,8(r2)
    3ce8:	10bfffcc 	andi	r2,r2,65535
    3cec:	108003cc 	andi	r2,r2,15
    3cf0:	1005003a 	cmpeq	r2,r2,zero
    3cf4:	1000031e 	bne	r2,zero,3d04 <chk_mounted+0x4dc>
    3cf8:	00800344 	movi	r2,13
    3cfc:	e0bfff15 	stw	r2,-4(fp)
    3d00:	00018906 	br	4328 <chk_mounted+0xb00>

	tsect = LD_WORD(fs->win+BPB_TotSec16);				/* Number of sectors on the volume */
    3d04:	e0bfee17 	ldw	r2,-72(fp)
    3d08:	10800c04 	addi	r2,r2,48
    3d0c:	10800504 	addi	r2,r2,20
    3d10:	10800003 	ldbu	r2,0(r2)
    3d14:	10803fcc 	andi	r2,r2,255
    3d18:	1004923a 	slli	r2,r2,8
    3d1c:	1007883a 	mov	r3,r2
    3d20:	e0bfee17 	ldw	r2,-72(fp)
    3d24:	10800c04 	addi	r2,r2,48
    3d28:	108004c4 	addi	r2,r2,19
    3d2c:	10800003 	ldbu	r2,0(r2)
    3d30:	10803fcc 	andi	r2,r2,255
    3d34:	1884b03a 	or	r2,r3,r2
    3d38:	10bfffcc 	andi	r2,r2,65535
    3d3c:	e0bff415 	stw	r2,-48(fp)
	if (!tsect) tsect = LD_DWORD(fs->win+BPB_TotSec32);
    3d40:	e0bff417 	ldw	r2,-48(fp)
    3d44:	1004c03a 	cmpne	r2,r2,zero
    3d48:	10001b1e 	bne	r2,zero,3db8 <chk_mounted+0x590>
    3d4c:	e0bfee17 	ldw	r2,-72(fp)
    3d50:	10800c04 	addi	r2,r2,48
    3d54:	108008c4 	addi	r2,r2,35
    3d58:	10800003 	ldbu	r2,0(r2)
    3d5c:	10803fcc 	andi	r2,r2,255
    3d60:	1006963a 	slli	r3,r2,24
    3d64:	e0bfee17 	ldw	r2,-72(fp)
    3d68:	10800c04 	addi	r2,r2,48
    3d6c:	10800884 	addi	r2,r2,34
    3d70:	10800003 	ldbu	r2,0(r2)
    3d74:	10803fcc 	andi	r2,r2,255
    3d78:	1004943a 	slli	r2,r2,16
    3d7c:	1886b03a 	or	r3,r3,r2
    3d80:	e0bfee17 	ldw	r2,-72(fp)
    3d84:	10800c04 	addi	r2,r2,48
    3d88:	10800844 	addi	r2,r2,33
    3d8c:	10800003 	ldbu	r2,0(r2)
    3d90:	10803fcc 	andi	r2,r2,255
    3d94:	1004923a 	slli	r2,r2,8
    3d98:	1886b03a 	or	r3,r3,r2
    3d9c:	e0bfee17 	ldw	r2,-72(fp)
    3da0:	10800c04 	addi	r2,r2,48
    3da4:	10800804 	addi	r2,r2,32
    3da8:	10800003 	ldbu	r2,0(r2)
    3dac:	10803fcc 	andi	r2,r2,255
    3db0:	1884b03a 	or	r2,r3,r2
    3db4:	e0bff415 	stw	r2,-48(fp)

	nrsv = LD_WORD(fs->win+BPB_RsvdSecCnt);				/* Number of reserved sectors */
    3db8:	e0bfee17 	ldw	r2,-72(fp)
    3dbc:	10800c04 	addi	r2,r2,48
    3dc0:	108003c4 	addi	r2,r2,15
    3dc4:	10800003 	ldbu	r2,0(r2)
    3dc8:	10803fcc 	andi	r2,r2,255
    3dcc:	1004923a 	slli	r2,r2,8
    3dd0:	1007883a 	mov	r3,r2
    3dd4:	e0bfee17 	ldw	r2,-72(fp)
    3dd8:	10800c04 	addi	r2,r2,48
    3ddc:	10800384 	addi	r2,r2,14
    3de0:	10800003 	ldbu	r2,0(r2)
    3de4:	10803fcc 	andi	r2,r2,255
    3de8:	1884b03a 	or	r2,r3,r2
    3dec:	e0bff00d 	sth	r2,-64(fp)
	if (!nrsv) return FR_NO_FILESYSTEM;					/* (BPB_RsvdSecCnt must not be 0) */
    3df0:	e0bff00b 	ldhu	r2,-64(fp)
    3df4:	1004c03a 	cmpne	r2,r2,zero
    3df8:	1000031e 	bne	r2,zero,3e08 <chk_mounted+0x5e0>
    3dfc:	00800344 	movi	r2,13
    3e00:	e0bfff15 	stw	r2,-4(fp)
    3e04:	00014806 	br	4328 <chk_mounted+0xb00>

	/* Determine the FAT sub type */
	sysect = nrsv + fasize + fs->n_rootdir / (SS(fs) / SZ_DIR);	/* RSV+FAT+DIR */
    3e08:	e0fff00b 	ldhu	r3,-64(fp)
    3e0c:	e0bff517 	ldw	r2,-44(fp)
    3e10:	1887883a 	add	r3,r3,r2
    3e14:	e0bfee17 	ldw	r2,-72(fp)
    3e18:	1080020b 	ldhu	r2,8(r2)
    3e1c:	10bfffcc 	andi	r2,r2,65535
    3e20:	1004d13a 	srli	r2,r2,4
    3e24:	10bfffcc 	andi	r2,r2,65535
    3e28:	1885883a 	add	r2,r3,r2
    3e2c:	e0bff315 	stw	r2,-52(fp)
	if (tsect < sysect) return FR_NO_FILESYSTEM;		/* (Invalid volume size) */
    3e30:	e0fff417 	ldw	r3,-48(fp)
    3e34:	e0bff317 	ldw	r2,-52(fp)
    3e38:	1880032e 	bgeu	r3,r2,3e48 <chk_mounted+0x620>
    3e3c:	00800344 	movi	r2,13
    3e40:	e0bfff15 	stw	r2,-4(fp)
    3e44:	00013806 	br	4328 <chk_mounted+0xb00>
	nclst = (tsect - sysect) / fs->csize;				/* Number of clusters */
    3e48:	e0fff417 	ldw	r3,-48(fp)
    3e4c:	e0bff317 	ldw	r2,-52(fp)
    3e50:	1887c83a 	sub	r3,r3,r2
    3e54:	e0bfee17 	ldw	r2,-72(fp)
    3e58:	10800083 	ldbu	r2,2(r2)
    3e5c:	10803fcc 	andi	r2,r2,255
    3e60:	1885203a 	divu	r2,r3,r2
    3e64:	e0bff215 	stw	r2,-56(fp)
	if (!nclst) return FR_NO_FILESYSTEM;				/* (Invalid volume size) */
    3e68:	e0bff217 	ldw	r2,-56(fp)
    3e6c:	1004c03a 	cmpne	r2,r2,zero
    3e70:	1000031e 	bne	r2,zero,3e80 <chk_mounted+0x658>
    3e74:	00800344 	movi	r2,13
    3e78:	e0bfff15 	stw	r2,-4(fp)
    3e7c:	00012a06 	br	4328 <chk_mounted+0xb00>
	fmt = FS_FAT12;
    3e80:	00800044 	movi	r2,1
    3e84:	e0bffa85 	stb	r2,-22(fp)
	if (nclst >= MIN_FAT16) fmt = FS_FAT16;
    3e88:	e0bff217 	ldw	r2,-56(fp)
    3e8c:	1083fdb0 	cmpltui	r2,r2,4086
    3e90:	1000021e 	bne	r2,zero,3e9c <chk_mounted+0x674>
    3e94:	00800084 	movi	r2,2
    3e98:	e0bffa85 	stb	r2,-22(fp)
	if (nclst >= MIN_FAT32) fmt = FS_FAT32;
    3e9c:	e0fff217 	ldw	r3,-56(fp)
    3ea0:	00bffd54 	movui	r2,65525
    3ea4:	10c0022e 	bgeu	r2,r3,3eb0 <chk_mounted+0x688>
    3ea8:	008000c4 	movi	r2,3
    3eac:	e0bffa85 	stb	r2,-22(fp)

	/* Boundaries and Limits */
	fs->n_fatent = nclst + 2;							/* Number of FAT entries */
    3eb0:	e0bff217 	ldw	r2,-56(fp)
    3eb4:	10c00084 	addi	r3,r2,2
    3eb8:	e0bfee17 	ldw	r2,-72(fp)
    3ebc:	10c00615 	stw	r3,24(r2)
	fs->database = bsect + sysect;						/* Data start sector */
    3ec0:	e0fff617 	ldw	r3,-40(fp)
    3ec4:	e0bff317 	ldw	r2,-52(fp)
    3ec8:	1887883a 	add	r3,r3,r2
    3ecc:	e0bfee17 	ldw	r2,-72(fp)
    3ed0:	10c00a15 	stw	r3,40(r2)
	fs->fatbase = bsect + nrsv; 						/* FAT start sector */
    3ed4:	e0fff00b 	ldhu	r3,-64(fp)
    3ed8:	e0bff617 	ldw	r2,-40(fp)
    3edc:	1887883a 	add	r3,r3,r2
    3ee0:	e0bfee17 	ldw	r2,-72(fp)
    3ee4:	10c00815 	stw	r3,32(r2)
	if (fmt == FS_FAT32) {
    3ee8:	e0bffa83 	ldbu	r2,-22(fp)
    3eec:	108000d8 	cmpnei	r2,r2,3
    3ef0:	10002a1e 	bne	r2,zero,3f9c <chk_mounted+0x774>
		if (fs->n_rootdir) return FR_NO_FILESYSTEM;		/* (BPB_RootEntCnt must be 0) */
    3ef4:	e0bfee17 	ldw	r2,-72(fp)
    3ef8:	1080020b 	ldhu	r2,8(r2)
    3efc:	10bfffcc 	andi	r2,r2,65535
    3f00:	1005003a 	cmpeq	r2,r2,zero
    3f04:	1000031e 	bne	r2,zero,3f14 <chk_mounted+0x6ec>
    3f08:	00800344 	movi	r2,13
    3f0c:	e0bfff15 	stw	r2,-4(fp)
    3f10:	00010506 	br	4328 <chk_mounted+0xb00>
		fs->dirbase = LD_DWORD(fs->win+BPB_RootClus);	/* Root directory start cluster */
    3f14:	e0bfee17 	ldw	r2,-72(fp)
    3f18:	10800c04 	addi	r2,r2,48
    3f1c:	10800bc4 	addi	r2,r2,47
    3f20:	10800003 	ldbu	r2,0(r2)
    3f24:	10803fcc 	andi	r2,r2,255
    3f28:	1006963a 	slli	r3,r2,24
    3f2c:	e0bfee17 	ldw	r2,-72(fp)
    3f30:	10800c04 	addi	r2,r2,48
    3f34:	10800b84 	addi	r2,r2,46
    3f38:	10800003 	ldbu	r2,0(r2)
    3f3c:	10803fcc 	andi	r2,r2,255
    3f40:	1004943a 	slli	r2,r2,16
    3f44:	1886b03a 	or	r3,r3,r2
    3f48:	e0bfee17 	ldw	r2,-72(fp)
    3f4c:	10800c04 	addi	r2,r2,48
    3f50:	10800b44 	addi	r2,r2,45
    3f54:	10800003 	ldbu	r2,0(r2)
    3f58:	10803fcc 	andi	r2,r2,255
    3f5c:	1004923a 	slli	r2,r2,8
    3f60:	1886b03a 	or	r3,r3,r2
    3f64:	e0bfee17 	ldw	r2,-72(fp)
    3f68:	10800c04 	addi	r2,r2,48
    3f6c:	10800b04 	addi	r2,r2,44
    3f70:	10800003 	ldbu	r2,0(r2)
    3f74:	10803fcc 	andi	r2,r2,255
    3f78:	1886b03a 	or	r3,r3,r2
    3f7c:	e0bfee17 	ldw	r2,-72(fp)
    3f80:	10c00915 	stw	r3,36(r2)
		szbfat = fs->n_fatent * 4;						/* (Required FAT size) */
    3f84:	e0bfee17 	ldw	r2,-72(fp)
    3f88:	10800617 	ldw	r2,24(r2)
    3f8c:	1085883a 	add	r2,r2,r2
    3f90:	1085883a 	add	r2,r2,r2
    3f94:	e0bff115 	stw	r2,-60(fp)
    3f98:	00002306 	br	4028 <chk_mounted+0x800>
	} else {
		if (!fs->n_rootdir)	return FR_NO_FILESYSTEM;	/* (BPB_RootEntCnt must not be 0) */
    3f9c:	e0bfee17 	ldw	r2,-72(fp)
    3fa0:	1080020b 	ldhu	r2,8(r2)
    3fa4:	10bfffcc 	andi	r2,r2,65535
    3fa8:	1004c03a 	cmpne	r2,r2,zero
    3fac:	1000031e 	bne	r2,zero,3fbc <chk_mounted+0x794>
    3fb0:	00800344 	movi	r2,13
    3fb4:	e0bfff15 	stw	r2,-4(fp)
    3fb8:	0000db06 	br	4328 <chk_mounted+0xb00>
		fs->dirbase = fs->fatbase + fasize;				/* Root directory start sector */
    3fbc:	e0bfee17 	ldw	r2,-72(fp)
    3fc0:	10c00817 	ldw	r3,32(r2)
    3fc4:	e0bff517 	ldw	r2,-44(fp)
    3fc8:	1887883a 	add	r3,r3,r2
    3fcc:	e0bfee17 	ldw	r2,-72(fp)
    3fd0:	10c00915 	stw	r3,36(r2)
		szbfat = (fmt == FS_FAT16) ?					/* (Required FAT size) */
    3fd4:	e0bffa83 	ldbu	r2,-22(fp)
    3fd8:	10800098 	cmpnei	r2,r2,2
    3fdc:	1000051e 	bne	r2,zero,3ff4 <chk_mounted+0x7cc>
    3fe0:	e0bfee17 	ldw	r2,-72(fp)
    3fe4:	10800617 	ldw	r2,24(r2)
    3fe8:	1085883a 	add	r2,r2,r2
    3fec:	e0bffe15 	stw	r2,-8(fp)
    3ff0:	00000b06 	br	4020 <chk_mounted+0x7f8>
    3ff4:	e0bfee17 	ldw	r2,-72(fp)
    3ff8:	10c00617 	ldw	r3,24(r2)
    3ffc:	1805883a 	mov	r2,r3
    4000:	1085883a 	add	r2,r2,r2
    4004:	10c5883a 	add	r2,r2,r3
    4008:	1006d07a 	srli	r3,r2,1
    400c:	e0bfee17 	ldw	r2,-72(fp)
    4010:	10800617 	ldw	r2,24(r2)
    4014:	1080004c 	andi	r2,r2,1
    4018:	1887883a 	add	r3,r3,r2
    401c:	e0fffe15 	stw	r3,-8(fp)
    4020:	e0bffe17 	ldw	r2,-8(fp)
    4024:	e0bff115 	stw	r2,-60(fp)
			fs->n_fatent * 2 : fs->n_fatent * 3 / 2 + (fs->n_fatent & 1);
	}
	if (fs->fsize < (szbfat + (SS(fs) - 1)) / SS(fs))	/* (BPB_FATSz must not be less than required) */
    4028:	e0bfee17 	ldw	r2,-72(fp)
    402c:	10c00717 	ldw	r3,28(r2)
    4030:	e0bff117 	ldw	r2,-60(fp)
    4034:	10807fc4 	addi	r2,r2,511
    4038:	1004d27a 	srli	r2,r2,9
    403c:	1880032e 	bgeu	r3,r2,404c <chk_mounted+0x824>
		return FR_NO_FILESYSTEM;
    4040:	00800344 	movi	r2,13
    4044:	e0bfff15 	stw	r2,-4(fp)
    4048:	0000b706 	br	4328 <chk_mounted+0xb00>

#if !_FS_READONLY
	/* Initialize cluster allocation information */
	fs->free_clust = 0xFFFFFFFF;
    404c:	e0ffee17 	ldw	r3,-72(fp)
    4050:	00bfffc4 	movi	r2,-1
    4054:	18800415 	stw	r2,16(r3)
	fs->last_clust = 0;
    4058:	e0bfee17 	ldw	r2,-72(fp)
    405c:	10000315 	stw	zero,12(r2)

	/* Get fsinfo if available */
	if (fmt == FS_FAT32) {
    4060:	e0bffa83 	ldbu	r2,-22(fp)
    4064:	108000d8 	cmpnei	r2,r2,3
    4068:	1000a11e 	bne	r2,zero,42f0 <chk_mounted+0xac8>
	 	fs->fsi_flag = 0;
    406c:	e0bfee17 	ldw	r2,-72(fp)
    4070:	10000145 	stb	zero,5(r2)
		fs->fsi_sector = bsect + LD_WORD(fs->win+BPB_FSInfo);
    4074:	e0bfee17 	ldw	r2,-72(fp)
    4078:	10800c04 	addi	r2,r2,48
    407c:	10800c44 	addi	r2,r2,49
    4080:	10800003 	ldbu	r2,0(r2)
    4084:	10803fcc 	andi	r2,r2,255
    4088:	1004923a 	slli	r2,r2,8
    408c:	1007883a 	mov	r3,r2
    4090:	e0bfee17 	ldw	r2,-72(fp)
    4094:	10800c04 	addi	r2,r2,48
    4098:	10800c04 	addi	r2,r2,48
    409c:	10800003 	ldbu	r2,0(r2)
    40a0:	10803fcc 	andi	r2,r2,255
    40a4:	1884b03a 	or	r2,r3,r2
    40a8:	10ffffcc 	andi	r3,r2,65535
    40ac:	e0bff617 	ldw	r2,-40(fp)
    40b0:	1887883a 	add	r3,r3,r2
    40b4:	e0bfee17 	ldw	r2,-72(fp)
    40b8:	10c00515 	stw	r3,20(r2)
		if (disk_read(fs->drv, fs->win, fs->fsi_sector, 1) == RES_OK &&
    40bc:	e0bfee17 	ldw	r2,-72(fp)
    40c0:	10800043 	ldbu	r2,1(r2)
    40c4:	11003fcc 	andi	r4,r2,255
    40c8:	e0bfee17 	ldw	r2,-72(fp)
    40cc:	11400c04 	addi	r5,r2,48
    40d0:	e0bfee17 	ldw	r2,-72(fp)
    40d4:	11800517 	ldw	r6,20(r2)
    40d8:	01c00044 	movi	r7,1
    40dc:	00077580 	call	7758 <disk_read>
    40e0:	1004c03a 	cmpne	r2,r2,zero
    40e4:	1000821e 	bne	r2,zero,42f0 <chk_mounted+0xac8>
    40e8:	e0bfee17 	ldw	r2,-72(fp)
    40ec:	10800c04 	addi	r2,r2,48
    40f0:	10807fc4 	addi	r2,r2,511
    40f4:	10800003 	ldbu	r2,0(r2)
    40f8:	10803fcc 	andi	r2,r2,255
    40fc:	1004923a 	slli	r2,r2,8
    4100:	1007883a 	mov	r3,r2
    4104:	e0bfee17 	ldw	r2,-72(fp)
    4108:	10800c04 	addi	r2,r2,48
    410c:	10807f84 	addi	r2,r2,510
    4110:	10800003 	ldbu	r2,0(r2)
    4114:	10803fcc 	andi	r2,r2,255
    4118:	1884b03a 	or	r2,r3,r2
    411c:	10bfffcc 	andi	r2,r2,65535
    4120:	10a0001c 	xori	r2,r2,32768
    4124:	10a00004 	addi	r2,r2,-32768
    4128:	10aa9558 	cmpnei	r2,r2,-21931
    412c:	1000701e 	bne	r2,zero,42f0 <chk_mounted+0xac8>
    4130:	e0bfee17 	ldw	r2,-72(fp)
    4134:	10800c04 	addi	r2,r2,48
    4138:	108000c4 	addi	r2,r2,3
    413c:	10800003 	ldbu	r2,0(r2)
    4140:	10803fcc 	andi	r2,r2,255
    4144:	1006963a 	slli	r3,r2,24
    4148:	e0bfee17 	ldw	r2,-72(fp)
    414c:	10800c04 	addi	r2,r2,48
    4150:	10800084 	addi	r2,r2,2
    4154:	10800003 	ldbu	r2,0(r2)
    4158:	10803fcc 	andi	r2,r2,255
    415c:	1004943a 	slli	r2,r2,16
    4160:	1886b03a 	or	r3,r3,r2
    4164:	e0bfee17 	ldw	r2,-72(fp)
    4168:	10800c04 	addi	r2,r2,48
    416c:	10800044 	addi	r2,r2,1
    4170:	10800003 	ldbu	r2,0(r2)
    4174:	10803fcc 	andi	r2,r2,255
    4178:	1004923a 	slli	r2,r2,8
    417c:	1886b03a 	or	r3,r3,r2
    4180:	e0bfee17 	ldw	r2,-72(fp)
    4184:	10800c03 	ldbu	r2,48(r2)
    4188:	10803fcc 	andi	r2,r2,255
    418c:	1886b03a 	or	r3,r3,r2
    4190:	00905874 	movhi	r2,16737
    4194:	10949484 	addi	r2,r2,21074
    4198:	1880551e 	bne	r3,r2,42f0 <chk_mounted+0xac8>
    419c:	e0bfee17 	ldw	r2,-72(fp)
    41a0:	10800c04 	addi	r2,r2,48
    41a4:	108079c4 	addi	r2,r2,487
    41a8:	10800003 	ldbu	r2,0(r2)
    41ac:	10803fcc 	andi	r2,r2,255
    41b0:	1006963a 	slli	r3,r2,24
    41b4:	e0bfee17 	ldw	r2,-72(fp)
    41b8:	10800c04 	addi	r2,r2,48
    41bc:	10807984 	addi	r2,r2,486
    41c0:	10800003 	ldbu	r2,0(r2)
    41c4:	10803fcc 	andi	r2,r2,255
    41c8:	1004943a 	slli	r2,r2,16
    41cc:	1886b03a 	or	r3,r3,r2
    41d0:	e0bfee17 	ldw	r2,-72(fp)
    41d4:	10800c04 	addi	r2,r2,48
    41d8:	10807944 	addi	r2,r2,485
    41dc:	10800003 	ldbu	r2,0(r2)
    41e0:	10803fcc 	andi	r2,r2,255
    41e4:	1004923a 	slli	r2,r2,8
    41e8:	1886b03a 	or	r3,r3,r2
    41ec:	e0bfee17 	ldw	r2,-72(fp)
    41f0:	10800c04 	addi	r2,r2,48
    41f4:	10807904 	addi	r2,r2,484
    41f8:	10800003 	ldbu	r2,0(r2)
    41fc:	10803fcc 	andi	r2,r2,255
    4200:	1886b03a 	or	r3,r3,r2
    4204:	00985074 	movhi	r2,24897
    4208:	109c9c84 	addi	r2,r2,29298
    420c:	1880381e 	bne	r3,r2,42f0 <chk_mounted+0xac8>
			LD_WORD(fs->win+BS_55AA) == 0xAA55 &&
			LD_DWORD(fs->win+FSI_LeadSig) == 0x41615252 &&
			LD_DWORD(fs->win+FSI_StrucSig) == 0x61417272) {
				fs->last_clust = LD_DWORD(fs->win+FSI_Nxt_Free);
    4210:	e0bfee17 	ldw	r2,-72(fp)
    4214:	10800c04 	addi	r2,r2,48
    4218:	10807bc4 	addi	r2,r2,495
    421c:	10800003 	ldbu	r2,0(r2)
    4220:	10803fcc 	andi	r2,r2,255
    4224:	1006963a 	slli	r3,r2,24
    4228:	e0bfee17 	ldw	r2,-72(fp)
    422c:	10800c04 	addi	r2,r2,48
    4230:	10807b84 	addi	r2,r2,494
    4234:	10800003 	ldbu	r2,0(r2)
    4238:	10803fcc 	andi	r2,r2,255
    423c:	1004943a 	slli	r2,r2,16
    4240:	1886b03a 	or	r3,r3,r2
    4244:	e0bfee17 	ldw	r2,-72(fp)
    4248:	10800c04 	addi	r2,r2,48
    424c:	10807b44 	addi	r2,r2,493
    4250:	10800003 	ldbu	r2,0(r2)
    4254:	10803fcc 	andi	r2,r2,255
    4258:	1004923a 	slli	r2,r2,8
    425c:	1886b03a 	or	r3,r3,r2
    4260:	e0bfee17 	ldw	r2,-72(fp)
    4264:	10800c04 	addi	r2,r2,48
    4268:	10807b04 	addi	r2,r2,492
    426c:	10800003 	ldbu	r2,0(r2)
    4270:	10803fcc 	andi	r2,r2,255
    4274:	1886b03a 	or	r3,r3,r2
    4278:	e0bfee17 	ldw	r2,-72(fp)
    427c:	10c00315 	stw	r3,12(r2)
				fs->free_clust = LD_DWORD(fs->win+FSI_Free_Count);
    4280:	e0bfee17 	ldw	r2,-72(fp)
    4284:	10800c04 	addi	r2,r2,48
    4288:	10807ac4 	addi	r2,r2,491
    428c:	10800003 	ldbu	r2,0(r2)
    4290:	10803fcc 	andi	r2,r2,255
    4294:	1006963a 	slli	r3,r2,24
    4298:	e0bfee17 	ldw	r2,-72(fp)
    429c:	10800c04 	addi	r2,r2,48
    42a0:	10807a84 	addi	r2,r2,490
    42a4:	10800003 	ldbu	r2,0(r2)
    42a8:	10803fcc 	andi	r2,r2,255
    42ac:	1004943a 	slli	r2,r2,16
    42b0:	1886b03a 	or	r3,r3,r2
    42b4:	e0bfee17 	ldw	r2,-72(fp)
    42b8:	10800c04 	addi	r2,r2,48
    42bc:	10807a44 	addi	r2,r2,489
    42c0:	10800003 	ldbu	r2,0(r2)
    42c4:	10803fcc 	andi	r2,r2,255
    42c8:	1004923a 	slli	r2,r2,8
    42cc:	1886b03a 	or	r3,r3,r2
    42d0:	e0bfee17 	ldw	r2,-72(fp)
    42d4:	10800c04 	addi	r2,r2,48
    42d8:	10807a04 	addi	r2,r2,488
    42dc:	10800003 	ldbu	r2,0(r2)
    42e0:	10803fcc 	andi	r2,r2,255
    42e4:	1886b03a 	or	r3,r3,r2
    42e8:	e0bfee17 	ldw	r2,-72(fp)
    42ec:	10c00415 	stw	r3,16(r2)
		}
	}
#endif
	fs->fs_type = fmt;		/* FAT sub-type */
    42f0:	e0ffee17 	ldw	r3,-72(fp)
    42f4:	e0bffa83 	ldbu	r2,-22(fp)
    42f8:	18800005 	stb	r2,0(r3)
	fs->id = ++Fsid;		/* File system mount ID */
    42fc:	d0a0140b 	ldhu	r2,-32688(gp)
    4300:	10800044 	addi	r2,r2,1
    4304:	d0a0140d 	sth	r2,-32688(gp)
    4308:	d0e0140b 	ldhu	r3,-32688(gp)
    430c:	e0bfee17 	ldw	r2,-72(fp)
    4310:	10c0018d 	sth	r3,6(r2)
	fs->winsect = 0;		/* Invalidate sector cache */
    4314:	e0bfee17 	ldw	r2,-72(fp)
    4318:	10000b15 	stw	zero,44(r2)
	fs->wflag = 0;
    431c:	e0bfee17 	ldw	r2,-72(fp)
    4320:	10000105 	stb	zero,4(r2)
#endif
#if _FS_SHARE				/* Clear file lock semaphores */
	clear_lock(fs);
#endif

	return FR_OK;
    4324:	e03fff15 	stw	zero,-4(fp)
    4328:	e0bfff17 	ldw	r2,-4(fp)
}
    432c:	e037883a 	mov	sp,fp
    4330:	dfc00117 	ldw	ra,4(sp)
    4334:	df000017 	ldw	fp,0(sp)
    4338:	dec00204 	addi	sp,sp,8
    433c:	f800283a 	ret

00004340 <validate>:
static
FRESULT validate (	/* FR_OK(0): The object is valid, !=0: Invalid */
	FATFS *fs,		/* Pointer to the file system object */
	WORD id			/* Member id of the target object to be checked */
)
{
    4340:	defffb04 	addi	sp,sp,-20
    4344:	dfc00415 	stw	ra,16(sp)
    4348:	df000315 	stw	fp,12(sp)
    434c:	df000304 	addi	fp,sp,12
    4350:	e13ffd15 	stw	r4,-12(fp)
    4354:	e17ffe0d 	sth	r5,-8(fp)
	if (!fs || !fs->fs_type || fs->id != id)
    4358:	e0bffd17 	ldw	r2,-12(fp)
    435c:	1005003a 	cmpeq	r2,r2,zero
    4360:	10000a1e 	bne	r2,zero,438c <validate+0x4c>
    4364:	e0bffd17 	ldw	r2,-12(fp)
    4368:	10800003 	ldbu	r2,0(r2)
    436c:	10803fcc 	andi	r2,r2,255
    4370:	1005003a 	cmpeq	r2,r2,zero
    4374:	1000051e 	bne	r2,zero,438c <validate+0x4c>
    4378:	e0bffd17 	ldw	r2,-12(fp)
    437c:	1080018b 	ldhu	r2,6(r2)
    4380:	10ffffcc 	andi	r3,r2,65535
    4384:	e0bffe0b 	ldhu	r2,-8(fp)
    4388:	18800326 	beq	r3,r2,4398 <validate+0x58>
		return FR_INVALID_OBJECT;
    438c:	00800244 	movi	r2,9
    4390:	e0bfff15 	stw	r2,-4(fp)
    4394:	00000d06 	br	43cc <validate+0x8c>

	ENTER_FF(fs);		/* Lock file system */

	if (disk_status(fs->drv) & STA_NOINIT)
    4398:	e0bffd17 	ldw	r2,-12(fp)
    439c:	10800043 	ldbu	r2,1(r2)
    43a0:	11003fcc 	andi	r4,r2,255
    43a4:	00073c80 	call	73c8 <disk_status>
    43a8:	10803fcc 	andi	r2,r2,255
    43ac:	1080004c 	andi	r2,r2,1
    43b0:	10803fcc 	andi	r2,r2,255
    43b4:	1005003a 	cmpeq	r2,r2,zero
    43b8:	1000031e 	bne	r2,zero,43c8 <validate+0x88>
		return FR_NOT_READY;
    43bc:	008000c4 	movi	r2,3
    43c0:	e0bfff15 	stw	r2,-4(fp)
    43c4:	00000106 	br	43cc <validate+0x8c>

	return FR_OK;
    43c8:	e03fff15 	stw	zero,-4(fp)
    43cc:	e0bfff17 	ldw	r2,-4(fp)
}
    43d0:	e037883a 	mov	sp,fp
    43d4:	dfc00117 	ldw	ra,4(sp)
    43d8:	df000017 	ldw	fp,0(sp)
    43dc:	dec00204 	addi	sp,sp,8
    43e0:	f800283a 	ret

000043e4 <f_mount>:

FRESULT f_mount (
	BYTE vol,		/* Logical drive number to be mounted/unmounted */
	FATFS *fs		/* Pointer to new file system object (NULL for unmount)*/
)
{
    43e4:	defffb04 	addi	sp,sp,-20
    43e8:	df000415 	stw	fp,16(sp)
    43ec:	df000404 	addi	fp,sp,16
    43f0:	e17ffe15 	stw	r5,-8(fp)
    43f4:	e13ffd05 	stb	r4,-12(fp)
	FATFS *rfs;


	if (vol >= _VOLUMES)		/* Check if the drive number is valid */
    43f8:	e0bffd03 	ldbu	r2,-12(fp)
    43fc:	1005003a 	cmpeq	r2,r2,zero
    4400:	1000031e 	bne	r2,zero,4410 <f_mount+0x2c>
		return FR_INVALID_DRIVE;
    4404:	008002c4 	movi	r2,11
    4408:	e0bfff15 	stw	r2,-4(fp)
    440c:	00001906 	br	4474 <f_mount+0x90>
	rfs = FatFs[vol];			/* Get current fs object */
    4410:	e0bffd03 	ldbu	r2,-12(fp)
    4414:	1085883a 	add	r2,r2,r2
    4418:	1087883a 	add	r3,r2,r2
    441c:	d0a01304 	addi	r2,gp,-32692
    4420:	1885883a 	add	r2,r3,r2
    4424:	10800017 	ldw	r2,0(r2)
    4428:	e0bffc15 	stw	r2,-16(fp)

	if (rfs) {
    442c:	e0bffc17 	ldw	r2,-16(fp)
    4430:	1005003a 	cmpeq	r2,r2,zero
    4434:	1000021e 	bne	r2,zero,4440 <f_mount+0x5c>
		clear_lock(rfs);
#endif
#if _FS_REENTRANT				/* Discard sync object of the current volume */
		if (!ff_del_syncobj(rfs->sobj)) return FR_INT_ERR;
#endif
		rfs->fs_type = 0;		/* Clear old fs object */
    4438:	e0bffc17 	ldw	r2,-16(fp)
    443c:	10000005 	stb	zero,0(r2)
	}

	if (fs) {
    4440:	e0bffe17 	ldw	r2,-8(fp)
    4444:	1005003a 	cmpeq	r2,r2,zero
    4448:	1000021e 	bne	r2,zero,4454 <f_mount+0x70>
		fs->fs_type = 0;		/* Clear new fs object */
    444c:	e0bffe17 	ldw	r2,-8(fp)
    4450:	10000005 	stb	zero,0(r2)
#if _FS_REENTRANT				/* Create sync object for the new volume */
		if (!ff_cre_syncobj(vol, &fs->sobj)) return FR_INT_ERR;
#endif
	}
	FatFs[vol] = fs;			/* Register new fs object */
    4454:	e0bffd03 	ldbu	r2,-12(fp)
    4458:	1085883a 	add	r2,r2,r2
    445c:	1087883a 	add	r3,r2,r2
    4460:	d0a01304 	addi	r2,gp,-32692
    4464:	1887883a 	add	r3,r3,r2
    4468:	e0bffe17 	ldw	r2,-8(fp)
    446c:	18800015 	stw	r2,0(r3)

	return FR_OK;
    4470:	e03fff15 	stw	zero,-4(fp)
    4474:	e0bfff17 	ldw	r2,-4(fp)
}
    4478:	e037883a 	mov	sp,fp
    447c:	df000017 	ldw	fp,0(sp)
    4480:	dec00104 	addi	sp,sp,4
    4484:	f800283a 	ret

00004488 <f_open>:
FRESULT f_open (
	FIL *fp,			/* Pointer to the blank file object */
	const TCHAR *path,	/* Pointer to the file name */
	BYTE mode			/* Access mode and file open mode flags */
)
{
    4488:	deffeb04 	addi	sp,sp,-84
    448c:	dfc01415 	stw	ra,80(sp)
    4490:	df001315 	stw	fp,76(sp)
    4494:	df001304 	addi	fp,sp,76
    4498:	e13ffd15 	stw	r4,-12(fp)
    449c:	e17ffe15 	stw	r5,-8(fp)
    44a0:	e1bfff05 	stb	r6,-4(fp)
	DIR dj;
	BYTE *dir;
	DEF_NAMEBUF;


	fp->fs = 0;			/* Clear file object */
    44a4:	e0bffd17 	ldw	r2,-12(fp)
    44a8:	10000015 	stw	zero,0(r2)

#if !_FS_READONLY
	mode &= FA_READ | FA_WRITE | FA_CREATE_ALWAYS | FA_OPEN_ALWAYS | FA_CREATE_NEW;
    44ac:	e0bfff03 	ldbu	r2,-4(fp)
    44b0:	108007cc 	andi	r2,r2,31
    44b4:	e0bfff05 	stb	r2,-4(fp)
	res = chk_mounted(&path, &dj.fs, (BYTE)(mode & ~FA_READ));
    44b8:	e0bfff03 	ldbu	r2,-4(fp)
    44bc:	11803f8c 	andi	r6,r2,254
    44c0:	e13ffe04 	addi	r4,fp,-8
    44c4:	e17ff104 	addi	r5,fp,-60
    44c8:	00038280 	call	3828 <chk_mounted>
    44cc:	e0bff015 	stw	r2,-64(fp)
#else
	mode &= FA_READ;
	res = chk_mounted(&path, &dj.fs, 0);
#endif
	INIT_BUF(dj);
    44d0:	e0bffa04 	addi	r2,fp,-24
    44d4:	e0bff715 	stw	r2,-36(fp)
    44d8:	00800174 	movhi	r2,5
    44dc:	10abb704 	addi	r2,r2,-20772
    44e0:	e0bff815 	stw	r2,-32(fp)
	if (res == FR_OK)
    44e4:	e0bff017 	ldw	r2,-64(fp)
    44e8:	1004c03a 	cmpne	r2,r2,zero
    44ec:	1000041e 	bne	r2,zero,4500 <f_open+0x78>
		res = follow_path(&dj, path);	/* Follow the file path */
    44f0:	e17ffe17 	ldw	r5,-8(fp)
    44f4:	e13ff104 	addi	r4,fp,-60
    44f8:	00034840 	call	3484 <follow_path>
    44fc:	e0bff015 	stw	r2,-64(fp)
	dir = dj.dir;
    4500:	e0bff617 	ldw	r2,-40(fp)
    4504:	e0bfef15 	stw	r2,-68(fp)

#if !_FS_READONLY	/* R/W configuration */
	if (res == FR_OK) {
    4508:	e0bff017 	ldw	r2,-64(fp)
    450c:	1004c03a 	cmpne	r2,r2,zero
    4510:	1000051e 	bne	r2,zero,4528 <f_open+0xa0>
		if (!dir)	/* Current dir itself */
    4514:	e0bfef17 	ldw	r2,-68(fp)
    4518:	1004c03a 	cmpne	r2,r2,zero
    451c:	1000021e 	bne	r2,zero,4528 <f_open+0xa0>
			res = FR_INVALID_NAME;
    4520:	00800184 	movi	r2,6
    4524:	e0bff015 	stw	r2,-64(fp)
		else
			res = chk_lock(&dj, (mode & ~FA_READ) ? 1 : 0);
#endif
	}
	/* Create or Open a file */
	if (mode & (FA_CREATE_ALWAYS | FA_OPEN_ALWAYS | FA_CREATE_NEW)) {
    4528:	e0bfff03 	ldbu	r2,-4(fp)
    452c:	1080070c 	andi	r2,r2,28
    4530:	1005003a 	cmpeq	r2,r2,zero
    4534:	10008b1e 	bne	r2,zero,4764 <f_open+0x2dc>
		DWORD dw, cl;

		if (res != FR_OK) {					/* No file, create new */
    4538:	e0bff017 	ldw	r2,-64(fp)
    453c:	1005003a 	cmpeq	r2,r2,zero
    4540:	10000c1e 	bne	r2,zero,4574 <f_open+0xec>
			if (res == FR_NO_FILE)			/* There is no file to open, create a new entry */
    4544:	e0bff017 	ldw	r2,-64(fp)
    4548:	10800118 	cmpnei	r2,r2,4
    454c:	1000031e 	bne	r2,zero,455c <f_open+0xd4>
#if _FS_SHARE
				res = enq_lock() ? dir_register(&dj) : FR_TOO_MANY_OPEN_FILES;
#else
				res = dir_register(&dj);
    4550:	e13ff104 	addi	r4,fp,-60
    4554:	00024d00 	call	24d0 <dir_register>
    4558:	e0bff015 	stw	r2,-64(fp)
#endif
			mode |= FA_CREATE_ALWAYS;		/* File is created */
    455c:	e0bfff03 	ldbu	r2,-4(fp)
    4560:	10800214 	ori	r2,r2,8
    4564:	e0bfff05 	stb	r2,-4(fp)
			dir = dj.dir;					/* New entry */
    4568:	e0bff617 	ldw	r2,-40(fp)
    456c:	e0bfef15 	stw	r2,-68(fp)
    4570:	00001006 	br	45b4 <f_open+0x12c>
		}
		else {								/* Any object is already existing */
			if (dir[DIR_Attr] & (AM_RDO | AM_DIR)) {	/* Cannot overwrite it (R/O or DIR) */
    4574:	e0bfef17 	ldw	r2,-68(fp)
    4578:	108002c4 	addi	r2,r2,11
    457c:	10800003 	ldbu	r2,0(r2)
    4580:	10803fcc 	andi	r2,r2,255
    4584:	1080044c 	andi	r2,r2,17
    4588:	1005003a 	cmpeq	r2,r2,zero
    458c:	1000031e 	bne	r2,zero,459c <f_open+0x114>
				res = FR_DENIED;
    4590:	008001c4 	movi	r2,7
    4594:	e0bff015 	stw	r2,-64(fp)
    4598:	00000606 	br	45b4 <f_open+0x12c>
			} else {
				if (mode & FA_CREATE_NEW)	/* Cannot create as new file */
    459c:	e0bfff03 	ldbu	r2,-4(fp)
    45a0:	1080010c 	andi	r2,r2,4
    45a4:	1005003a 	cmpeq	r2,r2,zero
    45a8:	1000021e 	bne	r2,zero,45b4 <f_open+0x12c>
					res = FR_EXIST;
    45ac:	00800204 	movi	r2,8
    45b0:	e0bff015 	stw	r2,-64(fp)
			}
		}
		if (res == FR_OK && (mode & FA_CREATE_ALWAYS)) {	/* Truncate it if overwrite mode */
    45b4:	e0bff017 	ldw	r2,-64(fp)
    45b8:	1004c03a 	cmpne	r2,r2,zero
    45bc:	1000841e 	bne	r2,zero,47d0 <f_open+0x348>
    45c0:	e0bfff03 	ldbu	r2,-4(fp)
    45c4:	1080020c 	andi	r2,r2,8
    45c8:	1005003a 	cmpeq	r2,r2,zero
    45cc:	1000801e 	bne	r2,zero,47d0 <f_open+0x348>
			dw = get_fattime();					/* Created time */
    45d0:	0007e5c0 	call	7e5c <get_fattime>
    45d4:	e0bfee15 	stw	r2,-72(fp)
			ST_DWORD(dir+DIR_CrtTime, dw);
    45d8:	e0bfef17 	ldw	r2,-68(fp)
    45dc:	10c00384 	addi	r3,r2,14
    45e0:	e0bfee17 	ldw	r2,-72(fp)
    45e4:	18800005 	stb	r2,0(r3)
    45e8:	e0bfef17 	ldw	r2,-68(fp)
    45ec:	10c003c4 	addi	r3,r2,15
    45f0:	e0bfee17 	ldw	r2,-72(fp)
    45f4:	10bfffcc 	andi	r2,r2,65535
    45f8:	1004d23a 	srli	r2,r2,8
    45fc:	18800005 	stb	r2,0(r3)
    4600:	e0bfef17 	ldw	r2,-68(fp)
    4604:	10c00404 	addi	r3,r2,16
    4608:	e0bfee17 	ldw	r2,-72(fp)
    460c:	1004d43a 	srli	r2,r2,16
    4610:	18800005 	stb	r2,0(r3)
    4614:	e0bfef17 	ldw	r2,-68(fp)
    4618:	10c00444 	addi	r3,r2,17
    461c:	e0bfee17 	ldw	r2,-72(fp)
    4620:	1004d63a 	srli	r2,r2,24
    4624:	18800005 	stb	r2,0(r3)
			dir[DIR_Attr] = 0;					/* Reset attribute */
    4628:	e0bfef17 	ldw	r2,-68(fp)
    462c:	108002c4 	addi	r2,r2,11
    4630:	10000005 	stb	zero,0(r2)
			ST_DWORD(dir+DIR_FileSize, 0);		/* size = 0 */
    4634:	e0bfef17 	ldw	r2,-68(fp)
    4638:	10800704 	addi	r2,r2,28
    463c:	10000005 	stb	zero,0(r2)
    4640:	e0bfef17 	ldw	r2,-68(fp)
    4644:	10800744 	addi	r2,r2,29
    4648:	10000005 	stb	zero,0(r2)
    464c:	e0bfef17 	ldw	r2,-68(fp)
    4650:	10800784 	addi	r2,r2,30
    4654:	10000005 	stb	zero,0(r2)
    4658:	e0bfef17 	ldw	r2,-68(fp)
    465c:	108007c4 	addi	r2,r2,31
    4660:	10000005 	stb	zero,0(r2)
			cl = LD_CLUST(dir);					/* Get start cluster */
    4664:	e0bfef17 	ldw	r2,-68(fp)
    4668:	10800544 	addi	r2,r2,21
    466c:	10800003 	ldbu	r2,0(r2)
    4670:	10803fcc 	andi	r2,r2,255
    4674:	1004923a 	slli	r2,r2,8
    4678:	1007883a 	mov	r3,r2
    467c:	e0bfef17 	ldw	r2,-68(fp)
    4680:	10800504 	addi	r2,r2,20
    4684:	10800003 	ldbu	r2,0(r2)
    4688:	10803fcc 	andi	r2,r2,255
    468c:	1884b03a 	or	r2,r3,r2
    4690:	10bfffcc 	andi	r2,r2,65535
    4694:	1008943a 	slli	r4,r2,16
    4698:	e0bfef17 	ldw	r2,-68(fp)
    469c:	108006c4 	addi	r2,r2,27
    46a0:	10800003 	ldbu	r2,0(r2)
    46a4:	10803fcc 	andi	r2,r2,255
    46a8:	1004923a 	slli	r2,r2,8
    46ac:	1007883a 	mov	r3,r2
    46b0:	e0bfef17 	ldw	r2,-68(fp)
    46b4:	10800684 	addi	r2,r2,26
    46b8:	10800003 	ldbu	r2,0(r2)
    46bc:	10803fcc 	andi	r2,r2,255
    46c0:	1884b03a 	or	r2,r3,r2
    46c4:	10bfffcc 	andi	r2,r2,65535
    46c8:	2084b03a 	or	r2,r4,r2
    46cc:	e0bfed15 	stw	r2,-76(fp)
			ST_CLUST(dir, 0);					/* cluster = 0 */
    46d0:	e0bfef17 	ldw	r2,-68(fp)
    46d4:	10800684 	addi	r2,r2,26
    46d8:	10000005 	stb	zero,0(r2)
    46dc:	e0bfef17 	ldw	r2,-68(fp)
    46e0:	108006c4 	addi	r2,r2,27
    46e4:	10000005 	stb	zero,0(r2)
    46e8:	e0bfef17 	ldw	r2,-68(fp)
    46ec:	10800504 	addi	r2,r2,20
    46f0:	10000005 	stb	zero,0(r2)
    46f4:	e0bfef17 	ldw	r2,-68(fp)
    46f8:	10800544 	addi	r2,r2,21
    46fc:	10000005 	stb	zero,0(r2)
			dj.fs->wflag = 1;
    4700:	e0fff117 	ldw	r3,-60(fp)
    4704:	00800044 	movi	r2,1
    4708:	18800105 	stb	r2,4(r3)
			if (cl) {							/* Remove the cluster chain if exist */
    470c:	e0bfed17 	ldw	r2,-76(fp)
    4710:	1005003a 	cmpeq	r2,r2,zero
    4714:	10002e1e 	bne	r2,zero,47d0 <f_open+0x348>
				dw = dj.fs->winsect;
    4718:	e0bff117 	ldw	r2,-60(fp)
    471c:	10800b17 	ldw	r2,44(r2)
    4720:	e0bfee15 	stw	r2,-72(fp)
				res = remove_chain(dj.fs, cl);
    4724:	e13ff117 	ldw	r4,-60(fp)
    4728:	e17fed17 	ldw	r5,-76(fp)
    472c:	00010980 	call	1098 <remove_chain>
    4730:	e0bff015 	stw	r2,-64(fp)
				if (res == FR_OK) {
    4734:	e0bff017 	ldw	r2,-64(fp)
    4738:	1004c03a 	cmpne	r2,r2,zero
    473c:	1000241e 	bne	r2,zero,47d0 <f_open+0x348>
					dj.fs->last_clust = cl - 1;	/* Reuse the cluster hole */
    4740:	e0fff117 	ldw	r3,-60(fp)
    4744:	e0bfed17 	ldw	r2,-76(fp)
    4748:	10bfffc4 	addi	r2,r2,-1
    474c:	18800315 	stw	r2,12(r3)
					res = move_window(dj.fs, dw);
    4750:	e13ff117 	ldw	r4,-60(fp)
    4754:	e17fee17 	ldw	r5,-72(fp)
    4758:	00006040 	call	604 <move_window>
    475c:	e0bff015 	stw	r2,-64(fp)
    4760:	00001b06 	br	47d0 <f_open+0x348>
				}
			}
		}
	}
	else {	/* Open an existing file */
		if (res == FR_OK) {						/* Follow succeeded */
    4764:	e0bff017 	ldw	r2,-64(fp)
    4768:	1004c03a 	cmpne	r2,r2,zero
    476c:	1000181e 	bne	r2,zero,47d0 <f_open+0x348>
			if (dir[DIR_Attr] & AM_DIR) {		/* It is a directory */
    4770:	e0bfef17 	ldw	r2,-68(fp)
    4774:	108002c4 	addi	r2,r2,11
    4778:	10800003 	ldbu	r2,0(r2)
    477c:	10803fcc 	andi	r2,r2,255
    4780:	1080040c 	andi	r2,r2,16
    4784:	1005003a 	cmpeq	r2,r2,zero
    4788:	1000031e 	bne	r2,zero,4798 <f_open+0x310>
				res = FR_NO_FILE;
    478c:	00800104 	movi	r2,4
    4790:	e0bff015 	stw	r2,-64(fp)
    4794:	00000e06 	br	47d0 <f_open+0x348>
			} else {
				if ((mode & FA_WRITE) && (dir[DIR_Attr] & AM_RDO)) /* R/O violation */
    4798:	e0bfff03 	ldbu	r2,-4(fp)
    479c:	1080008c 	andi	r2,r2,2
    47a0:	1005003a 	cmpeq	r2,r2,zero
    47a4:	10000a1e 	bne	r2,zero,47d0 <f_open+0x348>
    47a8:	e0bfef17 	ldw	r2,-68(fp)
    47ac:	108002c4 	addi	r2,r2,11
    47b0:	10800003 	ldbu	r2,0(r2)
    47b4:	10803fcc 	andi	r2,r2,255
    47b8:	1080004c 	andi	r2,r2,1
    47bc:	10803fcc 	andi	r2,r2,255
    47c0:	1005003a 	cmpeq	r2,r2,zero
    47c4:	1000021e 	bne	r2,zero,47d0 <f_open+0x348>
					res = FR_DENIED;
    47c8:	008001c4 	movi	r2,7
    47cc:	e0bff015 	stw	r2,-64(fp)
			}
		}
	}
	if (res == FR_OK) {
    47d0:	e0bff017 	ldw	r2,-64(fp)
    47d4:	1004c03a 	cmpne	r2,r2,zero
    47d8:	10000e1e 	bne	r2,zero,4814 <f_open+0x38c>
		if (mode & FA_CREATE_ALWAYS)			/* Set file change flag if created or overwritten */
    47dc:	e0bfff03 	ldbu	r2,-4(fp)
    47e0:	1080020c 	andi	r2,r2,8
    47e4:	1005003a 	cmpeq	r2,r2,zero
    47e8:	1000031e 	bne	r2,zero,47f8 <f_open+0x370>
