Archive member included because of file (symbol)

c:/develop/altera/12.1sp1/nios2eds/bin/gnu/h-i686-mingw32/bin/../lib/gcc/nios2-elf/4.1.2/../../../../nios2-elf/lib\libc.a(lib_a-fclose.o)
                              obj/default/bmp_test.o (fclose)
c:/develop/altera/12.1sp1/nios2eds/bin/gnu/h-i686-mingw32/bin/../lib/gcc/nios2-elf/4.1.2/../../../../nios2-elf/lib\libc.a(lib_a-fflush.o)
                              c:/develop/altera/12.1sp1/nios2eds/bin/gnu/h-i686-mingw32/bin/../lib/gcc/nios2-elf/4.1.2/../../../../nios2-elf/lib\libc.a(lib_a-fclose.o) (_fflush_r)
c:/develop/altera/12.1sp1/nios2eds/bin/gnu/h-i686-mingw32/bin/../lib/gcc/nios2-elf/4.1.2/../../../../nios2-elf/lib\libc.a(lib_a-findfp.o)
                              c:/develop/altera/12.1sp1/nios2eds/bin/gnu/h-i686-mingw32/bin/../lib/gcc/nios2-elf/4.1.2/../../../../nios2-elf/lib\libc.a(lib_a-fclose.o) (__sfp_lock_acquire)
c:/develop/altera/12.1sp1/nios2eds/bin/gnu/h-i686-mingw32/bin/../lib/gcc/nios2-elf/4.1.2/../../../../nios2-elf/lib\libc.a(lib_a-fopen.o)
                              obj/default/bmp_test.o (fopen)
c:/develop/altera/12.1sp1/nios2eds/bin/gnu/h-i686-mingw32/bin/../lib/gcc/nios2-elf/4.1.2/../../../../nios2-elf/lib\libc.a(lib_a-fread.o)
                              obj/default/bmp_test.o (fread)
c:/develop/altera/12.1sp1/nios2eds/bin/gnu/h-i686-mingw32/bin/../lib/gcc/nios2-elf/4.1.2/../../../../nios2-elf/lib\libc.a(lib_a-freer.o)
                              c:/develop/altera/12.1sp1/nios2eds/bin/gnu/h-i686-mingw32/bin/../lib/gcc/nios2-elf/4.1.2/../../../../nios2-elf/lib\libc.a(lib_a-fclose.o) (_free_r)
c:/develop/altera/12.1sp1/nios2eds/bin/gnu/h-i686-mingw32/bin/../lib/gcc/nios2-elf/4.1.2/../../../../nios2-elf/lib\libc.a(lib_a-fseek.o)
                              c:/develop/altera/12.1sp1/nios2eds/bin/gnu/h-i686-mingw32/bin/../lib/gcc/nios2-elf/4.1.2/../../../../nios2-elf/lib\libc.a(lib_a-fopen.o) (_fseek_r)
c:/develop/altera/12.1sp1/nios2eds/bin/gnu/h-i686-mingw32/bin/../lib/gcc/nios2-elf/4.1.2/../../../../nios2-elf/lib\libc.a(lib_a-fstatr.o)
                              c:/develop/altera/12.1sp1/nios2eds/bin/gnu/h-i686-mingw32/bin/../lib/gcc/nios2-elf/4.1.2/../../../../nios2-elf/lib\libc.a(lib_a-fseek.o) (_fstat_r)
c:/develop/altera/12.1sp1/nios2eds/bin/gnu/h-i686-mingw32/bin/../lib/gcc/nios2-elf/4.1.2/../../../../nios2-elf/lib\libc.a(lib_a-fwalk.o)
                              c:/develop/altera/12.1sp1/nios2eds/bin/gnu/h-i686-mingw32/bin/../lib/gcc/nios2-elf/4.1.2/../../../../nios2-elf/lib\libc.a(lib_a-fflush.o) (_fwalk_reent)
c:/develop/altera/12.1sp1/nios2eds/bin/gnu/h-i686-mingw32/bin/../lib/gcc/nios2-elf/4.1.2/../../../../nios2-elf/lib\libc.a(lib_a-impure.o)
                              c:/develop/altera/12.1sp1/nios2eds/bin/gnu/h-i686-mingw32/bin/../lib/gcc/nios2-elf/4.1.2/../../../../nios2-elf/lib\libc.a(lib_a-fclose.o) (_impure_ptr)
c:/develop/altera/12.1sp1/nios2eds/bin/gnu/h-i686-mingw32/bin/../lib/gcc/nios2-elf/4.1.2/../../../../nios2-elf/lib\libc.a(lib_a-int_errno.o)
                              c:/develop/altera/12.1sp1/nios2eds/bin/gnu/h-i686-mingw32/bin/../lib/gcc/nios2-elf/4.1.2/../../../../nios2-elf/lib\libc.a(lib_a-fstatr.o) (errno)
c:/develop/altera/12.1sp1/nios2eds/bin/gnu/h-i686-mingw32/bin/../lib/gcc/nios2-elf/4.1.2/../../../../nios2-elf/lib\libc.a(lib_a-makebuf.o)
                              c:/develop/altera/12.1sp1/nios2eds/bin/gnu/h-i686-mingw32/bin/../lib/gcc/nios2-elf/4.1.2/../../../../nios2-elf/lib\libc.a(lib_a-fseek.o) (__smakebuf_r)
c:/develop/altera/12.1sp1/nios2eds/bin/gnu/h-i686-mingw32/bin/../lib/gcc/nios2-elf/4.1.2/../../../../nios2-elf/lib\libc.a(lib_a-malloc.o)
                              obj/default/bmp_test.o (free)
c:/develop/altera/12.1sp1/nios2eds/bin/gnu/h-i686-mingw32/bin/../lib/gcc/nios2-elf/4.1.2/../../../../nios2-elf/lib\libc.a(lib_a-mallocr.o)
                              c:/develop/altera/12.1sp1/nios2eds/bin/gnu/h-i686-mingw32/bin/../lib/gcc/nios2-elf/4.1.2/../../../../nios2-elf/lib\libc.a(lib_a-findfp.o) (_malloc_r)
c:/develop/altera/12.1sp1/nios2eds/bin/gnu/h-i686-mingw32/bin/../lib/gcc/nios2-elf/4.1.2/../../../../nios2-elf/lib\libc.a(lib_a-memcpy.o)
                              obj/default/mmcfs/mmcfs.o (memcpy)
c:/develop/altera/12.1sp1/nios2eds/bin/gnu/h-i686-mingw32/bin/../lib/gcc/nios2-elf/4.1.2/../../../../nios2-elf/lib\libc.a(lib_a-memset.o)
                              obj/default/mmcfs/mmcfs.o (memset)
c:/develop/altera/12.1sp1/nios2eds/bin/gnu/h-i686-mingw32/bin/../lib/gcc/nios2-elf/4.1.2/../../../../nios2-elf/lib\libc.a(lib_a-openr.o)
                              c:/develop/altera/12.1sp1/nios2eds/bin/gnu/h-i686-mingw32/bin/../lib/gcc/nios2-elf/4.1.2/../../../../nios2-elf/lib\libc.a(lib_a-fopen.o) (_open_r)
c:/develop/altera/12.1sp1/nios2eds/bin/gnu/h-i686-mingw32/bin/../lib/gcc/nios2-elf/4.1.2/../../../../nios2-elf/lib\libc.a(lib_a-printf.o)
                              obj/default/bmp_test.o (printf)
c:/develop/altera/12.1sp1/nios2eds/bin/gnu/h-i686-mingw32/bin/../lib/gcc/nios2-elf/4.1.2/../../../../nios2-elf/lib\libc.a(lib_a-puts.o)
                              obj/default/bmp_test.o (puts)
c:/develop/altera/12.1sp1/nios2eds/bin/gnu/h-i686-mingw32/bin/../lib/gcc/nios2-elf/4.1.2/../../../../nios2-elf/lib\libc.a(lib_a-refill.o)
                              c:/develop/altera/12.1sp1/nios2eds/bin/gnu/h-i686-mingw32/bin/../lib/gcc/nios2-elf/4.1.2/../../../../nios2-elf/lib\libc.a(lib_a-fread.o) (__srefill_r)
c:/develop/altera/12.1sp1/nios2eds/bin/gnu/h-i686-mingw32/bin/../lib/gcc/nios2-elf/4.1.2/../../../../nios2-elf/lib\libc.a(lib_a-sbrkr.o)
                              c:/develop/altera/12.1sp1/nios2eds/bin/gnu/h-i686-mingw32/bin/../lib/gcc/nios2-elf/4.1.2/../../../../nios2-elf/lib\libc.a(lib_a-freer.o) (_sbrk_r)
c:/develop/altera/12.1sp1/nios2eds/bin/gnu/h-i686-mingw32/bin/../lib/gcc/nios2-elf/4.1.2/../../../../nios2-elf/lib\libc.a(lib_a-stdio.o)
                              c:/develop/altera/12.1sp1/nios2eds/bin/gnu/h-i686-mingw32/bin/../lib/gcc/nios2-elf/4.1.2/../../../../nios2-elf/lib\libc.a(lib_a-findfp.o) (__sclose)
c:/develop/altera/12.1sp1/nios2eds/bin/gnu/h-i686-mingw32/bin/../lib/gcc/nios2-elf/4.1.2/../../../../nios2-elf/lib\libc.a(lib_a-strlen.o)
                              obj/default/mmcfs/mmcfs.o (strlen)
c:/develop/altera/12.1sp1/nios2eds/bin/gnu/h-i686-mingw32/bin/../lib/gcc/nios2-elf/4.1.2/../../../../nios2-elf/lib\libc.a(lib_a-vfprintf.o)
                              c:/develop/altera/12.1sp1/nios2eds/bin/gnu/h-i686-mingw32/bin/../lib/gcc/nios2-elf/4.1.2/../../../../nios2-elf/lib\libc.a(lib_a-printf.o) (___vfprintf_internal_r)
c:/develop/altera/12.1sp1/nios2eds/bin/gnu/h-i686-mingw32/bin/../lib/gcc/nios2-elf/4.1.2/../../../../nios2-elf/lib\libc.a(lib_a-writer.o)
                              c:/develop/altera/12.1sp1/nios2eds/bin/gnu/h-i686-mingw32/bin/../lib/gcc/nios2-elf/4.1.2/../../../../nios2-elf/lib\libc.a(lib_a-stdio.o) (_write_r)
c:/develop/altera/12.1sp1/nios2eds/bin/gnu/h-i686-mingw32/bin/../lib/gcc/nios2-elf/4.1.2/../../../../nios2-elf/lib\libc.a(lib_a-wsetup.o)
                              c:/develop/altera/12.1sp1/nios2eds/bin/gnu/h-i686-mingw32/bin/../lib/gcc/nios2-elf/4.1.2/../../../../nios2-elf/lib\libc.a(lib_a-vfprintf.o) (__swsetup_r)
c:/develop/altera/12.1sp1/nios2eds/bin/gnu/h-i686-mingw32/bin/../lib/gcc/nios2-elf/4.1.2/../../../../nios2-elf/lib\libc.a(lib_a-closer.o)
                              c:/develop/altera/12.1sp1/nios2eds/bin/gnu/h-i686-mingw32/bin/../lib/gcc/nios2-elf/4.1.2/../../../../nios2-elf/lib\libc.a(lib_a-stdio.o) (_close_r)
c:/develop/altera/12.1sp1/nios2eds/bin/gnu/h-i686-mingw32/bin/../lib/gcc/nios2-elf/4.1.2/../../../../nios2-elf/lib\libc.a(lib_a-dtoa.o)
                              c:/develop/altera/12.1sp1/nios2eds/bin/gnu/h-i686-mingw32/bin/../lib/gcc/nios2-elf/4.1.2/../../../../nios2-elf/lib\libc.a(lib_a-vfprintf.o) (_dtoa_r)
c:/develop/altera/12.1sp1/nios2eds/bin/gnu/h-i686-mingw32/bin/../lib/gcc/nios2-elf/4.1.2/../../../../nios2-elf/lib\libc.a(lib_a-flags.o)
                              c:/develop/altera/12.1sp1/nios2eds/bin/gnu/h-i686-mingw32/bin/../lib/gcc/nios2-elf/4.1.2/../../../../nios2-elf/lib\libc.a(lib_a-fopen.o) (__sflags)
c:/develop/altera/12.1sp1/nios2eds/bin/gnu/h-i686-mingw32/bin/../lib/gcc/nios2-elf/4.1.2/../../../../nios2-elf/lib\libc.a(lib_a-fvwrite.o)
                              c:/develop/altera/12.1sp1/nios2eds/bin/gnu/h-i686-mingw32/bin/../lib/gcc/nios2-elf/4.1.2/../../../../nios2-elf/lib\libc.a(lib_a-puts.o) (__sfvwrite_r)
c:/develop/altera/12.1sp1/nios2eds/bin/gnu/h-i686-mingw32/bin/../lib/gcc/nios2-elf/4.1.2/../../../../nios2-elf/lib\libc.a(lib_a-isattyr.o)
                              c:/develop/altera/12.1sp1/nios2eds/bin/gnu/h-i686-mingw32/bin/../lib/gcc/nios2-elf/4.1.2/../../../../nios2-elf/lib\libc.a(lib_a-makebuf.o) (_isatty_r)
c:/develop/altera/12.1sp1/nios2eds/bin/gnu/h-i686-mingw32/bin/../lib/gcc/nios2-elf/4.1.2/../../../../nios2-elf/lib\libc.a(lib_a-locale.o)
                              c:/develop/altera/12.1sp1/nios2eds/bin/gnu/h-i686-mingw32/bin/../lib/gcc/nios2-elf/4.1.2/../../../../nios2-elf/lib\libc.a(lib_a-vfprintf.o) (_localeconv_r)
c:/develop/altera/12.1sp1/nios2eds/bin/gnu/h-i686-mingw32/bin/../lib/gcc/nios2-elf/4.1.2/../../../../nios2-elf/lib\libc.a(lib_a-lseekr.o)
                              c:/develop/altera/12.1sp1/nios2eds/bin/gnu/h-i686-mingw32/bin/../lib/gcc/nios2-elf/4.1.2/../../../../nios2-elf/lib\libc.a(lib_a-stdio.o) (_lseek_r)
c:/develop/altera/12.1sp1/nios2eds/bin/gnu/h-i686-mingw32/bin/../lib/gcc/nios2-elf/4.1.2/../../../../nios2-elf/lib\libc.a(lib_a-memchr.o)
                              c:/develop/altera/12.1sp1/nios2eds/bin/gnu/h-i686-mingw32/bin/../lib/gcc/nios2-elf/4.1.2/../../../../nios2-elf/lib\libc.a(lib_a-vfprintf.o) (memchr)
c:/develop/altera/12.1sp1/nios2eds/bin/gnu/h-i686-mingw32/bin/../lib/gcc/nios2-elf/4.1.2/../../../../nios2-elf/lib\libc.a(lib_a-memmove.o)
                              c:/develop/altera/12.1sp1/nios2eds/bin/gnu/h-i686-mingw32/bin/../lib/gcc/nios2-elf/4.1.2/../../../../nios2-elf/lib\libc.a(lib_a-fvwrite.o) (memmove)
c:/develop/altera/12.1sp1/nios2eds/bin/gnu/h-i686-mingw32/bin/../lib/gcc/nios2-elf/4.1.2/../../../../nios2-elf/lib\libc.a(lib_a-mprec.o)
                              c:/develop/altera/12.1sp1/nios2eds/bin/gnu/h-i686-mingw32/bin/../lib/gcc/nios2-elf/4.1.2/../../../../nios2-elf/lib\libc.a(lib_a-dtoa.o) (_Bfree)
c:/develop/altera/12.1sp1/nios2eds/bin/gnu/h-i686-mingw32/bin/../lib/gcc/nios2-elf/4.1.2/../../../../nios2-elf/lib\libc.a(lib_a-readr.o)
                              c:/develop/altera/12.1sp1/nios2eds/bin/gnu/h-i686-mingw32/bin/../lib/gcc/nios2-elf/4.1.2/../../../../nios2-elf/lib\libc.a(lib_a-stdio.o) (_read_r)
c:/develop/altera/12.1sp1/nios2eds/bin/gnu/h-i686-mingw32/bin/../lib/gcc/nios2-elf/4.1.2/../../../../nios2-elf/lib\libc.a(lib_a-reallocr.o)
                              c:/develop/altera/12.1sp1/nios2eds/bin/gnu/h-i686-mingw32/bin/../lib/gcc/nios2-elf/4.1.2/../../../../nios2-elf/lib\libc.a(lib_a-fvwrite.o) (_realloc_r)
c:/develop/altera/12.1sp1/nios2eds/bin/gnu/h-i686-mingw32/bin/../lib/gcc/nios2-elf/4.1.2/../../../../nios2-elf/lib\libc.a(lib_a-s_isinfd.o)
                              c:/develop/altera/12.1sp1/nios2eds/bin/gnu/h-i686-mingw32/bin/../lib/gcc/nios2-elf/4.1.2/../../../../nios2-elf/lib\libc.a(lib_a-vfprintf.o) (__isinfd)
c:/develop/altera/12.1sp1/nios2eds/bin/gnu/h-i686-mingw32/bin/../lib/gcc/nios2-elf/4.1.2/../../../../nios2-elf/lib\libc.a(lib_a-s_isnand.o)
                              c:/develop/altera/12.1sp1/nios2eds/bin/gnu/h-i686-mingw32/bin/../lib/gcc/nios2-elf/4.1.2/../../../../nios2-elf/lib\libc.a(lib_a-vfprintf.o) (__isnand)
c:/develop/altera/12.1sp1/nios2eds/bin/gnu/h-i686-mingw32/bin/../lib/gcc/nios2-elf/4.1.2/../../../../nios2-elf/lib\libc.a(lib_a-strcmp.o)
                              c:/develop/altera/12.1sp1/nios2eds/bin/gnu/h-i686-mingw32/bin/../lib/gcc/nios2-elf/4.1.2/../../../../nios2-elf/lib\libc.a(lib_a-locale.o) (strcmp)
c:/develop/altera/12.1sp1/nios2eds/bin/gnu/h-i686-mingw32/bin/../lib/gcc/nios2-elf/4.1.2/../../../../nios2-elf/lib\libc.a(lib_a-callocr.o)
                              c:/develop/altera/12.1sp1/nios2eds/bin/gnu/h-i686-mingw32/bin/../lib/gcc/nios2-elf/4.1.2/../../../../nios2-elf/lib\libc.a(lib_a-mprec.o) (_calloc_r)
c:/develop/altera/12.1sp1/nios2eds/bin/gnu/h-i686-mingw32/bin/../lib/gcc/nios2-elf/4.1.2\libgcc.a(_udivdi3.o)
                              c:/develop/altera/12.1sp1/nios2eds/bin/gnu/h-i686-mingw32/bin/../lib/gcc/nios2-elf/4.1.2/../../../../nios2-elf/lib\libc.a(lib_a-vfprintf.o) (__udivdi3)
c:/develop/altera/12.1sp1/nios2eds/bin/gnu/h-i686-mingw32/bin/../lib/gcc/nios2-elf/4.1.2\libgcc.a(_umoddi3.o)
                              c:/develop/altera/12.1sp1/nios2eds/bin/gnu/h-i686-mingw32/bin/../lib/gcc/nios2-elf/4.1.2/../../../../nios2-elf/lib\libc.a(lib_a-vfprintf.o) (__umoddi3)
c:/develop/altera/12.1sp1/nios2eds/bin/gnu/h-i686-mingw32/bin/../lib/gcc/nios2-elf/4.1.2\libgcc.a(_addsub_df.o)
                              c:/develop/altera/12.1sp1/nios2eds/bin/gnu/h-i686-mingw32/bin/../lib/gcc/nios2-elf/4.1.2/../../../../nios2-elf/lib\libc.a(lib_a-dtoa.o) (__subdf3)
c:/develop/altera/12.1sp1/nios2eds/bin/gnu/h-i686-mingw32/bin/../lib/gcc/nios2-elf/4.1.2\libgcc.a(_mul_df.o)
                              c:/develop/altera/12.1sp1/nios2eds/bin/gnu/h-i686-mingw32/bin/../lib/gcc/nios2-elf/4.1.2/../../../../nios2-elf/lib\libc.a(lib_a-dtoa.o) (__muldf3)
c:/develop/altera/12.1sp1/nios2eds/bin/gnu/h-i686-mingw32/bin/../lib/gcc/nios2-elf/4.1.2\libgcc.a(_div_df.o)
                              c:/develop/altera/12.1sp1/nios2eds/bin/gnu/h-i686-mingw32/bin/../lib/gcc/nios2-elf/4.1.2/../../../../nios2-elf/lib\libc.a(lib_a-dtoa.o) (__divdf3)
c:/develop/altera/12.1sp1/nios2eds/bin/gnu/h-i686-mingw32/bin/../lib/gcc/nios2-elf/4.1.2\libgcc.a(_eq_df.o)
                              c:/develop/altera/12.1sp1/nios2eds/bin/gnu/h-i686-mingw32/bin/../lib/gcc/nios2-elf/4.1.2/../../../../nios2-elf/lib\libc.a(lib_a-vfprintf.o) (__eqdf2)
c:/develop/altera/12.1sp1/nios2eds/bin/gnu/h-i686-mingw32/bin/../lib/gcc/nios2-elf/4.1.2\libgcc.a(_ne_df.o)
                              c:/develop/altera/12.1sp1/nios2eds/bin/gnu/h-i686-mingw32/bin/../lib/gcc/nios2-elf/4.1.2/../../../../nios2-elf/lib\libc.a(lib_a-vfprintf.o) (__nedf2)
c:/develop/altera/12.1sp1/nios2eds/bin/gnu/h-i686-mingw32/bin/../lib/gcc/nios2-elf/4.1.2\libgcc.a(_gt_df.o)
                              c:/develop/altera/12.1sp1/nios2eds/bin/gnu/h-i686-mingw32/bin/../lib/gcc/nios2-elf/4.1.2/../../../../nios2-elf/lib\libc.a(lib_a-dtoa.o) (__gtdf2)
c:/develop/altera/12.1sp1/nios2eds/bin/gnu/h-i686-mingw32/bin/../lib/gcc/nios2-elf/4.1.2\libgcc.a(_ge_df.o)
                              c:/develop/altera/12.1sp1/nios2eds/bin/gnu/h-i686-mingw32/bin/../lib/gcc/nios2-elf/4.1.2/../../../../nios2-elf/lib\libc.a(lib_a-dtoa.o) (__gedf2)
c:/develop/altera/12.1sp1/nios2eds/bin/gnu/h-i686-mingw32/bin/../lib/gcc/nios2-elf/4.1.2\libgcc.a(_lt_df.o)
                              c:/develop/altera/12.1sp1/nios2eds/bin/gnu/h-i686-mingw32/bin/../lib/gcc/nios2-elf/4.1.2/../../../../nios2-elf/lib\libc.a(lib_a-vfprintf.o) (__ltdf2)
c:/develop/altera/12.1sp1/nios2eds/bin/gnu/h-i686-mingw32/bin/../lib/gcc/nios2-elf/4.1.2\libgcc.a(_si_to_df.o)
                              c:/develop/altera/12.1sp1/nios2eds/bin/gnu/h-i686-mingw32/bin/../lib/gcc/nios2-elf/4.1.2/../../../../nios2-elf/lib\libc.a(lib_a-dtoa.o) (__floatsidf)
c:/develop/altera/12.1sp1/nios2eds/bin/gnu/h-i686-mingw32/bin/../lib/gcc/nios2-elf/4.1.2\libgcc.a(_df_to_si.o)
                              c:/develop/altera/12.1sp1/nios2eds/bin/gnu/h-i686-mingw32/bin/../lib/gcc/nios2-elf/4.1.2/../../../../nios2-elf/lib\libc.a(lib_a-dtoa.o) (__fixdfsi)
c:/develop/altera/12.1sp1/nios2eds/bin/gnu/h-i686-mingw32/bin/../lib/gcc/nios2-elf/4.1.2\libgcc.a(_thenan_df.o)
                              c:/develop/altera/12.1sp1/nios2eds/bin/gnu/h-i686-mingw32/bin/../lib/gcc/nios2-elf/4.1.2\libgcc.a(_addsub_df.o) (__thenan_df)
c:/develop/altera/12.1sp1/nios2eds/bin/gnu/h-i686-mingw32/bin/../lib/gcc/nios2-elf/4.1.2\libgcc.a(_usi_to_df.o)
                              c:/develop/altera/12.1sp1/nios2eds/bin/gnu/h-i686-mingw32/bin/../lib/gcc/nios2-elf/4.1.2/../../../../nios2-elf/lib\libc.a(lib_a-dtoa.o) (__floatunsidf)
c:/develop/altera/12.1sp1/nios2eds/bin/gnu/h-i686-mingw32/bin/../lib/gcc/nios2-elf/4.1.2\libgcc.a(lib2-divmod.o)
                              c:/develop/altera/12.1sp1/nios2eds/bin/gnu/h-i686-mingw32/bin/../lib/gcc/nios2-elf/4.1.2/../../../../nios2-elf/lib\libc.a(lib_a-vfprintf.o) (__divsi3)
c:/develop/altera/12.1sp1/nios2eds/bin/gnu/h-i686-mingw32/bin/../lib/gcc/nios2-elf/4.1.2\libgcc.a(_muldi3.o)
                              c:/develop/altera/12.1sp1/nios2eds/bin/gnu/h-i686-mingw32/bin/../lib/gcc/nios2-elf/4.1.2\libgcc.a(_mul_df.o) (__muldi3)
c:/develop/altera/12.1sp1/nios2eds/bin/gnu/h-i686-mingw32/bin/../lib/gcc/nios2-elf/4.1.2\libgcc.a(_clz.o)
                              c:/develop/altera/12.1sp1/nios2eds/bin/gnu/h-i686-mingw32/bin/../lib/gcc/nios2-elf/4.1.2\libgcc.a(_udivdi3.o) (__clz_tab)
c:/develop/altera/12.1sp1/nios2eds/bin/gnu/h-i686-mingw32/bin/../lib/gcc/nios2-elf/4.1.2\libgcc.a(_clzsi2.o)
                              c:/develop/altera/12.1sp1/nios2eds/bin/gnu/h-i686-mingw32/bin/../lib/gcc/nios2-elf/4.1.2\libgcc.a(_si_to_df.o) (__clzsi2)
c:/develop/altera/12.1sp1/nios2eds/bin/gnu/h-i686-mingw32/bin/../lib/gcc/nios2-elf/4.1.2\libgcc.a(_pack_df.o)
                              c:/develop/altera/12.1sp1/nios2eds/bin/gnu/h-i686-mingw32/bin/../lib/gcc/nios2-elf/4.1.2\libgcc.a(_addsub_df.o) (__pack_d)
c:/develop/altera/12.1sp1/nios2eds/bin/gnu/h-i686-mingw32/bin/../lib/gcc/nios2-elf/4.1.2\libgcc.a(_unpack_df.o)
                              c:/develop/altera/12.1sp1/nios2eds/bin/gnu/h-i686-mingw32/bin/../lib/gcc/nios2-elf/4.1.2\libgcc.a(_addsub_df.o) (__unpack_d)
c:/develop/altera/12.1sp1/nios2eds/bin/gnu/h-i686-mingw32/bin/../lib/gcc/nios2-elf/4.1.2\libgcc.a(_fpcmp_parts_df.o)
                              c:/develop/altera/12.1sp1/nios2eds/bin/gnu/h-i686-mingw32/bin/../lib/gcc/nios2-elf/4.1.2\libgcc.a(_eq_df.o) (__fpcmp_parts_d)
../bmp_test_bsp/\libhal_bsp.a(alt_close.o)
                              c:/develop/altera/12.1sp1/nios2eds/bin/gnu/h-i686-mingw32/bin/../lib/gcc/nios2-elf/4.1.2/../../../../nios2-elf/lib\libc.a(lib_a-closer.o) (close)
../bmp_test_bsp/\libhal_bsp.a(alt_dcache_flush.o)
                              obj/default/bmp_test.o (alt_dcache_flush)
../bmp_test_bsp/\libhal_bsp.a(alt_dev.o)
                              ../bmp_test_bsp/\libhal_bsp.a(alt_close.o) (alt_fd_list)
../bmp_test_bsp/\libhal_bsp.a(alt_errno.o)
                              ../bmp_test_bsp/\libhal_bsp.a(alt_close.o) (alt_errno)
../bmp_test_bsp/\libhal_bsp.a(alt_fs_reg.o)
                              obj/default/mmcfs/mmcfs.o (alt_fs_reg)
../bmp_test_bsp/\libhal_bsp.a(alt_fstat.o)
                              c:/develop/altera/12.1sp1/nios2eds/bin/gnu/h-i686-mingw32/bin/../lib/gcc/nios2-elf/4.1.2/../../../../nios2-elf/lib\libc.a(lib_a-fstatr.o) (fstat)
../bmp_test_bsp/\libhal_bsp.a(alt_isatty.o)
                              c:/develop/altera/12.1sp1/nios2eds/bin/gnu/h-i686-mingw32/bin/../lib/gcc/nios2-elf/4.1.2/../../../../nios2-elf/lib\libc.a(lib_a-isattyr.o) (isatty)
../bmp_test_bsp/\libhal_bsp.a(alt_lseek.o)
                              c:/develop/altera/12.1sp1/nios2eds/bin/gnu/h-i686-mingw32/bin/../lib/gcc/nios2-elf/4.1.2/../../../../nios2-elf/lib\libc.a(lib_a-lseekr.o) (lseek)
../bmp_test_bsp/\libhal_bsp.a(alt_main.o)
                              ../bmp_test_bsp//obj/HAL/src/crt0.o (alt_main)
../bmp_test_bsp/\libhal_bsp.a(alt_malloc_lock.o)
                              c:/develop/altera/12.1sp1/nios2eds/bin/gnu/h-i686-mingw32/bin/../lib/gcc/nios2-elf/4.1.2/../../../../nios2-elf/lib\libc.a(lib_a-freer.o) (__malloc_lock)
../bmp_test_bsp/\libhal_bsp.a(alt_open.o)
                              c:/develop/altera/12.1sp1/nios2eds/bin/gnu/h-i686-mingw32/bin/../lib/gcc/nios2-elf/4.1.2/../../../../nios2-elf/lib\libc.a(lib_a-openr.o) (open)
../bmp_test_bsp/\libhal_bsp.a(alt_read.o)
                              c:/develop/altera/12.1sp1/nios2eds/bin/gnu/h-i686-mingw32/bin/../lib/gcc/nios2-elf/4.1.2/../../../../nios2-elf/lib\libc.a(lib_a-readr.o) (read)
../bmp_test_bsp/\libhal_bsp.a(alt_release_fd.o)
                              ../bmp_test_bsp/\libhal_bsp.a(alt_close.o) (alt_release_fd)
../bmp_test_bsp/\libhal_bsp.a(alt_sbrk.o)
                              c:/develop/altera/12.1sp1/nios2eds/bin/gnu/h-i686-mingw32/bin/../lib/gcc/nios2-elf/4.1.2/../../../../nios2-elf/lib\libc.a(lib_a-sbrkr.o) (sbrk)
../bmp_test_bsp/\libhal_bsp.a(alt_usleep.o)
                              obj/default/bmp_test.o (usleep)
../bmp_test_bsp/\libhal_bsp.a(alt_write.o)
                              c:/develop/altera/12.1sp1/nios2eds/bin/gnu/h-i686-mingw32/bin/../lib/gcc/nios2-elf/4.1.2/../../../../nios2-elf/lib\libc.a(lib_a-writer.o) (write)
../bmp_test_bsp/\libhal_bsp.a(alt_sys_init.o)
                              ../bmp_test_bsp/\libhal_bsp.a(alt_main.o) (alt_irq_init)
../bmp_test_bsp/\libhal_bsp.a(altera_avalon_cfi_flash.o)
                              ../bmp_test_bsp/\libhal_bsp.a(alt_sys_init.o) (alt_flash_cfi_get_info)
../bmp_test_bsp/\libhal_bsp.a(altera_avalon_cfi_flash_table.o)
                              ../bmp_test_bsp/\libhal_bsp.a(altera_avalon_cfi_flash.o) (alt_set_flash_width_func)
../bmp_test_bsp/\libhal_bsp.a(altera_avalon_jtag_uart_fd.o)
                              ../bmp_test_bsp/\libhal_bsp.a(alt_sys_init.o) (altera_avalon_jtag_uart_ioctl_fd)
../bmp_test_bsp/\libhal_bsp.a(altera_avalon_jtag_uart_init.o)
                              ../bmp_test_bsp/\libhal_bsp.a(altera_avalon_jtag_uart_fd.o) (altera_avalon_jtag_uart_close)
../bmp_test_bsp/\libhal_bsp.a(altera_avalon_jtag_uart_ioctl.o)
                              ../bmp_test_bsp/\libhal_bsp.a(altera_avalon_jtag_uart_fd.o) (altera_avalon_jtag_uart_ioctl)
../bmp_test_bsp/\libhal_bsp.a(altera_avalon_jtag_uart_read.o)
                              ../bmp_test_bsp/\libhal_bsp.a(altera_avalon_jtag_uart_fd.o) (altera_avalon_jtag_uart_read)
../bmp_test_bsp/\libhal_bsp.a(altera_avalon_jtag_uart_write.o)
                              ../bmp_test_bsp/\libhal_bsp.a(altera_avalon_jtag_uart_fd.o) (altera_avalon_jtag_uart_write)
../bmp_test_bsp/\libhal_bsp.a(altera_avalon_timer_sc.o)
                              ../bmp_test_bsp/\libhal_bsp.a(alt_sys_init.o) (alt_avalon_timer_sc_init)
../bmp_test_bsp/\libhal_bsp.a(altera_avalon_uart_fd.o)
                              ../bmp_test_bsp/\libhal_bsp.a(alt_sys_init.o) (altera_avalon_uart_close_fd)
../bmp_test_bsp/\libhal_bsp.a(altera_avalon_uart_init.o)
                              ../bmp_test_bsp/\libhal_bsp.a(altera_avalon_uart_fd.o) (altera_avalon_uart_close)
../bmp_test_bsp/\libhal_bsp.a(altera_avalon_uart_read.o)
                              ../bmp_test_bsp/\libhal_bsp.a(altera_avalon_uart_fd.o) (altera_avalon_uart_read)
../bmp_test_bsp/\libhal_bsp.a(altera_avalon_uart_write.o)
                              ../bmp_test_bsp/\libhal_bsp.a(altera_avalon_uart_fd.o) (altera_avalon_uart_write)
../bmp_test_bsp/\libhal_bsp.a(alt_alarm_start.o)
                              ../bmp_test_bsp/\libhal_bsp.a(altera_avalon_jtag_uart_init.o) (alt_alarm_start)
../bmp_test_bsp/\libhal_bsp.a(alt_busy_sleep.o)
                              ../bmp_test_bsp/\libhal_bsp.a(alt_usleep.o) (alt_busy_sleep)
../bmp_test_bsp/\libhal_bsp.a(alt_dev_llist_insert.o)
                              ../bmp_test_bsp/\libhal_bsp.a(alt_sys_init.o) (alt_dev_llist_insert)
../bmp_test_bsp/\libhal_bsp.a(alt_do_ctors.o)
                              ../bmp_test_bsp/\libhal_bsp.a(alt_main.o) (_do_ctors)
../bmp_test_bsp/\libhal_bsp.a(alt_do_dtors.o)
                              ../bmp_test_bsp/\libhal_bsp.a(alt_main.o) (_do_dtors)
../bmp_test_bsp/\libhal_bsp.a(alt_find_dev.o)
                              ../bmp_test_bsp/\libhal_bsp.a(alt_open.o) (alt_find_dev)
../bmp_test_bsp/\libhal_bsp.a(alt_find_file.o)
                              ../bmp_test_bsp/\libhal_bsp.a(alt_open.o) (alt_find_file)
../bmp_test_bsp/\libhal_bsp.a(alt_flash_dev.o)
                              ../bmp_test_bsp/\libhal_bsp.a(altera_avalon_cfi_flash.o) (alt_flash_dev_list)
../bmp_test_bsp/\libhal_bsp.a(alt_get_fd.o)
                              ../bmp_test_bsp/\libhal_bsp.a(alt_open.o) (alt_get_fd)
../bmp_test_bsp/\libhal_bsp.a(alt_iic.o)
                              ../bmp_test_bsp/\libhal_bsp.a(altera_avalon_jtag_uart_init.o) (alt_ic_isr_register)
../bmp_test_bsp/\libhal_bsp.a(alt_iic_isr_register.o)
                              ../bmp_test_bsp/\libhal_bsp.a(alt_iic.o) (alt_iic_isr_register)
../bmp_test_bsp/\libhal_bsp.a(alt_io_redirect.o)
                              ../bmp_test_bsp/\libhal_bsp.a(alt_main.o) (alt_io_redirect)
../bmp_test_bsp/\libhal_bsp.a(alt_irq_entry.o)
                              ../bmp_test_bsp/\libhal_bsp.a(alt_iic_isr_register.o) (alt_irq_entry)
../bmp_test_bsp/\libhal_bsp.a(alt_irq_handler.o)
                              ../bmp_test_bsp/\libhal_bsp.a(alt_iic_isr_register.o) (alt_irq_handler)
../bmp_test_bsp/\libhal_bsp.a(alt_irq_vars.o)
                              ../bmp_test_bsp/\libhal_bsp.a(alt_iic.o) (alt_irq_active)
../bmp_test_bsp/\libhal_bsp.a(alt_tick.o)
                              ../bmp_test_bsp/\libhal_bsp.a(altera_avalon_timer_sc.o) (alt_tick)
../bmp_test_bsp/\libhal_bsp.a(altera_nios2_irq.o)
                              ../bmp_test_bsp/\libhal_bsp.a(alt_sys_init.o) (altera_nios2_irq_init)
../bmp_test_bsp/\libhal_bsp.a(altera_avalon_cfi_flash_amd.o)
                              ../bmp_test_bsp/\libhal_bsp.a(altera_avalon_cfi_flash_table.o) (alt_erase_block_amd)
../bmp_test_bsp/\libhal_bsp.a(altera_avalon_cfi_flash_intel.o)
                              ../bmp_test_bsp/\libhal_bsp.a(altera_avalon_cfi_flash_table.o) (alt_erase_block_intel)
../bmp_test_bsp/\libhal_bsp.a(alt_exception_entry.o)
                              ../bmp_test_bsp/\libhal_bsp.a(alt_irq_entry.o) (alt_exception)
c:/develop/altera/12.1sp1/nios2eds/bin/gnu/h-i686-mingw32/bin/../lib/gcc/nios2-elf/4.1.2/../../../../nios2-elf/lib\libc.a(lib_a-atexit.o)
                              ../bmp_test_bsp/\libhal_bsp.a(alt_main.o) (atexit)
c:/develop/altera/12.1sp1/nios2eds/bin/gnu/h-i686-mingw32/bin/../lib/gcc/nios2-elf/4.1.2/../../../../nios2-elf/lib\libc.a(lib_a-exit.o)
                              ../bmp_test_bsp/\libhal_bsp.a(alt_main.o) (exit)
c:/develop/altera/12.1sp1/nios2eds/bin/gnu/h-i686-mingw32/bin/../lib/gcc/nios2-elf/4.1.2/../../../../nios2-elf/lib\libc.a(lib_a-memcmp.o)
                              ../bmp_test_bsp/\libhal_bsp.a(altera_avalon_cfi_flash.o) (memcmp)
c:/develop/altera/12.1sp1/nios2eds/bin/gnu/h-i686-mingw32/bin/../lib/gcc/nios2-elf/4.1.2/../../../../nios2-elf/lib\libc.a(lib_a-__atexit.o)
                              c:/develop/altera/12.1sp1/nios2eds/bin/gnu/h-i686-mingw32/bin/../lib/gcc/nios2-elf/4.1.2/../../../../nios2-elf/lib\libc.a(lib_a-atexit.o) (__register_exitproc)
c:/develop/altera/12.1sp1/nios2eds/bin/gnu/h-i686-mingw32/bin/../lib/gcc/nios2-elf/4.1.2/../../../../nios2-elf/lib\libc.a(lib_a-__call_atexit.o)
                              c:/develop/altera/12.1sp1/nios2eds/bin/gnu/h-i686-mingw32/bin/../lib/gcc/nios2-elf/4.1.2/../../../../nios2-elf/lib\libc.a(lib_a-exit.o) (__call_exitprocs)
../bmp_test_bsp/\libhal_bsp.a(alt_exit.o)
                              c:/develop/altera/12.1sp1/nios2eds/bin/gnu/h-i686-mingw32/bin/../lib/gcc/nios2-elf/4.1.2/../../../../nios2-elf/lib\libc.a(lib_a-exit.o) (_exit)

Allocating common symbols
Common symbol       size              file

alt_irq             0x100             ../bmp_test_bsp/\libhal_bsp.a(alt_irq_handler.o)
errno               0x4               c:/develop/altera/12.1sp1/nios2eds/bin/gnu/h-i686-mingw32/bin/../lib/gcc/nios2-elf/4.1.2/../../../../nios2-elf/lib\libc.a(lib_a-int_errno.o)
nd_GsVgaVsyncCount  0x4               obj/default/nd_lib/nd_egl.o
nd_GsEglDrawBuffer  0x4               obj/default/nd_lib/nd_egl.o
_atexit0            0x190             c:/develop/altera/12.1sp1/nios2eds/bin/gnu/h-i686-mingw32/bin/../lib/gcc/nios2-elf/4.1.2/../../../../nios2-elf/lib\libc.a(lib_a-atexit.o)
nd_GsVgaVsyncFlag   0x4               obj/default/nd_lib/nd_egl.o

Memory Configuration

Name             Origin             Length             Attributes
sdram_BEFORE_EXCEPTION 0x00000000         0x00000020
sdram            0x00000020         0x007fffe0
ext_flash        0x04000000         0x00400000
reset            0x0f000000         0x00000020
ipl_memory       0x0f000020         0x00001fe0
*default*        0x00000000         0xffffffff

Linker script and memory map

LOAD ../bmp_test_bsp//obj/HAL/src/crt0.o
LOAD obj/default/bmp_test.o
LOAD obj/default/mmcfs/fatfs/ff.o
LOAD obj/default/mmcfs/fatfs/mmcbb.o
LOAD obj/default/mmcfs/fatfs/option/cc932.o
LOAD obj/default/mmcfs/gettime.o
LOAD obj/default/mmcfs/mmc_spi.o
LOAD obj/default/mmcfs/mmcfs.o
LOAD obj/default/nd_lib/fontx_k12x10.o
LOAD obj/default/nd_lib/fontx_k6x10.o
LOAD obj/default/nd_lib/nd_egl.o
LOAD c:/develop/altera/12.1sp1/nios2eds/bin/gnu/h-i686-mingw32/bin/../lib/gcc/nios2-elf/4.1.2/../../../../nios2-elf/lib\libstdc++.a
LOAD c:/develop/altera/12.1sp1/nios2eds/bin/gnu/h-i686-mingw32/bin/../lib/gcc/nios2-elf/4.1.2/../../../../nios2-elf/lib\libm.a
LOAD c:/develop/altera/12.1sp1/nios2eds/bin/gnu/h-i686-mingw32/bin/../lib/gcc/nios2-elf/4.1.2\libgcc.a
START GROUP
LOAD c:/develop/altera/12.1sp1/nios2eds/bin/gnu/h-i686-mingw32/bin/../lib/gcc/nios2-elf/4.1.2/../../../../nios2-elf/lib\libc.a
LOAD c:/develop/altera/12.1sp1/nios2eds/bin/gnu/h-i686-mingw32/bin/../lib/gcc/nios2-elf/4.1.2\libgcc.a
LOAD ../bmp_test_bsp/\libhal_bsp.a
END GROUP
LOAD c:/develop/altera/12.1sp1/nios2eds/bin/gnu/h-i686-mingw32/bin/../lib/gcc/nios2-elf/4.1.2\libgcc.a
                0x00000000                __alt_mem_sdram = 0x0
                0x04000000                __alt_mem_ext_flash = 0x4000000
                0x0f000000                __alt_mem_ipl_memory = 0xf000000

.entry          0x0f000000        0x0
 *(.entry)
 .entry         0x0f000000        0x0 ../bmp_test_bsp//obj/HAL/src/crt0.o
                0x0f000000                __reset

.exceptions     0x00000020      0x164
                0x00000020                PROVIDE (__ram_exceptions_start, ABSOLUTE (.))
                0x00000020                . = ALIGN (0x20)
 *(.irq)
 *(.exceptions.entry.label)
 .exceptions.entry.label
                0x00000020        0x0 ../bmp_test_bsp/\libhal_bsp.a(alt_irq_entry.o)
                0x00000020                alt_irq_entry
 .exceptions.entry.label
                0x00000020        0x0 ../bmp_test_bsp/\libhal_bsp.a(alt_exception_entry.o)
                0x00000020                alt_exception
 *(.exceptions.entry.user)
 *(.exceptions.entry)
 .exceptions.entry
                0x00000020       0x54 ../bmp_test_bsp/\libhal_bsp.a(alt_exception_entry.o)
 *(.exceptions.irqtest.user)
 *(.exceptions.irqtest)
 .exceptions.irqtest
                0x00000074       0x10 ../bmp_test_bsp/\libhal_bsp.a(alt_irq_entry.o)
 *(.exceptions.irqhandler.user)
 *(.exceptions.irqhandler)
 .exceptions.irqhandler
                0x00000084        0x4 ../bmp_test_bsp/\libhal_bsp.a(alt_irq_entry.o)
 *(.exceptions.irqreturn.user)
 *(.exceptions.irqreturn)
 .exceptions.irqreturn
                0x00000088        0x4 ../bmp_test_bsp/\libhal_bsp.a(alt_irq_entry.o)
 *(.exceptions.notirq.label)
 .exceptions.notirq.label
                0x0000008c        0x0 ../bmp_test_bsp/\libhal_bsp.a(alt_irq_entry.o)
 *(.exceptions.notirq.user)
 *(.exceptions.notirq)
 .exceptions.notirq
                0x0000008c        0x8 ../bmp_test_bsp/\libhal_bsp.a(alt_exception_entry.o)
 *(.exceptions.soft.user)
 *(.exceptions.soft)
 *(.exceptions.unknown.user)
 *(.exceptions.unknown)
 .exceptions.unknown
                0x00000094        0x4 ../bmp_test_bsp/\libhal_bsp.a(alt_exception_entry.o)
 *(.exceptions.exit.label)
 .exceptions.exit.label
                0x00000098        0x0 ../bmp_test_bsp/\libhal_bsp.a(alt_irq_entry.o)
 .exceptions.exit.label
                0x00000098        0x0 ../bmp_test_bsp/\libhal_bsp.a(alt_exception_entry.o)
 *(.exceptions.exit.user)
 *(.exceptions.exit)
 .exceptions.exit
                0x00000098       0x54 ../bmp_test_bsp/\libhal_bsp.a(alt_exception_entry.o)
 *(.exceptions)
 .exceptions    0x000000ec       0x98 ../bmp_test_bsp/\libhal_bsp.a(alt_irq_handler.o)
                0x000000ec                alt_irq_handler
                0x00000184                PROVIDE (__ram_exceptions_end, ABSOLUTE (.))
                0x00000020                PROVIDE (__flash_exceptions_start, LOADADDR (.exceptions))

.text           0x00000184    0x17284
                0x00000184                PROVIDE (stext, ABSOLUTE (.))
 *(.interp)
 *(.hash)
 *(.dynsym)
 *(.dynstr)
 *(.gnu.version)
 *(.gnu.version_d)
 *(.gnu.version_r)
 *(.rel.init)
 *(.rela.init)
 *(.rel.text .rel.text.* .rel.gnu.linkonce.t.*)
 *(.rela.text .rela.text.* .rela.gnu.linkonce.t.*)
 *(.rel.fini)
 *(.rela.fini)
 *(.rel.rodata .rel.rodata.* .rel.gnu.linkonce.r.*)
 *(.rela.rodata .rela.rodata.* .rela.gnu.linkonce.r.*)
 *(.rel.data .rel.data.* .rel.gnu.linkonce.d.*)
 *(.rela.data .rela.data.* .rela.gnu.linkonce.d.*)
 *(.rel.tdata .rel.tdata.* .rel.gnu.linkonce.td.*)
 *(.rela.tdata .rela.tdata.* .rela.gnu.linkonce.td.*)
 *(.rel.tbss .rel.tbss.* .rel.gnu.linkonce.tb.*)
 *(.rela.tbss .rela.tbss.* .rela.gnu.linkonce.tb.*)
 *(.rel.ctors)
 *(.rela.ctors)
 *(.rel.dtors)
 *(.rela.dtors)
 *(.rel.got)
 *(.rela.got)
 *(.rel.sdata .rel.sdata.* .rel.gnu.linkonce.s.*)
 *(.rela.sdata .rela.sdata.* .rela.gnu.linkonce.s.*)
 *(.rel.sbss .rel.sbss.* .rel.gnu.linkonce.sb.*)
 *(.rela.sbss .rela.sbss.* .rela.gnu.linkonce.sb.*)
 *(.rel.sdata2 .rel.sdata2.* .rel.gnu.linkonce.s2.*)
 *(.rela.sdata2 .rela.sdata2.* .rela.gnu.linkonce.s2.*)
 *(.rel.sbss2 .rel.sbss2.* .rel.gnu.linkonce.sb2.*)
 *(.rela.sbss2 .rela.sbss2.* .rela.gnu.linkonce.sb2.*)
 *(.rel.bss .rel.bss.* .rel.gnu.linkonce.b.*)
 *(.rela.bss .rela.bss.* .rela.gnu.linkonce.b.*)
 *(.rel.plt)
 *(.rela.plt)
 *(.rel.dyn)
 *(.init)
 *(.plt)
 *(.text .stub .text.* .gnu.linkonce.t.*)
 .text          0x00000184       0x48 ../bmp_test_bsp//obj/HAL/src/crt0.o
                0x00000184                _start
 .text          0x000001cc      0x22c obj/default/bmp_test.o
                0x000001cc                nd_halt
                0x000001dc                main
 .text          0x000003f8     0x6b80 obj/default/mmcfs/fatfs/ff.o
                0x000009e4                clust2sect
                0x00000a58                get_fat
                0x00000d0c                put_fat
                0x00001d90                gen_numname
                0x000043e4                f_mount
                0x00004488                f_open
                0x00004940                f_read
                0x00004e4c                f_write
                0x000053f0                f_sync
                0x0000567c                f_close
                0x000056c8                f_lseek
                0x00005be0                f_opendir
                0x00005d68                f_readdir
                0x00005e60                f_stat
                0x00005f04                f_getfree
                0x000061fc                f_truncate
                0x000063e0                f_unlink
                0x0000660c                f_mkdir
                0x00006a4c                f_chmod
                0x00006b4c                f_utime
                0x00006c64                f_rename
 .text          0x00006f78      0xca8 obj/default/mmcfs/fatfs/mmcbb.o
                0x000073c8                disk_status
                0x000074a8                disk_initialize
                0x00007758                disk_read
                0x000078a0                disk_write
                0x00007a34                disk_ioctl
 .text          0x00007c20      0x23c obj/default/mmcfs/fatfs/option/cc932.o
                0x00007c20                ff_convert
                0x00007d8c                ff_wtoupper
 .text          0x00007e5c       0x20 obj/default/mmcfs/gettime.o
                0x00007e5c                get_fattime
 .text          0x00007e7c      0x52c obj/default/mmcfs/mmc_spi.o
                0x00007e7c                mmc_spi_SetCardSelect
                0x00007eb8                mmc_spi_SetCardDeselect
                0x00007ef8                mmc_spi_Sendbyte
                0x00007f4c                mmc_spi_Recvbyte
                0x00007fbc                mmc_spi_DmaRecv
                0x00008198                mmc_spi_CheckCardDetect
                0x000081dc                mmc_spi_CheckWritePortect
                0x00008234                mmc_spi_SetIdentClock
                0x00008264                mmc_spi_SetTransClock
                0x00008294                mmc_spi_SetTimer
                0x000082d4                mmc_spi_CheckTimer
                0x00008318                mmc_spi_Wait100us
                0x0000835c                mmc_spi_InitSocket
 .text          0x000083a8      0x570 obj/default/mmcfs/mmcfs.o
                0x000083a8                dev_mmcfs_open
                0x00008580                dev_mmcfs_close
                0x0000862c                dev_mmcfs_read
                0x000086a4                dev_mmcfs_write
                0x0000871c                dev_mmcfs_lseek
                0x00008808                dev_mmcfs_fstat
                0x0000887c                mmcfs_setup
 .text          0x00008918        0x0 obj/default/nd_lib/fontx_k12x10.o
 .text          0x00008918        0x0 obj/default/nd_lib/fontx_k6x10.o
 .text          0x00008918     0x1584 obj/default/nd_lib/nd_egl.o
                0x00008918                nd_GsVgaVsync_isr
                0x00008984                nd_GsVgaVsync_isrenable
                0x000089dc                nd_GsVgaVsync_isrdisable
                0x00008a2c                nd_GsVgaScanOn
                0x00008a74                nd_GsVgaScanOff
                0x00008ac0                nd_GsVgaSetBuffer
                0x00008afc                nd_GsVgaInit
                0x00008b30                nd_GsVgaWaitVsync
                0x00008b78                nd_GsVgaVsync_getcount
                0x00008bcc                nd_GsVgaVsync_setcount
                0x00008c20                nd_GsEglPage
                0x00008c70                nd_GsEglColor
                0x00008cb0                nd_GsEglPset
                0x00008e80                nd_GsEglBoxfill
                0x00009124                nd_GsEglBox
                0x000091b8                nd_GsEglCircle
                0x000093e8                nd_GsEglLine
                0x0000985c                nd_GsEglPutcharFont
                0x00009a08                nd_GsEglPutstrFont
                0x00009afc                nd_GsEglSetFont
                0x00009b30                nd_GsEglPutchar
                0x00009c0c                nd_GsEglPutstr
                0x00009c94                nd_GsEglPutdec
                0x00009db0                nd_GsEglPuthex2
                0x00009e18                nd_GsEglPuthex8
 .text          0x00009e9c      0x124 c:/develop/altera/12.1sp1/nios2eds/bin/gnu/h-i686-mingw32/bin/../lib/gcc/nios2-elf/4.1.2/../../../../nios2-elf/lib\libc.a(lib_a-fclose.o)
                0x00009e9c                _fclose_r
                0x00009fac                fclose
 .text          0x00009fc0      0x230 c:/develop/altera/12.1sp1/nios2eds/bin/gnu/h-i686-mingw32/bin/../lib/gcc/nios2-elf/4.1.2/../../../../nios2-elf/lib\libc.a(lib_a-fflush.o)
                0x00009fc0                _fflush_r
                0x0000a1bc                fflush
 .text          0x0000a1f0      0x2c0 c:/develop/altera/12.1sp1/nios2eds/bin/gnu/h-i686-mingw32/bin/../lib/gcc/nios2-elf/4.1.2/../../../../nios2-elf/lib\libc.a(lib_a-findfp.o)
                0x0000a248                __sfp_lock_acquire
                0x0000a24c                __sfp_lock_release
                0x0000a250                __sinit_lock_acquire
                0x0000a254                __sinit_lock_release
                0x0000a258                __sinit
                0x0000a30c                __fp_unlock_all
                0x0000a324                __fp_lock_all
                0x0000a33c                _cleanup_r
                0x0000a348                _cleanup
                0x0000a358                __sfmoreglue
                0x0000a3c0                __sfp
 .text          0x0000a4b0      0x110 c:/develop/altera/12.1sp1/nios2eds/bin/gnu/h-i686-mingw32/bin/../lib/gcc/nios2-elf/4.1.2/../../../../nios2-elf/lib\libc.a(lib_a-fopen.o)
                0x0000a4b0                _fopen_r
                0x0000a5a4                fopen
 .text          0x0000a5c0      0x23c c:/develop/altera/12.1sp1/nios2eds/bin/gnu/h-i686-mingw32/bin/../lib/gcc/nios2-elf/4.1.2/../../../../nios2-elf/lib\libc.a(lib_a-fread.o)
                0x0000a5c0                _fread_r
                0x0000a7bc                fread
 .text          0x0000a7fc      0x440 c:/develop/altera/12.1sp1/nios2eds/bin/gnu/h-i686-mingw32/bin/../lib/gcc/nios2-elf/4.1.2/../../../../nios2-elf/lib\libc.a(lib_a-freer.o)
                0x0000a7fc                _malloc_trim_r
                0x0000a928                _free_r
 .text          0x0000ac3c      0x460 c:/develop/altera/12.1sp1/nios2eds/bin/gnu/h-i686-mingw32/bin/../lib/gcc/nios2-elf/4.1.2/../../../../nios2-elf/lib\libc.a(lib_a-fseek.o)
                0x0000ac3c                _fseek_r
                0x0000b078                fseek
 .text          0x0000b09c       0x74 c:/develop/altera/12.1sp1/nios2eds/bin/gnu/h-i686-mingw32/bin/../lib/gcc/nios2-elf/4.1.2/../../../../nios2-elf/lib\libc.a(lib_a-fstatr.o)
                0x0000b09c                _fstat_r
 .text          0x0000b110      0x180 c:/develop/altera/12.1sp1/nios2eds/bin/gnu/h-i686-mingw32/bin/../lib/gcc/nios2-elf/4.1.2/../../../../nios2-elf/lib\libc.a(lib_a-fwalk.o)
                0x0000b110                _fwalk_reent
                0x0000b1d8                _fwalk
 .text          0x0000b290        0x0 c:/develop/altera/12.1sp1/nios2eds/bin/gnu/h-i686-mingw32/bin/../lib/gcc/nios2-elf/4.1.2/../../../../nios2-elf/lib\libc.a(lib_a-impure.o)
 .text          0x0000b290        0x0 c:/develop/altera/12.1sp1/nios2eds/bin/gnu/h-i686-mingw32/bin/../lib/gcc/nios2-elf/4.1.2/../../../../nios2-elf/lib\libc.a(lib_a-int_errno.o)
 .text          0x0000b290      0x194 c:/develop/altera/12.1sp1/nios2eds/bin/gnu/h-i686-mingw32/bin/../lib/gcc/nios2-elf/4.1.2/../../../../nios2-elf/lib\libc.a(lib_a-makebuf.o)
                0x0000b290                __smakebuf_r
 .text          0x0000b424       0x28 c:/develop/altera/12.1sp1/nios2eds/bin/gnu/h-i686-mingw32/bin/../lib/gcc/nios2-elf/4.1.2/../../../../nios2-elf/lib\libc.a(lib_a-malloc.o)
                0x0000b424                free
                0x0000b438                malloc
 .text          0x0000b44c      0x740 c:/develop/altera/12.1sp1/nios2eds/bin/gnu/h-i686-mingw32/bin/../lib/gcc/nios2-elf/4.1.2/../../../../nios2-elf/lib\libc.a(lib_a-mallocr.o)
                0x0000b44c                _malloc_r
 .text          0x0000bb8c       0xa0 c:/develop/altera/12.1sp1/nios2eds/bin/gnu/h-i686-mingw32/bin/../lib/gcc/nios2-elf/4.1.2/../../../../nios2-elf/lib\libc.a(lib_a-memcpy.o)
                0x0000bb8c                memcpy
 .text          0x0000bc2c       0x98 c:/develop/altera/12.1sp1/nios2eds/bin/gnu/h-i686-mingw32/bin/../lib/gcc/nios2-elf/4.1.2/../../../../nios2-elf/lib\libc.a(lib_a-memset.o)
                0x0000bc2c                memset
 .text          0x0000bcc4       0x78 c:/develop/altera/12.1sp1/nios2eds/bin/gnu/h-i686-mingw32/bin/../lib/gcc/nios2-elf/4.1.2/../../../../nios2-elf/lib\libc.a(lib_a-openr.o)
                0x0000bcc4                _open_r
 .text          0x0000bd3c       0x78 c:/develop/altera/12.1sp1/nios2eds/bin/gnu/h-i686-mingw32/bin/../lib/gcc/nios2-elf/4.1.2/../../../../nios2-elf/lib\libc.a(lib_a-printf.o)
                0x0000bd3c                printf
                0x0000bd80                _printf_r
 .text          0x0000bdb4       0xb4 c:/develop/altera/12.1sp1/nios2eds/bin/gnu/h-i686-mingw32/bin/../lib/gcc/nios2-elf/4.1.2/../../../../nios2-elf/lib\libc.a(lib_a-puts.o)
                0x0000bdb4                _puts_r
                0x0000be54                puts
 .text          0x0000be68      0x1e0 c:/develop/altera/12.1sp1/nios2eds/bin/gnu/h-i686-mingw32/bin/../lib/gcc/nios2-elf/4.1.2/../../../../nios2-elf/lib\libc.a(lib_a-refill.o)
                0x0000be68                __srefill_r
 .text          0x0000c048       0x70 c:/develop/altera/12.1sp1/nios2eds/bin/gnu/h-i686-mingw32/bin/../lib/gcc/nios2-elf/4.1.2/../../../../nios2-elf/lib\libc.a(lib_a-sbrkr.o)
                0x0000c048                _sbrk_r
 .text          0x0000c0b8      0x14c c:/develop/altera/12.1sp1/nios2eds/bin/gnu/h-i686-mingw32/bin/../lib/gcc/nios2-elf/4.1.2/../../../../nios2-elf/lib\libc.a(lib_a-stdio.o)
                0x0000c0b8                __sclose
                0x0000c0c0                __sseek
                0x0000c128                __swrite
                0x0000c1a4                __sread
 .text          0x0000c204       0x74 c:/develop/altera/12.1sp1/nios2eds/bin/gnu/h-i686-mingw32/bin/../lib/gcc/nios2-elf/4.1.2/../../../../nios2-elf/lib\libc.a(lib_a-strlen.o)
                0x0000c204                strlen
 .text          0x0000c278     0x1f28 c:/develop/altera/12.1sp1/nios2eds/bin/gnu/h-i686-mingw32/bin/../lib/gcc/nios2-elf/4.1.2/../../../../nios2-elf/lib\libc.a(lib_a-vfprintf.o)
                0x0000c2d0                ___vfprintf_internal_r
                0x0000e17c                __vfprintf_internal
 .text          0x0000e1a0       0x78 c:/develop/altera/12.1sp1/nios2eds/bin/gnu/h-i686-mingw32/bin/../lib/gcc/nios2-elf/4.1.2/../../../../nios2-elf/lib\libc.a(lib_a-writer.o)
                0x0000e1a0                _write_r
 .text          0x0000e218      0x13c c:/develop/altera/12.1sp1/nios2eds/bin/gnu/h-i686-mingw32/bin/../lib/gcc/nios2-elf/4.1.2/../../../../nios2-elf/lib\libc.a(lib_a-wsetup.o)
                0x0000e218                __swsetup_r
 .text          0x0000e354       0x70 c:/develop/altera/12.1sp1/nios2eds/bin/gnu/h-i686-mingw32/bin/../lib/gcc/nios2-elf/4.1.2/../../../../nios2-elf/lib\libc.a(lib_a-closer.o)
                0x0000e354                _close_r
 .text          0x0000e3c4     0x17cc c:/develop/altera/12.1sp1/nios2eds/bin/gnu/h-i686-mingw32/bin/../lib/gcc/nios2-elf/4.1.2/../../../../nios2-elf/lib\libc.a(lib_a-dtoa.o)
                0x0000e5dc                _dtoa_r
 .text          0x0000fb90       0xa0 c:/develop/altera/12.1sp1/nios2eds/bin/gnu/h-i686-mingw32/bin/../lib/gcc/nios2-elf/4.1.2/../../../../nios2-elf/lib\libc.a(lib_a-flags.o)
                0x0000fb90                __sflags
 .text          0x0000fc30      0x49c c:/develop/altera/12.1sp1/nios2eds/bin/gnu/h-i686-mingw32/bin/../lib/gcc/nios2-elf/4.1.2/../../../../nios2-elf/lib\libc.a(lib_a-fvwrite.o)
                0x0000fc30                __sfvwrite_r
 .text          0x000100cc       0x70 c:/develop/altera/12.1sp1/nios2eds/bin/gnu/h-i686-mingw32/bin/../lib/gcc/nios2-elf/4.1.2/../../../../nios2-elf/lib\libc.a(lib_a-isattyr.o)
                0x000100cc                _isatty_r
 .text          0x0001013c       0xc4 c:/develop/altera/12.1sp1/nios2eds/bin/gnu/h-i686-mingw32/bin/../lib/gcc/nios2-elf/4.1.2/../../../../nios2-elf/lib\libc.a(lib_a-locale.o)
                0x0001013c                __locale_charset
                0x00010144                _localeconv_r
                0x00010150                localeconv
                0x00010160                _setlocale_r
                0x000101e4                setlocale
 .text          0x00010200       0x78 c:/develop/altera/12.1sp1/nios2eds/bin/gnu/h-i686-mingw32/bin/../lib/gcc/nios2-elf/4.1.2/../../../../nios2-elf/lib\libc.a(lib_a-lseekr.o)
                0x00010200                _lseek_r
 .text          0x00010278       0xe4 c:/develop/altera/12.1sp1/nios2eds/bin/gnu/h-i686-mingw32/bin/../lib/gcc/nios2-elf/4.1.2/../../../../nios2-elf/lib\libc.a(lib_a-memchr.o)
                0x00010278                memchr
 .text          0x0001035c       0xe0 c:/develop/altera/12.1sp1/nios2eds/bin/gnu/h-i686-mingw32/bin/../lib/gcc/nios2-elf/4.1.2/../../../../nios2-elf/lib\libc.a(lib_a-memmove.o)
                0x0001035c                memmove
 .text          0x0001043c      0xff4 c:/develop/altera/12.1sp1/nios2eds/bin/gnu/h-i686-mingw32/bin/../lib/gcc/nios2-elf/4.1.2/../../../../nios2-elf/lib\libc.a(lib_a-mprec.o)
                0x0001043c                _Bfree
                0x00010464                __hi0bits
                0x000104d4                __lo0bits
                0x00010598                __mcmp
                0x000105f8                __ulp
                0x00010678                __b2d
                0x00010798                __ratio
                0x00010848                _mprec_log10
                0x000108dc                __copybits
                0x00010934                __any_on
                0x000109bc                _Balloc
                0x00010a78                __d2b
                0x00010bf4                __mdiff
                0x00010d80                __lshift
                0x00010ecc                __multiply
                0x000110b4                __i2b
                0x000110f0                __multadd
                0x000111f0                __pow5mult
                0x00011310                __s2b
 .text          0x00011430       0x78 c:/develop/altera/12.1sp1/nios2eds/bin/gnu/h-i686-mingw32/bin/../lib/gcc/nios2-elf/4.1.2/../../../../nios2-elf/lib\libc.a(lib_a-readr.o)
                0x00011430                _read_r
 .text          0x000114a8      0x5f4 c:/develop/altera/12.1sp1/nios2eds/bin/gnu/h-i686-mingw32/bin/../lib/gcc/nios2-elf/4.1.2/../../../../nios2-elf/lib\libc.a(lib_a-reallocr.o)
                0x000114a8                _realloc_r
 .text          0x00011a9c       0x40 c:/develop/altera/12.1sp1/nios2eds/bin/gnu/h-i686-mingw32/bin/../lib/gcc/nios2-elf/4.1.2/../../../../nios2-elf/lib\libc.a(lib_a-s_isinfd.o)
                0x00011a9c                __isinfd
 .text          0x00011adc       0x30 c:/develop/altera/12.1sp1/nios2eds/bin/gnu/h-i686-mingw32/bin/../lib/gcc/nios2-elf/4.1.2/../../../../nios2-elf/lib\libc.a(lib_a-s_isnand.o)
                0x00011adc                __isnand
 .text          0x00011b0c       0xbc c:/develop/altera/12.1sp1/nios2eds/bin/gnu/h-i686-mingw32/bin/../lib/gcc/nios2-elf/4.1.2/../../../../nios2-elf/lib\libc.a(lib_a-strcmp.o)
                0x00011b0c                strcmp
 .text          0x00011bc8       0xb4 c:/develop/altera/12.1sp1/nios2eds/bin/gnu/h-i686-mingw32/bin/../lib/gcc/nios2-elf/4.1.2/../../../../nios2-elf/lib\libc.a(lib_a-callocr.o)
                0x00011bc8                _calloc_r
 .text          0x00011c7c      0x5dc c:/develop/altera/12.1sp1/nios2eds/bin/gnu/h-i686-mingw32/bin/../lib/gcc/nios2-elf/4.1.2\libgcc.a(_udivdi3.o)
                0x00011c7c                __udivdi3
 .text          0x00012258      0x5b0 c:/develop/altera/12.1sp1/nios2eds/bin/gnu/h-i686-mingw32/bin/../lib/gcc/nios2-elf/4.1.2\libgcc.a(_umoddi3.o)
                0x00012258                __umoddi3
 .text          0x00012808      0x504 c:/develop/altera/12.1sp1/nios2eds/bin/gnu/h-i686-mingw32/bin/../lib/gcc/nios2-elf/4.1.2\libgcc.a(_addsub_df.o)
                0x00012c18                __subdf3
                0x00012c98                __adddf3
 .text          0x00012d0c      0x3c4 c:/develop/altera/12.1sp1/nios2eds/bin/gnu/h-i686-mingw32/bin/../lib/gcc/nios2-elf/4.1.2\libgcc.a(_mul_df.o)
                0x00012d0c                __muldf3
 .text          0x000130d0      0x258 c:/develop/altera/12.1sp1/nios2eds/bin/gnu/h-i686-mingw32/bin/../lib/gcc/nios2-elf/4.1.2\libgcc.a(_div_df.o)
                0x000130d0                __divdf3
 .text          0x00013328       0x88 c:/develop/altera/12.1sp1/nios2eds/bin/gnu/h-i686-mingw32/bin/../lib/gcc/nios2-elf/4.1.2\libgcc.a(_eq_df.o)
                0x00013328                __eqdf2
 .text          0x000133b0       0x88 c:/develop/altera/12.1sp1/nios2eds/bin/gnu/h-i686-mingw32/bin/../lib/gcc/nios2-elf/4.1.2\libgcc.a(_ne_df.o)
                0x000133b0                __nedf2
 .text          0x00013438       0x88 c:/develop/altera/12.1sp1/nios2eds/bin/gnu/h-i686-mingw32/bin/../lib/gcc/nios2-elf/4.1.2\libgcc.a(_gt_df.o)
                0x00013438                __gtdf2
 .text          0x000134c0       0x88 c:/develop/altera/12.1sp1/nios2eds/bin/gnu/h-i686-mingw32/bin/../lib/gcc/nios2-elf/4.1.2\libgcc.a(_ge_df.o)
                0x000134c0                __gedf2
 .text          0x00013548       0x88 c:/develop/altera/12.1sp1/nios2eds/bin/gnu/h-i686-mingw32/bin/../lib/gcc/nios2-elf/4.1.2\libgcc.a(_lt_df.o)
                0x00013548                __ltdf2
 .text          0x000135d0       0xf8 c:/develop/altera/12.1sp1/nios2eds/bin/gnu/h-i686-mingw32/bin/../lib/gcc/nios2-elf/4.1.2\libgcc.a(_si_to_df.o)
                0x000135d0                __floatsidf
 .text          0x000136c8       0xd8 c:/develop/altera/12.1sp1/nios2eds/bin/gnu/h-i686-mingw32/bin/../lib/gcc/nios2-elf/4.1.2\libgcc.a(_df_to_si.o)
                0x000136c8                __fixdfsi
 .text          0x000137a0        0x0 c:/develop/altera/12.1sp1/nios2eds/bin/gnu/h-i686-mingw32/bin/../lib/gcc/nios2-elf/4.1.2\libgcc.a(_thenan_df.o)
 .text          0x000137a0      0x194 c:/develop/altera/12.1sp1/nios2eds/bin/gnu/h-i686-mingw32/bin/../lib/gcc/nios2-elf/4.1.2\libgcc.a(_usi_to_df.o)
                0x000137a0                __floatunsidf
 .text          0x00013934      0x14c c:/develop/altera/12.1sp1/nios2eds/bin/gnu/h-i686-mingw32/bin/../lib/gcc/nios2-elf/4.1.2\libgcc.a(lib2-divmod.o)
                0x000139b0                __divsi3
                0x00013a10                __modsi3
                0x00013a70                __udivsi3
                0x00013a78                __umodsi3
 .text          0x00013a80       0x98 c:/develop/altera/12.1sp1/nios2eds/bin/gnu/h-i686-mingw32/bin/../lib/gcc/nios2-elf/4.1.2\libgcc.a(_muldi3.o)
                0x00013a80                __muldi3
 .text          0x00013b18        0x0 c:/develop/altera/12.1sp1/nios2eds/bin/gnu/h-i686-mingw32/bin/../lib/gcc/nios2-elf/4.1.2\libgcc.a(_clz.o)
 .text          0x00013b18       0x80 c:/develop/altera/12.1sp1/nios2eds/bin/gnu/h-i686-mingw32/bin/../lib/gcc/nios2-elf/4.1.2\libgcc.a(_clzsi2.o)
                0x00013b18                __clzsi2
 .text          0x00013b98      0x314 c:/develop/altera/12.1sp1/nios2eds/bin/gnu/h-i686-mingw32/bin/../lib/gcc/nios2-elf/4.1.2\libgcc.a(_pack_df.o)
                0x00013b98                __pack_d
 .text          0x00013eac      0x138 c:/develop/altera/12.1sp1/nios2eds/bin/gnu/h-i686-mingw32/bin/../lib/gcc/nios2-elf/4.1.2\libgcc.a(_unpack_df.o)
                0x00013eac                __unpack_d
 .text          0x00013fe4       0xc8 c:/develop/altera/12.1sp1/nios2eds/bin/gnu/h-i686-mingw32/bin/../lib/gcc/nios2-elf/4.1.2\libgcc.a(_fpcmp_parts_df.o)
                0x00013fe4                __fpcmp_parts_d
 .text          0x000140ac       0xf0 ../bmp_test_bsp/\libhal_bsp.a(alt_close.o)
                0x000140ac                close
 .text          0x0001419c       0x28 ../bmp_test_bsp/\libhal_bsp.a(alt_dcache_flush.o)
                0x0001419c                alt_dcache_flush
 .text          0x000141c4        0x8 ../bmp_test_bsp/\libhal_bsp.a(alt_dev.o)
 .text          0x000141cc        0x0 ../bmp_test_bsp/\libhal_bsp.a(alt_errno.o)
 .text          0x000141cc       0x38 ../bmp_test_bsp/\libhal_bsp.a(alt_fs_reg.o)
                0x000141cc                alt_fs_reg
 .text          0x00014204       0x90 ../bmp_test_bsp/\libhal_bsp.a(alt_fstat.o)
                0x00014204                fstat
 .text          0x00014294       0x84 ../bmp_test_bsp/\libhal_bsp.a(alt_isatty.o)
                0x00014294                isatty
 .text          0x00014318       0x9c ../bmp_test_bsp/\libhal_bsp.a(alt_lseek.o)
                0x00014318                lseek
 .text          0x000143b4       0x60 ../bmp_test_bsp/\libhal_bsp.a(alt_main.o)
                0x000143b4                alt_main
 .text          0x00014414        0x8 ../bmp_test_bsp/\libhal_bsp.a(alt_malloc_lock.o)
                0x00014414                __malloc_lock
                0x00014418                __malloc_unlock
 .text          0x0001441c      0x180 ../bmp_test_bsp/\libhal_bsp.a(alt_open.o)
                0x0001441c                open
 .text          0x0001459c      0x11c ../bmp_test_bsp/\libhal_bsp.a(alt_read.o)
                0x0001459c                read
 .text          0x000146b8       0x24 ../bmp_test_bsp/\libhal_bsp.a(alt_release_fd.o)
                0x000146b8                alt_release_fd
 .text          0x000146dc       0x54 ../bmp_test_bsp/\libhal_bsp.a(alt_sbrk.o)
                0x000146dc                sbrk
 .text          0x00014730        0x4 ../bmp_test_bsp/\libhal_bsp.a(alt_usleep.o)
                0x00014730                usleep
 .text          0x00014734      0x118 ../bmp_test_bsp/\libhal_bsp.a(alt_write.o)
                0x00014734                write
 .text          0x0001484c       0xb4 ../bmp_test_bsp/\libhal_bsp.a(alt_sys_init.o)
                0x0001484c                alt_irq_init
                0x0001486c                alt_sys_init
 .text          0x00014900      0x4bc ../bmp_test_bsp/\libhal_bsp.a(altera_avalon_cfi_flash.o)
                0x00014900                alt_flash_cfi_get_info
                0x00014938                alt_flash_program_block
                0x00014b00                alt_write_value_to_flash
                0x00014b98                alt_flash_cfi_read
                0x00014bc4                alt_flash_cfi_write
                0x00014d54                alt_flash_cfi_init
 .text          0x00014dbc      0xab8 ../bmp_test_bsp/\libhal_bsp.a(altera_avalon_cfi_flash_table.o)
                0x00014dbc                alt_set_flash_width_func
                0x00014eec                alt_set_flash_algorithm_func
                0x00014fbc                alt_check_primary_table
                0x00015058                alt_read_cfi_table
                0x00015354                alt_read_query_entry_8bit
                0x00015368                alt_read_query_entry_16bit
                0x00015380                alt_read_query_entry_32bit
                0x0001539c                alt_write_native_32bit
                0x000153a4                alt_write_flash_command_32bit_device_32bit_mode
                0x000153bc                alt_write_native_16bit
                0x000153c8                alt_write_flash_command_32bit_device_16bit_mode
                0x000153e0                alt_write_flash_command_16bit_device_16bit_mode
                0x000153f4                alt_write_native_8bit
                0x00015400                alt_write_flash_command_32bit_device_8bit_mode
                0x00015418                alt_write_flash_command_16bit_device_8bit_mode
                0x00015440                alt_write_flash_command_8bit_device_8bit_mode
                0x00015450                alt_read_cfi_width
 .text          0x00015874       0x3c ../bmp_test_bsp/\libhal_bsp.a(altera_avalon_jtag_uart_fd.o)
                0x00015874                altera_avalon_jtag_uart_ioctl_fd
                0x00015880                altera_avalon_jtag_uart_close_fd
                0x00015890                altera_avalon_jtag_uart_write_fd
                0x000158a0                altera_avalon_jtag_uart_read_fd
 .text          0x000158b0      0x214 ../bmp_test_bsp/\libhal_bsp.a(altera_avalon_jtag_uart_init.o)
                0x000158b0                altera_avalon_jtag_uart_close
                0x0001593c                altera_avalon_jtag_uart_init
 .text          0x00015ac4       0x88 ../bmp_test_bsp/\libhal_bsp.a(altera_avalon_jtag_uart_ioctl.o)
                0x00015ac4                altera_avalon_jtag_uart_ioctl
 .text          0x00015b4c      0x16c ../bmp_test_bsp/\libhal_bsp.a(altera_avalon_jtag_uart_read.o)
                0x00015b4c                altera_avalon_jtag_uart_read
 .text          0x00015cb8      0x17c ../bmp_test_bsp/\libhal_bsp.a(altera_avalon_jtag_uart_write.o)
                0x00015cb8                altera_avalon_jtag_uart_write
 .text          0x00015e34       0x8c ../bmp_test_bsp/\libhal_bsp.a(altera_avalon_timer_sc.o)
                0x00015e34                alt_avalon_timer_sc_init
 .text          0x00015ec0       0x30 ../bmp_test_bsp/\libhal_bsp.a(altera_avalon_uart_fd.o)
                0x00015ec0                altera_avalon_uart_close_fd
                0x00015ed0                altera_avalon_uart_write_fd
                0x00015ee0                altera_avalon_uart_read_fd
 .text          0x00015ef0      0x1ac ../bmp_test_bsp/\libhal_bsp.a(altera_avalon_uart_init.o)
                0x00015ef0                altera_avalon_uart_close
                0x0001605c                altera_avalon_uart_init
 .text          0x0001609c      0x140 ../bmp_test_bsp/\libhal_bsp.a(altera_avalon_uart_read.o)
                0x0001609c                altera_avalon_uart_read
 .text          0x000161dc      0x138 ../bmp_test_bsp/\libhal_bsp.a(altera_avalon_uart_write.o)
                0x000161dc                altera_avalon_uart_write
 .text          0x00016314       0x94 ../bmp_test_bsp/\libhal_bsp.a(alt_alarm_start.o)
                0x00016314                alt_alarm_start
 .text          0x000163a8       0x68 ../bmp_test_bsp/\libhal_bsp.a(alt_busy_sleep.o)
                0x000163a8                alt_busy_sleep
 .text          0x00016410       0x7c ../bmp_test_bsp/\libhal_bsp.a(alt_dev_llist_insert.o)
                0x00016410                alt_dev_llist_insert
 .text          0x0001648c       0x4c ../bmp_test_bsp/\libhal_bsp.a(alt_do_ctors.o)
                0x0001648c                _do_ctors
 .text          0x000164d8       0x4c ../bmp_test_bsp/\libhal_bsp.a(alt_do_dtors.o)
                0x000164d8                _do_dtors
 .text          0x00016524       0x94 ../bmp_test_bsp/\libhal_bsp.a(alt_find_dev.o)
                0x00016524                alt_find_dev
 .text          0x000165b8       0xb0 ../bmp_test_bsp/\libhal_bsp.a(alt_find_file.o)
                0x000165b8                alt_find_file
 .text          0x00016668       0x60 ../bmp_test_bsp/\libhal_bsp.a(alt_flash_dev.o)
                0x00016668                alt_flash_close_dev
                0x0001667c                alt_flash_open_dev
 .text          0x000166c8       0x60 ../bmp_test_bsp/\libhal_bsp.a(alt_get_fd.o)
                0x000166c8                alt_get_fd
 .text          0x00016728       0x9c ../bmp_test_bsp/\libhal_bsp.a(alt_iic.o)
                0x00016728                alt_ic_irq_enabled
                0x00016740                alt_ic_irq_enable
                0x00016780                alt_ic_irq_disable
                0x000167c0                alt_ic_isr_register
 .text          0x000167c4       0x88 ../bmp_test_bsp/\libhal_bsp.a(alt_iic_isr_register.o)
                0x000167c4                alt_iic_isr_register
 .text          0x0001684c       0xfc ../bmp_test_bsp/\libhal_bsp.a(alt_io_redirect.o)
                0x000168bc                alt_io_redirect
 .text          0x00016948        0x0 ../bmp_test_bsp/\libhal_bsp.a(alt_irq_entry.o)
 .text          0x00016948        0x0 ../bmp_test_bsp/\libhal_bsp.a(alt_irq_handler.o)
 .text          0x00016948        0x0 ../bmp_test_bsp/\libhal_bsp.a(alt_irq_vars.o)
 .text          0x00016948       0xf4 ../bmp_test_bsp/\libhal_bsp.a(alt_tick.o)
                0x00016948                alt_alarm_stop
                0x0001697c                alt_tick
 .text          0x00016a3c        0x8 ../bmp_test_bsp/\libhal_bsp.a(altera_nios2_irq.o)
                0x00016a3c                altera_nios2_irq_init
 .text          0x00016a44      0x2e4 ../bmp_test_bsp/\libhal_bsp.a(altera_avalon_cfi_flash_amd.o)
                0x00016a44                alt_erase_block_amd
                0x00016bc0                alt_program_amd
 .text          0x00016d28      0x320 ../bmp_test_bsp/\libhal_bsp.a(altera_avalon_cfi_flash_intel.o)
                0x00016e20                alt_erase_block_intel
                0x00016f24                alt_program_intel
 .text          0x00017048        0x0 ../bmp_test_bsp/\libhal_bsp.a(alt_exception_entry.o)
 .text          0x00017048       0x14 c:/develop/altera/12.1sp1/nios2eds/bin/gnu/h-i686-mingw32/bin/../lib/gcc/nios2-elf/4.1.2/../../../../nios2-elf/lib\libc.a(lib_a-atexit.o)
                0x00017048                atexit
 .text          0x0001705c       0x38 c:/develop/altera/12.1sp1/nios2eds/bin/gnu/h-i686-mingw32/bin/../lib/gcc/nios2-elf/4.1.2/../../../../nios2-elf/lib\libc.a(lib_a-exit.o)
                0x0001705c                exit
 .text          0x00017094       0x74 c:/develop/altera/12.1sp1/nios2eds/bin/gnu/h-i686-mingw32/bin/../lib/gcc/nios2-elf/4.1.2/../../../../nios2-elf/lib\libc.a(lib_a-memcmp.o)
                0x00017094                memcmp
 .text          0x00017108      0x134 c:/develop/altera/12.1sp1/nios2eds/bin/gnu/h-i686-mingw32/bin/../lib/gcc/nios2-elf/4.1.2/../../../../nios2-elf/lib\libc.a(lib_a-__atexit.o)
                0x00017108                __register_exitproc
 .text          0x0001723c      0x1b4 c:/develop/altera/12.1sp1/nios2eds/bin/gnu/h-i686-mingw32/bin/../lib/gcc/nios2-elf/4.1.2/../../../../nios2-elf/lib\libc.a(lib_a-__call_atexit.o)
                0x00017240                __call_exitprocs
 .text          0x000173f0       0x14 ../bmp_test_bsp/\libhal_bsp.a(alt_exit.o)
                0x000173f0                _exit
 *(.gnu.warning.*)
 *(.fini)
                0x00017404                PROVIDE (__etext, ABSOLUTE (.))
                0x00017404                PROVIDE (_etext, ABSOLUTE (.))
                0x00017404                PROVIDE (etext, ABSOLUTE (.))
 *(.eh_frame_hdr)
                0x00017404                . = ALIGN (0x4)
                0x00017404                PROVIDE (__preinit_array_start, ABSOLUTE (.))
 *(.preinit_array)
                0x00017404                PROVIDE (__preinit_array_end, ABSOLUTE (.))
                0x00017404                PROVIDE (__init_array_start, ABSOLUTE (.))
 *(.init_array)
                0x00017404                PROVIDE (__init_array_end, ABSOLUTE (.))
                0x00017404                PROVIDE (__fini_array_start, ABSOLUTE (.))
 *(.fini_array)
                0x00017404                PROVIDE (__fini_array_end, ABSOLUTE (.))
 *(.eh_frame)
 *(.gcc_except_table)
 *(.dynamic)
                0x00017404                PROVIDE (__CTOR_LIST__, ABSOLUTE (.))
 *(.ctors)
 *(SORT(.ctors.*))
 .ctors.65535   0x00017404        0x4 c:/develop/altera/12.1sp1/nios2eds/bin/gnu/h-i686-mingw32/bin/../lib/gcc/nios2-elf/4.1.2/../../../../nios2-elf/lib\libc.a(lib_a-__call_atexit.o)
                0x00017408                PROVIDE (__CTOR_END__, ABSOLUTE (.))
                0x00017408                PROVIDE (__DTOR_LIST__, ABSOLUTE (.))
 *(.dtors)
 *(SORT(.dtors.*))
                0x00017408                PROVIDE (__DTOR_END__, ABSOLUTE (.))
 *(.jcr)
                0x00017408                . = ALIGN (0x4)

.rodata         0x00017408    0x31e3c
                0x00017408                PROVIDE (__ram_rodata_start, ABSOLUTE (.))
                0x00017408                . = ALIGN (0x4)
 *(.rodata .rodata.* .gnu.linkonce.r.*)
 .rodata        0x00017408       0x94 obj/default/bmp_test.o
 .rodata        0x0001749c       0x24 obj/default/mmcfs/fatfs/ff.o
 .rodata        0x000174c0     0xeab0 obj/default/mmcfs/fatfs/option/cc932.o
 .rodata        0x00025f70        0x8 obj/default/mmcfs/mmcfs.o
 .rodata        0x00025f78    0x2216c obj/default/nd_lib/fontx_k12x10.o
                0x00025f78                fontx_k12x10_fnt
 .rodata        0x000480e4      0xa14 obj/default/nd_lib/fontx_k6x10.o
                0x000480e4                fontx_k6x10_fnt
 .rodata        0x00048af8      0x400 obj/default/nd_lib/nd_egl.o
                0x00048af8                nd_GsEglRomFont
 .rodata.str1.4
                0x00048ef8        0x2 c:/develop/altera/12.1sp1/nios2eds/bin/gnu/h-i686-mingw32/bin/../lib/gcc/nios2-elf/4.1.2/../../../../nios2-elf/lib\libc.a(lib_a-impure.o)
                                  0x4 (size before relaxing)
 *fill*         0x00048efa        0x2 00
 .rodata.str1.4
                0x00048efc        0x2 c:/develop/altera/12.1sp1/nios2eds/bin/gnu/h-i686-mingw32/bin/../lib/gcc/nios2-elf/4.1.2/../../../../nios2-elf/lib\libc.a(lib_a-puts.o)
                                  0x4 (size before relaxing)
 *fill*         0x00048efe        0x2 00
 .rodata.str1.4
                0x00048f00       0x5e c:/develop/altera/12.1sp1/nios2eds/bin/gnu/h-i686-mingw32/bin/../lib/gcc/nios2-elf/4.1.2/../../../../nios2-elf/lib\libc.a(lib_a-vfprintf.o)
                                 0x60 (size before relaxing)
 .rodata        0x00048f5e       0x20 c:/develop/altera/12.1sp1/nios2eds/bin/gnu/h-i686-mingw32/bin/../lib/gcc/nios2-elf/4.1.2/../../../../nios2-elf/lib\libc.a(lib_a-vfprintf.o)
 *fill*         0x00048f7e        0x2 00
 .rodata.str1.4
                0x00048f80       0x10 c:/develop/altera/12.1sp1/nios2eds/bin/gnu/h-i686-mingw32/bin/../lib/gcc/nios2-elf/4.1.2/../../../../nios2-elf/lib\libc.a(lib_a-dtoa.o)
                                 0x14 (size before relaxing)
 .rodata.str1.4
                0x00048f90        0xf c:/develop/altera/12.1sp1/nios2eds/bin/gnu/h-i686-mingw32/bin/../lib/gcc/nios2-elf/4.1.2/../../../../nios2-elf/lib\libc.a(lib_a-locale.o)
                                 0x18 (size before relaxing)
 *fill*         0x00048f9f        0x1 00
 .rodata        0x00048fa0       0x30 c:/develop/altera/12.1sp1/nios2eds/bin/gnu/h-i686-mingw32/bin/../lib/gcc/nios2-elf/4.1.2/../../../../nios2-elf/lib\libc.a(lib_a-locale.o)
 .rodata        0x00048fd0      0x124 c:/develop/altera/12.1sp1/nios2eds/bin/gnu/h-i686-mingw32/bin/../lib/gcc/nios2-elf/4.1.2/../../../../nios2-elf/lib\libc.a(lib_a-mprec.o)
                0x00048fd0                __mprec_tens
                0x00049098                __mprec_bigtens
                0x000490c0                __mprec_tinytens
 .rodata        0x000490f4       0x14 c:/develop/altera/12.1sp1/nios2eds/bin/gnu/h-i686-mingw32/bin/../lib/gcc/nios2-elf/4.1.2\libgcc.a(_thenan_df.o)
                0x000490f4                __thenan_df
 .rodata        0x00049108      0x100 c:/develop/altera/12.1sp1/nios2eds/bin/gnu/h-i686-mingw32/bin/../lib/gcc/nios2-elf/4.1.2\libgcc.a(_clz.o)
                0x00049108                __clz_tab
 .rodata.str1.4
                0x00049208        0xa ../bmp_test_bsp/\libhal_bsp.a(alt_dev.o)
                                  0xc (size before relaxing)
 *fill*         0x00049212        0x2 00
 .rodata.str1.4
                0x00049214        0xf ../bmp_test_bsp/\libhal_bsp.a(alt_main.o)
                                 0x10 (size before relaxing)
 *fill*         0x00049223        0x1 00
 .rodata.str1.4
                0x00049224       0x20 ../bmp_test_bsp/\libhal_bsp.a(alt_sys_init.o)
                                 0x30 (size before relaxing)
 *(.rodata1)
                0x00049244                . = ALIGN (0x4)
                0x00049244                PROVIDE (__ram_rodata_end, ABSOLUTE (.))
                0x00017408                PROVIDE (__flash_rodata_start, LOADADDR (.rodata))

.rwdata         0x00049244     0x1c2c
                0x00049244                PROVIDE (__ram_rwdata_start, ABSOLUTE (.))
                0x00049244                . = ALIGN (0x4)
 *(.got.plt)
 *(.got)
 *(.data1)
 *(.data .data.* .gnu.linkonce.d.*)
 .data          0x00049244        0x0 ../bmp_test_bsp//obj/HAL/src/crt0.o
 .data          0x00049244        0x0 obj/default/bmp_test.o
 .data          0x00049244        0x0 obj/default/mmcfs/fatfs/ff.o
 .data          0x00049244        0x0 obj/default/mmcfs/fatfs/mmcbb.o
 .data          0x00049244        0x0 obj/default/mmcfs/fatfs/option/cc932.o
 .data          0x00049244        0x0 obj/default/mmcfs/gettime.o
 .data          0x00049244        0x0 obj/default/mmcfs/mmc_spi.o
 .data          0x00049244       0x28 obj/default/mmcfs/mmcfs.o
 .data          0x0004926c        0x0 obj/default/nd_lib/fontx_k12x10.o
 .data          0x0004926c        0x0 obj/default/nd_lib/fontx_k6x10.o
 .data          0x0004926c        0x0 obj/default/nd_lib/nd_egl.o
 .data          0x0004926c        0x0 c:/develop/altera/12.1sp1/nios2eds/bin/gnu/h-i686-mingw32/bin/../lib/gcc/nios2-elf/4.1.2/../../../../nios2-elf/lib\libc.a(lib_a-fclose.o)
 .data          0x0004926c        0x0 c:/develop/altera/12.1sp1/nios2eds/bin/gnu/h-i686-mingw32/bin/../lib/gcc/nios2-elf/4.1.2/../../../../nios2-elf/lib\libc.a(lib_a-fflush.o)
 .data          0x0004926c        0x0 c:/develop/altera/12.1sp1/nios2eds/bin/gnu/h-i686-mingw32/bin/../lib/gcc/nios2-elf/4.1.2/../../../../nios2-elf/lib\libc.a(lib_a-findfp.o)
 .data          0x0004926c        0x0 c:/develop/altera/12.1sp1/nios2eds/bin/gnu/h-i686-mingw32/bin/../lib/gcc/nios2-elf/4.1.2/../../../../nios2-elf/lib\libc.a(lib_a-fopen.o)
 .data          0x0004926c        0x0 c:/develop/altera/12.1sp1/nios2eds/bin/gnu/h-i686-mingw32/bin/../lib/gcc/nios2-elf/4.1.2/../../../../nios2-elf/lib\libc.a(lib_a-fread.o)
 .data          0x0004926c        0x0 c:/develop/altera/12.1sp1/nios2eds/bin/gnu/h-i686-mingw32/bin/../lib/gcc/nios2-elf/4.1.2/../../../../nios2-elf/lib\libc.a(lib_a-freer.o)
 .data          0x0004926c        0x0 c:/develop/altera/12.1sp1/nios2eds/bin/gnu/h-i686-mingw32/bin/../lib/gcc/nios2-elf/4.1.2/../../../../nios2-elf/lib\libc.a(lib_a-fseek.o)
 .data          0x0004926c        0x0 c:/develop/altera/12.1sp1/nios2eds/bin/gnu/h-i686-mingw32/bin/../lib/gcc/nios2-elf/4.1.2/../../../../nios2-elf/lib\libc.a(lib_a-fstatr.o)
 .data          0x0004926c        0x0 c:/develop/altera/12.1sp1/nios2eds/bin/gnu/h-i686-mingw32/bin/../lib/gcc/nios2-elf/4.1.2/../../../../nios2-elf/lib\libc.a(lib_a-fwalk.o)
 .data          0x0004926c      0x400 c:/develop/altera/12.1sp1/nios2eds/bin/gnu/h-i686-mingw32/bin/../lib/gcc/nios2-elf/4.1.2/../../../../nios2-elf/lib\libc.a(lib_a-impure.o)
 .data          0x0004966c        0x0 c:/develop/altera/12.1sp1/nios2eds/bin/gnu/h-i686-mingw32/bin/../lib/gcc/nios2-elf/4.1.2/../../../../nios2-elf/lib\libc.a(lib_a-int_errno.o)
 .data          0x0004966c        0x0 c:/develop/altera/12.1sp1/nios2eds/bin/gnu/h-i686-mingw32/bin/../lib/gcc/nios2-elf/4.1.2/../../../../nios2-elf/lib\libc.a(lib_a-makebuf.o)
 .data          0x0004966c        0x0 c:/develop/altera/12.1sp1/nios2eds/bin/gnu/h-i686-mingw32/bin/../lib/gcc/nios2-elf/4.1.2/../../../../nios2-elf/lib\libc.a(lib_a-malloc.o)
 .data          0x0004966c      0x408 c:/develop/altera/12.1sp1/nios2eds/bin/gnu/h-i686-mingw32/bin/../lib/gcc/nios2-elf/4.1.2/../../../../nios2-elf/lib\libc.a(lib_a-mallocr.o)
                0x0004966c                __malloc_av_
 .data          0x00049a74        0x0 c:/develop/altera/12.1sp1/nios2eds/bin/gnu/h-i686-mingw32/bin/../lib/gcc/nios2-elf/4.1.2/../../../../nios2-elf/lib\libc.a(lib_a-memcpy.o)
 .data          0x00049a74        0x0 c:/develop/altera/12.1sp1/nios2eds/bin/gnu/h-i686-mingw32/bin/../lib/gcc/nios2-elf/4.1.2/../../../../nios2-elf/lib\libc.a(lib_a-memset.o)
 .data          0x00049a74        0x0 c:/develop/altera/12.1sp1/nios2eds/bin/gnu/h-i686-mingw32/bin/../lib/gcc/nios2-elf/4.1.2/../../../../nios2-elf/lib\libc.a(lib_a-openr.o)
 .data          0x00049a74        0x0 c:/develop/altera/12.1sp1/nios2eds/bin/gnu/h-i686-mingw32/bin/../lib/gcc/nios2-elf/4.1.2/../../../../nios2-elf/lib\libc.a(lib_a-printf.o)
 .data          0x00049a74        0x0 c:/develop/altera/12.1sp1/nios2eds/bin/gnu/h-i686-mingw32/bin/../lib/gcc/nios2-elf/4.1.2/../../../../nios2-elf/lib\libc.a(lib_a-puts.o)
 .data          0x00049a74        0x0 c:/develop/altera/12.1sp1/nios2eds/bin/gnu/h-i686-mingw32/bin/../lib/gcc/nios2-elf/4.1.2/../../../../nios2-elf/lib\libc.a(lib_a-refill.o)
 .data          0x00049a74        0x0 c:/develop/altera/12.1sp1/nios2eds/bin/gnu/h-i686-mingw32/bin/../lib/gcc/nios2-elf/4.1.2/../../../../nios2-elf/lib\libc.a(lib_a-sbrkr.o)
 .data          0x00049a74        0x0 c:/develop/altera/12.1sp1/nios2eds/bin/gnu/h-i686-mingw32/bin/../lib/gcc/nios2-elf/4.1.2/../../../../nios2-elf/lib\libc.a(lib_a-stdio.o)
 .data          0x00049a74        0x0 c:/develop/altera/12.1sp1/nios2eds/bin/gnu/h-i686-mingw32/bin/../lib/gcc/nios2-elf/4.1.2/../../../../nios2-elf/lib\libc.a(lib_a-strlen.o)
 .data          0x00049a74        0x0 c:/develop/altera/12.1sp1/nios2eds/bin/gnu/h-i686-mingw32/bin/../lib/gcc/nios2-elf/4.1.2/../../../../nios2-elf/lib\libc.a(lib_a-vfprintf.o)
 .data          0x00049a74        0x0 c:/develop/altera/12.1sp1/nios2eds/bin/gnu/h-i686-mingw32/bin/../lib/gcc/nios2-elf/4.1.2/../../../../nios2-elf/lib\libc.a(lib_a-writer.o)
 .data          0x00049a74        0x0 c:/develop/altera/12.1sp1/nios2eds/bin/gnu/h-i686-mingw32/bin/../lib/gcc/nios2-elf/4.1.2/../../../../nios2-elf/lib\libc.a(lib_a-wsetup.o)
 .data          0x00049a74        0x0 c:/develop/altera/12.1sp1/nios2eds/bin/gnu/h-i686-mingw32/bin/../lib/gcc/nios2-elf/4.1.2/../../../../nios2-elf/lib\libc.a(lib_a-closer.o)
 .data          0x00049a74        0x0 c:/develop/altera/12.1sp1/nios2eds/bin/gnu/h-i686-mingw32/bin/../lib/gcc/nios2-elf/4.1.2/../../../../nios2-elf/lib\libc.a(lib_a-dtoa.o)
 .data          0x00049a74        0x0 c:/develop/altera/12.1sp1/nios2eds/bin/gnu/h-i686-mingw32/bin/../lib/gcc/nios2-elf/4.1.2/../../../../nios2-elf/lib\libc.a(lib_a-flags.o)
 .data          0x00049a74        0x0 c:/develop/altera/12.1sp1/nios2eds/bin/gnu/h-i686-mingw32/bin/../lib/gcc/nios2-elf/4.1.2/../../../../nios2-elf/lib\libc.a(lib_a-fvwrite.o)
 .data          0x00049a74        0x0 c:/develop/altera/12.1sp1/nios2eds/bin/gnu/h-i686-mingw32/bin/../lib/gcc/nios2-elf/4.1.2/../../../../nios2-elf/lib\libc.a(lib_a-isattyr.o)
 .data          0x00049a74        0xc c:/develop/altera/12.1sp1/nios2eds/bin/gnu/h-i686-mingw32/bin/../lib/gcc/nios2-elf/4.1.2/../../../../nios2-elf/lib\libc.a(lib_a-locale.o)
                0x00049a74                __lc_ctype
 .data          0x00049a80        0x0 c:/develop/altera/12.1sp1/nios2eds/bin/gnu/h-i686-mingw32/bin/../lib/gcc/nios2-elf/4.1.2/../../../../nios2-elf/lib\libc.a(lib_a-lseekr.o)
 .data          0x00049a80        0x0 c:/develop/altera/12.1sp1/nios2eds/bin/gnu/h-i686-mingw32/bin/../lib/gcc/nios2-elf/4.1.2/../../../../nios2-elf/lib\libc.a(lib_a-memchr.o)
 .data          0x00049a80        0x0 c:/develop/altera/12.1sp1/nios2eds/bin/gnu/h-i686-mingw32/bin/../lib/gcc/nios2-elf/4.1.2/../../../../nios2-elf/lib\libc.a(lib_a-memmove.o)
 .data          0x00049a80        0x0 c:/develop/altera/12.1sp1/nios2eds/bin/gnu/h-i686-mingw32/bin/../lib/gcc/nios2-elf/4.1.2/../../../../nios2-elf/lib\libc.a(lib_a-mprec.o)
 .data          0x00049a80        0x0 c:/develop/altera/12.1sp1/nios2eds/bin/gnu/h-i686-mingw32/bin/../lib/gcc/nios2-elf/4.1.2/../../../../nios2-elf/lib\libc.a(lib_a-readr.o)
 .data          0x00049a80        0x0 c:/develop/altera/12.1sp1/nios2eds/bin/gnu/h-i686-mingw32/bin/../lib/gcc/nios2-elf/4.1.2/../../../../nios2-elf/lib\libc.a(lib_a-reallocr.o)
 .data          0x00049a80        0x0 c:/develop/altera/12.1sp1/nios2eds/bin/gnu/h-i686-mingw32/bin/../lib/gcc/nios2-elf/4.1.2/../../../../nios2-elf/lib\libc.a(lib_a-s_isinfd.o)
 .data          0x00049a80        0x0 c:/develop/altera/12.1sp1/nios2eds/bin/gnu/h-i686-mingw32/bin/../lib/gcc/nios2-elf/4.1.2/../../../../nios2-elf/lib\libc.a(lib_a-s_isnand.o)
 .data          0x00049a80        0x0 c:/develop/altera/12.1sp1/nios2eds/bin/gnu/h-i686-mingw32/bin/../lib/gcc/nios2-elf/4.1.2/../../../../nios2-elf/lib\libc.a(lib_a-strcmp.o)
 .data          0x00049a80        0x0 c:/develop/altera/12.1sp1/nios2eds/bin/gnu/h-i686-mingw32/bin/../lib/gcc/nios2-elf/4.1.2/../../../../nios2-elf/lib\libc.a(lib_a-callocr.o)
 .data          0x00049a80        0x0 c:/develop/altera/12.1sp1/nios2eds/bin/gnu/h-i686-mingw32/bin/../lib/gcc/nios2-elf/4.1.2\libgcc.a(_udivdi3.o)
 .data          0x00049a80        0x0 c:/develop/altera/12.1sp1/nios2eds/bin/gnu/h-i686-mingw32/bin/../lib/gcc/nios2-elf/4.1.2\libgcc.a(_umoddi3.o)
 .data          0x00049a80        0x0 c:/develop/altera/12.1sp1/nios2eds/bin/gnu/h-i686-mingw32/bin/../lib/gcc/nios2-elf/4.1.2\libgcc.a(_addsub_df.o)
 .data          0x00049a80        0x0 c:/develop/altera/12.1sp1/nios2eds/bin/gnu/h-i686-mingw32/bin/../lib/gcc/nios2-elf/4.1.2\libgcc.a(_mul_df.o)
 .data          0x00049a80        0x0 c:/develop/altera/12.1sp1/nios2eds/bin/gnu/h-i686-mingw32/bin/../lib/gcc/nios2-elf/4.1.2\libgcc.a(_div_df.o)
 .data          0x00049a80        0x0 c:/develop/altera/12.1sp1/nios2eds/bin/gnu/h-i686-mingw32/bin/../lib/gcc/nios2-elf/4.1.2\libgcc.a(_eq_df.o)
 .data          0x00049a80        0x0 c:/develop/altera/12.1sp1/nios2eds/bin/gnu/h-i686-mingw32/bin/../lib/gcc/nios2-elf/4.1.2\libgcc.a(_ne_df.o)
 .data          0x00049a80        0x0 c:/develop/altera/12.1sp1/nios2eds/bin/gnu/h-i686-mingw32/bin/../lib/gcc/nios2-elf/4.1.2\libgcc.a(_gt_df.o)
 .data          0x00049a80        0x0 c:/develop/altera/12.1sp1/nios2eds/bin/gnu/h-i686-mingw32/bin/../lib/gcc/nios2-elf/4.1.2\libgcc.a(_ge_df.o)
 .data          0x00049a80        0x0 c:/develop/altera/12.1sp1/nios2eds/bin/gnu/h-i686-mingw32/bin/../lib/gcc/nios2-elf/4.1.2\libgcc.a(_lt_df.o)
 .data          0x00049a80        0x0 c:/develop/altera/12.1sp1/nios2eds/bin/gnu/h-i686-mingw32/bin/../lib/gcc/nios2-elf/4.1.2\libgcc.a(_si_to_df.o)
 .data          0x00049a80        0x0 c:/develop/altera/12.1sp1/nios2eds/bin/gnu/h-i686-mingw32/bin/../lib/gcc/nios2-elf/4.1.2\libgcc.a(_df_to_si.o)
 .data          0x00049a80        0x0 c:/develop/altera/12.1sp1/nios2eds/bin/gnu/h-i686-mingw32/bin/../lib/gcc/nios2-elf/4.1.2\libgcc.a(_thenan_df.o)
 .data          0x00049a80        0x0 c:/develop/altera/12.1sp1/nios2eds/bin/gnu/h-i686-mingw32/bin/../lib/gcc/nios2-elf/4.1.2\libgcc.a(_usi_to_df.o)
 .data          0x00049a80        0x0 c:/develop/altera/12.1sp1/nios2eds/bin/gnu/h-i686-mingw32/bin/../lib/gcc/nios2-elf/4.1.2\libgcc.a(lib2-divmod.o)
 .data          0x00049a80        0x0 c:/develop/altera/12.1sp1/nios2eds/bin/gnu/h-i686-mingw32/bin/../lib/gcc/nios2-elf/4.1.2\libgcc.a(_muldi3.o)
 .data          0x00049a80        0x0 c:/develop/altera/12.1sp1/nios2eds/bin/gnu/h-i686-mingw32/bin/../lib/gcc/nios2-elf/4.1.2\libgcc.a(_clz.o)
 .data          0x00049a80        0x0 c:/develop/altera/12.1sp1/nios2eds/bin/gnu/h-i686-mingw32/bin/../lib/gcc/nios2-elf/4.1.2\libgcc.a(_clzsi2.o)
 .data          0x00049a80        0x0 c:/develop/altera/12.1sp1/nios2eds/bin/gnu/h-i686-mingw32/bin/../lib/gcc/nios2-elf/4.1.2\libgcc.a(_pack_df.o)
 .data          0x00049a80        0x0 c:/develop/altera/12.1sp1/nios2eds/bin/gnu/h-i686-mingw32/bin/../lib/gcc/nios2-elf/4.1.2\libgcc.a(_unpack_df.o)
 .data          0x00049a80        0x0 c:/develop/altera/12.1sp1/nios2eds/bin/gnu/h-i686-mingw32/bin/../lib/gcc/nios2-elf/4.1.2\libgcc.a(_fpcmp_parts_df.o)
 .data          0x00049a80        0x0 ../bmp_test_bsp/\libhal_bsp.a(alt_close.o)
 .data          0x00049a80        0x0 ../bmp_test_bsp/\libhal_bsp.a(alt_dcache_flush.o)
 .data          0x00049a80      0x1a8 ../bmp_test_bsp/\libhal_bsp.a(alt_dev.o)
                0x00049a80                alt_dev_null
                0x00049aa8                alt_fd_list
 .data          0x00049c28        0x0 ../bmp_test_bsp/\libhal_bsp.a(alt_errno.o)
 .data          0x00049c28        0x0 ../bmp_test_bsp/\libhal_bsp.a(alt_fs_reg.o)
 .data          0x00049c28        0x0 ../bmp_test_bsp/\libhal_bsp.a(alt_fstat.o)
 .data          0x00049c28        0x0 ../bmp_test_bsp/\libhal_bsp.a(alt_isatty.o)
 .data          0x00049c28        0x0 ../bmp_test_bsp/\libhal_bsp.a(alt_lseek.o)
 .data          0x00049c28        0x0 ../bmp_test_bsp/\libhal_bsp.a(alt_main.o)
 .data          0x00049c28        0x0 ../bmp_test_bsp/\libhal_bsp.a(alt_malloc_lock.o)
 .data          0x00049c28        0x0 ../bmp_test_bsp/\libhal_bsp.a(alt_open.o)
 .data          0x00049c28        0x0 ../bmp_test_bsp/\libhal_bsp.a(alt_read.o)
 .data          0x00049c28        0x0 ../bmp_test_bsp/\libhal_bsp.a(alt_release_fd.o)
 .data          0x00049c28        0x0 ../bmp_test_bsp/\libhal_bsp.a(alt_sbrk.o)
 .data          0x00049c28        0x0 ../bmp_test_bsp/\libhal_bsp.a(alt_usleep.o)
 .data          0x00049c28        0x0 ../bmp_test_bsp/\libhal_bsp.a(alt_write.o)
 .data          0x00049c28     0x11fc ../bmp_test_bsp/\libhal_bsp.a(alt_sys_init.o)
 .data          0x0004ae24        0x0 ../bmp_test_bsp/\libhal_bsp.a(altera_avalon_cfi_flash.o)
 .data          0x0004ae24        0x0 ../bmp_test_bsp/\libhal_bsp.a(altera_avalon_cfi_flash_table.o)
 .data          0x0004ae24        0x0 ../bmp_test_bsp/\libhal_bsp.a(altera_avalon_jtag_uart_fd.o)
 .data          0x0004ae24        0x0 ../bmp_test_bsp/\libhal_bsp.a(altera_avalon_jtag_uart_init.o)
 .data          0x0004ae24        0x0 ../bmp_test_bsp/\libhal_bsp.a(altera_avalon_jtag_uart_ioctl.o)
 .data          0x0004ae24        0x0 ../bmp_test_bsp/\libhal_bsp.a(altera_avalon_jtag_uart_read.o)
 .data          0x0004ae24        0x0 ../bmp_test_bsp/\libhal_bsp.a(altera_avalon_jtag_uart_write.o)
 .data          0x0004ae24        0x0 ../bmp_test_bsp/\libhal_bsp.a(altera_avalon_timer_sc.o)
 .data          0x0004ae24        0x0 ../bmp_test_bsp/\libhal_bsp.a(altera_avalon_uart_fd.o)
 .data          0x0004ae24        0x0 ../bmp_test_bsp/\libhal_bsp.a(altera_avalon_uart_init.o)
 .data          0x0004ae24        0x0 ../bmp_test_bsp/\libhal_bsp.a(altera_avalon_uart_read.o)
 .data          0x0004ae24        0x0 ../bmp_test_bsp/\libhal_bsp.a(altera_avalon_uart_write.o)
 .data          0x0004ae24        0x0 ../bmp_test_bsp/\libhal_bsp.a(alt_alarm_start.o)
 .data          0x0004ae24        0x0 ../bmp_test_bsp/\libhal_bsp.a(alt_busy_sleep.o)
 .data          0x0004ae24        0x0 ../bmp_test_bsp/\libhal_bsp.a(alt_dev_llist_insert.o)
 .data          0x0004ae24        0x0 ../bmp_test_bsp/\libhal_bsp.a(alt_do_ctors.o)
 .data          0x0004ae24        0x0 ../bmp_test_bsp/\libhal_bsp.a(alt_do_dtors.o)
 .data          0x0004ae24        0x0 ../bmp_test_bsp/\libhal_bsp.a(alt_find_dev.o)
 .data          0x0004ae24        0x0 ../bmp_test_bsp/\libhal_bsp.a(alt_find_file.o)
 .data          0x0004ae24        0x0 ../bmp_test_bsp/\libhal_bsp.a(alt_flash_dev.o)
 .data          0x0004ae24        0x0 ../bmp_test_bsp/\libhal_bsp.a(alt_get_fd.o)
 .data          0x0004ae24        0x0 ../bmp_test_bsp/\libhal_bsp.a(alt_iic.o)
 .data          0x0004ae24        0x0 ../bmp_test_bsp/\libhal_bsp.a(alt_iic_isr_register.o)
 .data          0x0004ae24        0x0 ../bmp_test_bsp/\libhal_bsp.a(alt_io_redirect.o)
 .data          0x0004ae24        0x0 ../bmp_test_bsp/\libhal_bsp.a(alt_irq_entry.o)
 .data          0x0004ae24        0x0 ../bmp_test_bsp/\libhal_bsp.a(alt_irq_handler.o)
 .data          0x0004ae24        0x0 ../bmp_test_bsp/\libhal_bsp.a(alt_irq_vars.o)
 .data          0x0004ae24        0x0 ../bmp_test_bsp/\libhal_bsp.a(alt_tick.o)
 .data          0x0004ae24        0x0 ../bmp_test_bsp/\libhal_bsp.a(altera_nios2_irq.o)
 .data          0x0004ae24        0x0 ../bmp_test_bsp/\libhal_bsp.a(altera_avalon_cfi_flash_amd.o)
 .data          0x0004ae24        0x0 ../bmp_test_bsp/\libhal_bsp.a(altera_avalon_cfi_flash_intel.o)
 .data          0x0004ae24        0x0 ../bmp_test_bsp/\libhal_bsp.a(alt_exception_entry.o)
 .data          0x0004ae24        0x0 c:/develop/altera/12.1sp1/nios2eds/bin/gnu/h-i686-mingw32/bin/../lib/gcc/nios2-elf/4.1.2/../../../../nios2-elf/lib\libc.a(lib_a-atexit.o)
 .data          0x0004ae24        0x0 c:/develop/altera/12.1sp1/nios2eds/bin/gnu/h-i686-mingw32/bin/../lib/gcc/nios2-elf/4.1.2/../../../../nios2-elf/lib\libc.a(lib_a-exit.o)
 .data          0x0004ae24        0x0 c:/develop/altera/12.1sp1/nios2eds/bin/gnu/h-i686-mingw32/bin/../lib/gcc/nios2-elf/4.1.2/../../../../nios2-elf/lib\libc.a(lib_a-memcmp.o)
 .data          0x0004ae24        0x0 c:/develop/altera/12.1sp1/nios2eds/bin/gnu/h-i686-mingw32/bin/../lib/gcc/nios2-elf/4.1.2/../../../../nios2-elf/lib\libc.a(lib_a-__atexit.o)
 .data          0x0004ae24        0x0 c:/develop/altera/12.1sp1/nios2eds/bin/gnu/h-i686-mingw32/bin/../lib/gcc/nios2-elf/4.1.2/../../../../nios2-elf/lib\libc.a(lib_a-__call_atexit.o)
 .data          0x0004ae24        0x0 ../bmp_test_bsp/\libhal_bsp.a(alt_exit.o)
                0x00052e24                _gp = ABSOLUTE ((. + 0x8000))
                0x00052e24                PROVIDE (gp, _gp)
 *(.rwdata .rwdata.*)
 *(.sdata .sdata.* .gnu.linkonce.s.*)
 .sdata         0x0004ae24        0x1 obj/default/mmcfs/fatfs/mmcbb.o
 *fill*         0x0004ae25        0x3 00
 .sdata         0x0004ae28        0x8 c:/develop/altera/12.1sp1/nios2eds/bin/gnu/h-i686-mingw32/bin/../lib/gcc/nios2-elf/4.1.2/../../../../nios2-elf/lib\libc.a(lib_a-impure.o)
                0x0004ae28                _impure_ptr
                0x0004ae2c                _global_impure_ptr
 .sdata         0x0004ae30        0x8 c:/develop/altera/12.1sp1/nios2eds/bin/gnu/h-i686-mingw32/bin/../lib/gcc/nios2-elf/4.1.2/../../../../nios2-elf/lib\libc.a(lib_a-mallocr.o)
                0x0004ae30                __malloc_trim_threshold
                0x0004ae34                __malloc_sbrk_base
 .sdata         0x0004ae38        0x8 c:/develop/altera/12.1sp1/nios2eds/bin/gnu/h-i686-mingw32/bin/../lib/gcc/nios2-elf/4.1.2/../../../../nios2-elf/lib\libc.a(lib_a-locale.o)
                0x0004ae38                __mb_cur_max
 .sdata         0x0004ae40       0x14 ../bmp_test_bsp/\libhal_bsp.a(alt_dev.o)
                0x0004ae40                alt_fs_list
                0x0004ae48                alt_dev_list
                0x0004ae50                alt_max_fd
 .sdata         0x0004ae54        0x4 ../bmp_test_bsp/\libhal_bsp.a(alt_errno.o)
                0x0004ae54                alt_errno
 .sdata         0x0004ae58        0x4 ../bmp_test_bsp/\libhal_bsp.a(alt_sbrk.o)
 .sdata         0x0004ae5c        0x8 ../bmp_test_bsp/\libhal_bsp.a(alt_flash_dev.o)
                0x0004ae5c                alt_flash_dev_list
 .sdata         0x0004ae64        0x4 ../bmp_test_bsp/\libhal_bsp.a(alt_irq_vars.o)
                0x0004ae64                alt_priority_mask
 .sdata         0x0004ae68        0x8 ../bmp_test_bsp/\libhal_bsp.a(alt_tick.o)
                0x0004ae68                alt_alarm_list
 *(.sdata2 .sdata2.* .gnu.linkonce.s2.*)
                0x0004ae70                . = ALIGN (0x4)
                0x0004ae70                _edata = ABSOLUTE (.)
                0x0004ae70                PROVIDE (edata, ABSOLUTE (.))
                0x0004ae70                PROVIDE (__ram_rwdata_end, ABSOLUTE (.))
                0x00049244                PROVIDE (__flash_rwdata_start, LOADADDR (.rwdata))

.bss            0x0004ae70     0x29d4
                0x0004ae70                __bss_start = ABSOLUTE (.)
                0x0004ae70                PROVIDE (__sbss_start, ABSOLUTE (.))
                0x0004ae70                PROVIDE (___sbss_start, ABSOLUTE (.))
 *(.dynsbss)
 *(.sbss .sbss.* .gnu.linkonce.sb.*)
 .sbss          0x0004ae70        0x8 obj/default/mmcfs/fatfs/ff.o
 .sbss          0x0004ae78        0x1 obj/default/mmcfs/fatfs/mmcbb.o
 *fill*         0x0004ae79        0x3 00
 .sbss          0x0004ae7c        0x8 obj/default/mmcfs/mmc_spi.o
 .sbss          0x0004ae84        0x4 obj/default/mmcfs/mmcfs.o
 .sbss          0x0004ae88       0x14 obj/default/nd_lib/nd_egl.o
 .sbss          0x0004ae9c        0xc obj/default/nd_lib/nd_egl.o
                0x0004ae9c                nd_GsVgaVsyncCount
                0x0004aea0                nd_GsEglDrawBuffer
                0x0004aea4                nd_GsVgaVsyncFlag
 .sbss          0x0004aea8        0x4 c:/develop/altera/12.1sp1/nios2eds/bin/gnu/h-i686-mingw32/bin/../lib/gcc/nios2-elf/4.1.2/../../../../nios2-elf/lib\libc.a(lib_a-int_errno.o)
                0x0004aea8                errno
 .sbss          0x0004aeac        0xc c:/develop/altera/12.1sp1/nios2eds/bin/gnu/h-i686-mingw32/bin/../lib/gcc/nios2-elf/4.1.2/../../../../nios2-elf/lib\libc.a(lib_a-mallocr.o)
                0x0004aeac                __malloc_top_pad
                0x0004aeb0                __malloc_max_sbrked_mem
                0x0004aeb4                __malloc_max_total_mem
 .sbss          0x0004aeb8        0xc c:/develop/altera/12.1sp1/nios2eds/bin/gnu/h-i686-mingw32/bin/../lib/gcc/nios2-elf/4.1.2/../../../../nios2-elf/lib\libc.a(lib_a-locale.o)
                0x0004aeb8                __nlocale_changed
                0x0004aebc                __mlocale_changed
                0x0004aec0                _PathLocale
 .sbss          0x0004aec4        0xc ../bmp_test_bsp/\libhal_bsp.a(alt_main.o)
                0x0004aec4                alt_argc
                0x0004aec8                alt_argv
                0x0004aecc                alt_envp
 .sbss          0x0004aed0        0x4 ../bmp_test_bsp/\libhal_bsp.a(alt_irq_vars.o)
                0x0004aed0                alt_irq_active
 .sbss          0x0004aed4        0x8 ../bmp_test_bsp/\libhal_bsp.a(alt_tick.o)
                0x0004aed4                _alt_tick_rate
                0x0004aed8                _alt_nticks
 *(.sbss2 .sbss2.* .gnu.linkonce.sb2.*)
 *(.scommon)
                0x0004aedc                PROVIDE (__sbss_end, ABSOLUTE (.))
                0x0004aedc                PROVIDE (___sbss_end, ABSOLUTE (.))
 *(.dynbss)
 *(.bss .bss.* .gnu.linkonce.b.*)
 .bss           0x0004aedc        0x0 ../bmp_test_bsp//obj/HAL/src/crt0.o
 .bss           0x0004aedc        0x0 obj/default/bmp_test.o
 .bss           0x0004aedc      0x200 obj/default/mmcfs/fatfs/ff.o
 .bss           0x0004b0dc        0x0 obj/default/mmcfs/fatfs/mmcbb.o
 .bss           0x0004b0dc        0x0 obj/default/mmcfs/fatfs/option/cc932.o
 .bss           0x0004b0dc        0x0 obj/default/mmcfs/gettime.o
 .bss           0x0004b0dc        0x0 obj/default/mmcfs/mmc_spi.o
 .bss           0x0004b0dc     0x24b0 obj/default/mmcfs/mmcfs.o
 .bss           0x0004d58c        0x0 obj/default/nd_lib/fontx_k12x10.o
 .bss           0x0004d58c        0x0 obj/default/nd_lib/fontx_k6x10.o
 .bss           0x0004d58c        0x0 obj/default/nd_lib/nd_egl.o
 .bss           0x0004d58c        0x0 c:/develop/altera/12.1sp1/nios2eds/bin/gnu/h-i686-mingw32/bin/../lib/gcc/nios2-elf/4.1.2/../../../../nios2-elf/lib\libc.a(lib_a-fclose.o)
 .bss           0x0004d58c        0x0 c:/develop/altera/12.1sp1/nios2eds/bin/gnu/h-i686-mingw32/bin/../lib/gcc/nios2-elf/4.1.2/../../../../nios2-elf/lib\libc.a(lib_a-fflush.o)
 .bss           0x0004d58c        0x0 c:/develop/altera/12.1sp1/nios2eds/bin/gnu/h-i686-mingw32/bin/../lib/gcc/nios2-elf/4.1.2/../../../../nios2-elf/lib\libc.a(lib_a-findfp.o)
 .bss           0x0004d58c        0x0 c:/develop/altera/12.1sp1/nios2eds/bin/gnu/h-i686-mingw32/bin/../lib/gcc/nios2-elf/4.1.2/../../../../nios2-elf/lib\libc.a(lib_a-fopen.o)
 .bss           0x0004d58c        0x0 c:/develop/altera/12.1sp1/nios2eds/bin/gnu/h-i686-mingw32/bin/../lib/gcc/nios2-elf/4.1.2/../../../../nios2-elf/lib\libc.a(lib_a-fread.o)
 .bss           0x0004d58c        0x0 c:/develop/altera/12.1sp1/nios2eds/bin/gnu/h-i686-mingw32/bin/../lib/gcc/nios2-elf/4.1.2/../../../../nios2-elf/lib\libc.a(lib_a-freer.o)
 .bss           0x0004d58c        0x0 c:/develop/altera/12.1sp1/nios2eds/bin/gnu/h-i686-mingw32/bin/../lib/gcc/nios2-elf/4.1.2/../../../../nios2-elf/lib\libc.a(lib_a-fseek.o)
 .bss           0x0004d58c        0x0 c:/develop/altera/12.1sp1/nios2eds/bin/gnu/h-i686-mingw32/bin/../lib/gcc/nios2-elf/4.1.2/../../../../nios2-elf/lib\libc.a(lib_a-fstatr.o)
 .bss           0x0004d58c        0x0 c:/develop/altera/12.1sp1/nios2eds/bin/gnu/h-i686-mingw32/bin/../lib/gcc/nios2-elf/4.1.2/../../../../nios2-elf/lib\libc.a(lib_a-fwalk.o)
 .bss           0x0004d58c        0x0 c:/develop/altera/12.1sp1/nios2eds/bin/gnu/h-i686-mingw32/bin/../lib/gcc/nios2-elf/4.1.2/../../../../nios2-elf/lib\libc.a(lib_a-impure.o)
 .bss           0x0004d58c        0x0 c:/develop/altera/12.1sp1/nios2eds/bin/gnu/h-i686-mingw32/bin/../lib/gcc/nios2-elf/4.1.2/../../../../nios2-elf/lib\libc.a(lib_a-int_errno.o)
 .bss           0x0004d58c        0x0 c:/develop/altera/12.1sp1/nios2eds/bin/gnu/h-i686-mingw32/bin/../lib/gcc/nios2-elf/4.1.2/../../../../nios2-elf/lib\libc.a(lib_a-makebuf.o)
 .bss           0x0004d58c        0x0 c:/develop/altera/12.1sp1/nios2eds/bin/gnu/h-i686-mingw32/bin/../lib/gcc/nios2-elf/4.1.2/../../../../nios2-elf/lib\libc.a(lib_a-malloc.o)
 .bss           0x0004d58c       0x28 c:/develop/altera/12.1sp1/nios2eds/bin/gnu/h-i686-mingw32/bin/../lib/gcc/nios2-elf/4.1.2/../../../../nios2-elf/lib\libc.a(lib_a-mallocr.o)
                0x0004d58c                __malloc_current_mallinfo
 .bss           0x0004d5b4        0x0 c:/develop/altera/12.1sp1/nios2eds/bin/gnu/h-i686-mingw32/bin/../lib/gcc/nios2-elf/4.1.2/../../../../nios2-elf/lib\libc.a(lib_a-memcpy.o)
 .bss           0x0004d5b4        0x0 c:/develop/altera/12.1sp1/nios2eds/bin/gnu/h-i686-mingw32/bin/../lib/gcc/nios2-elf/4.1.2/../../../../nios2-elf/lib\libc.a(lib_a-memset.o)
 .bss           0x0004d5b4        0x0 c:/develop/altera/12.1sp1/nios2eds/bin/gnu/h-i686-mingw32/bin/../lib/gcc/nios2-elf/4.1.2/../../../../nios2-elf/lib\libc.a(lib_a-openr.o)
 .bss           0x0004d5b4        0x0 c:/develop/altera/12.1sp1/nios2eds/bin/gnu/h-i686-mingw32/bin/../lib/gcc/nios2-elf/4.1.2/../../../../nios2-elf/lib\libc.a(lib_a-printf.o)
 .bss           0x0004d5b4        0x0 c:/develop/altera/12.1sp1/nios2eds/bin/gnu/h-i686-mingw32/bin/../lib/gcc/nios2-elf/4.1.2/../../../../nios2-elf/lib\libc.a(lib_a-puts.o)
 .bss           0x0004d5b4        0x0 c:/develop/altera/12.1sp1/nios2eds/bin/gnu/h-i686-mingw32/bin/../lib/gcc/nios2-elf/4.1.2/../../../../nios2-elf/lib\libc.a(lib_a-refill.o)
 .bss           0x0004d5b4        0x0 c:/develop/altera/12.1sp1/nios2eds/bin/gnu/h-i686-mingw32/bin/../lib/gcc/nios2-elf/4.1.2/../../../../nios2-elf/lib\libc.a(lib_a-sbrkr.o)
 .bss           0x0004d5b4        0x0 c:/develop/altera/12.1sp1/nios2eds/bin/gnu/h-i686-mingw32/bin/../lib/gcc/nios2-elf/4.1.2/../../../../nios2-elf/lib\libc.a(lib_a-stdio.o)
 .bss           0x0004d5b4        0x0 c:/develop/altera/12.1sp1/nios2eds/bin/gnu/h-i686-mingw32/bin/../lib/gcc/nios2-elf/4.1.2/../../../../nios2-elf/lib\libc.a(lib_a-strlen.o)
 .bss           0x0004d5b4        0x0 c:/develop/altera/12.1sp1/nios2eds/bin/gnu/h-i686-mingw32/bin/../lib/gcc/nios2-elf/4.1.2/../../../../nios2-elf/lib\libc.a(lib_a-vfprintf.o)
 .bss           0x0004d5b4        0x0 c:/develop/altera/12.1sp1/nios2eds/bin/gnu/h-i686-mingw32/bin/../lib/gcc/nios2-elf/4.1.2/../../../../nios2-elf/lib\libc.a(lib_a-writer.o)
 .bss           0x0004d5b4        0x0 c:/develop/altera/12.1sp1/nios2eds/bin/gnu/h-i686-mingw32/bin/../lib/gcc/nios2-elf/4.1.2/../../../../nios2-elf/lib\libc.a(lib_a-wsetup.o)
 .bss           0x0004d5b4        0x0 c:/develop/altera/12.1sp1/nios2eds/bin/gnu/h-i686-mingw32/bin/../lib/gcc/nios2-elf/4.1.2/../../../../nios2-elf/lib\libc.a(lib_a-closer.o)
 .bss           0x0004d5b4        0x0 c:/develop/altera/12.1sp1/nios2eds/bin/gnu/h-i686-mingw32/bin/../lib/gcc/nios2-elf/4.1.2/../../../../nios2-elf/lib\libc.a(lib_a-dtoa.o)
 .bss           0x0004d5b4        0x0 c:/develop/altera/12.1sp1/nios2eds/bin/gnu/h-i686-mingw32/bin/../lib/gcc/nios2-elf/4.1.2/../../../../nios2-elf/lib\libc.a(lib_a-flags.o)
 .bss           0x0004d5b4        0x0 c:/develop/altera/12.1sp1/nios2eds/bin/gnu/h-i686-mingw32/bin/../lib/gcc/nios2-elf/4.1.2/../../../../nios2-elf/lib\libc.a(lib_a-fvwrite.o)
 .bss           0x0004d5b4        0x0 c:/develop/altera/12.1sp1/nios2eds/bin/gnu/h-i686-mingw32/bin/../lib/gcc/nios2-elf/4.1.2/../../../../nios2-elf/lib\libc.a(lib_a-isattyr.o)
 .bss           0x0004d5b4        0x0 c:/develop/altera/12.1sp1/nios2eds/bin/gnu/h-i686-mingw32/bin/../lib/gcc/nios2-elf/4.1.2/../../../../nios2-elf/lib\libc.a(lib_a-locale.o)
 .bss           0x0004d5b4        0x0 c:/develop/altera/12.1sp1/nios2eds/bin/gnu/h-i686-mingw32/bin/../lib/gcc/nios2-elf/4.1.2/../../../../nios2-elf/lib\libc.a(lib_a-lseekr.o)
 .bss           0x0004d5b4        0x0 c:/develop/altera/12.1sp1/nios2eds/bin/gnu/h-i686-mingw32/bin/../lib/gcc/nios2-elf/4.1.2/../../../../nios2-elf/lib\libc.a(lib_a-memchr.o)
 .bss           0x0004d5b4        0x0 c:/develop/altera/12.1sp1/nios2eds/bin/gnu/h-i686-mingw32/bin/../lib/gcc/nios2-elf/4.1.2/../../../../nios2-elf/lib\libc.a(lib_a-memmove.o)
 .bss           0x0004d5b4        0x0 c:/develop/altera/12.1sp1/nios2eds/bin/gnu/h-i686-mingw32/bin/../lib/gcc/nios2-elf/4.1.2/../../../../nios2-elf/lib\libc.a(lib_a-mprec.o)
 .bss           0x0004d5b4        0x0 c:/develop/altera/12.1sp1/nios2eds/bin/gnu/h-i686-mingw32/bin/../lib/gcc/nios2-elf/4.1.2/../../../../nios2-elf/lib\libc.a(lib_a-readr.o)
 .bss           0x0004d5b4        0x0 c:/develop/altera/12.1sp1/nios2eds/bin/gnu/h-i686-mingw32/bin/../lib/gcc/nios2-elf/4.1.2/../../../../nios2-elf/lib\libc.a(lib_a-reallocr.o)
 .bss           0x0004d5b4        0x0 c:/develop/altera/12.1sp1/nios2eds/bin/gnu/h-i686-mingw32/bin/../lib/gcc/nios2-elf/4.1.2/../../../../nios2-elf/lib\libc.a(lib_a-s_isinfd.o)
 .bss           0x0004d5b4        0x0 c:/develop/altera/12.1sp1/nios2eds/bin/gnu/h-i686-mingw32/bin/../lib/gcc/nios2-elf/4.1.2/../../../../nios2-elf/lib\libc.a(lib_a-s_isnand.o)
 .bss           0x0004d5b4        0x0 c:/develop/altera/12.1sp1/nios2eds/bin/gnu/h-i686-mingw32/bin/../lib/gcc/nios2-elf/4.1.2/../../../../nios2-elf/lib\libc.a(lib_a-strcmp.o)
 .bss           0x0004d5b4        0x0 c:/develop/altera/12.1sp1/nios2eds/bin/gnu/h-i686-mingw32/bin/../lib/gcc/nios2-elf/4.1.2/../../../../nios2-elf/lib\libc.a(lib_a-callocr.o)
 .bss           0x0004d5b4        0x0 c:/develop/altera/12.1sp1/nios2eds/bin/gnu/h-i686-mingw32/bin/../lib/gcc/nios2-elf/4.1.2\libgcc.a(_udivdi3.o)
 .bss           0x0004d5b4        0x0 c:/develop/altera/12.1sp1/nios2eds/bin/gnu/h-i686-mingw32/bin/../lib/gcc/nios2-elf/4.1.2\libgcc.a(_umoddi3.o)
 .bss           0x0004d5b4        0x0 c:/develop/altera/12.1sp1/nios2eds/bin/gnu/h-i686-mingw32/bin/../lib/gcc/nios2-elf/4.1.2\libgcc.a(_addsub_df.o)
 .bss           0x0004d5b4        0x0 c:/develop/altera/12.1sp1/nios2eds/bin/gnu/h-i686-mingw32/bin/../lib/gcc/nios2-elf/4.1.2\libgcc.a(_mul_df.o)
 .bss           0x0004d5b4        0x0 c:/develop/altera/12.1sp1/nios2eds/bin/gnu/h-i686-mingw32/bin/../lib/gcc/nios2-elf/4.1.2\libgcc.a(_div_df.o)
 .bss           0x0004d5b4        0x0 c:/develop/altera/12.1sp1/nios2eds/bin/gnu/h-i686-mingw32/bin/../lib/gcc/nios2-elf/4.1.2\libgcc.a(_eq_df.o)
 .bss           0x0004d5b4        0x0 c:/develop/altera/12.1sp1/nios2eds/bin/gnu/h-i686-mingw32/bin/../lib/gcc/nios2-elf/4.1.2\libgcc.a(_ne_df.o)
 .bss           0x0004d5b4        0x0 c:/develop/altera/12.1sp1/nios2eds/bin/gnu/h-i686-mingw32/bin/../lib/gcc/nios2-elf/4.1.2\libgcc.a(_gt_df.o)
 .bss           0x0004d5b4        0x0 c:/develop/altera/12.1sp1/nios2eds/bin/gnu/h-i686-mingw32/bin/../lib/gcc/nios2-elf/4.1.2\libgcc.a(_ge_df.o)
 .bss           0x0004d5b4        0x0 c:/develop/altera/12.1sp1/nios2eds/bin/gnu/h-i686-mingw32/bin/../lib/gcc/nios2-elf/4.1.2\libgcc.a(_lt_df.o)
 .bss           0x0004d5b4        0x0 c:/develop/altera/12.1sp1/nios2eds/bin/gnu/h-i686-mingw32/bin/../lib/gcc/nios2-elf/4.1.2\libgcc.a(_si_to_df.o)
 .bss           0x0004d5b4        0x0 c:/develop/altera/12.1sp1/nios2eds/bin/gnu/h-i686-mingw32/bin/../lib/gcc/nios2-elf/4.1.2\libgcc.a(_df_to_si.o)
 .bss           0x0004d5b4        0x0 c:/develop/altera/12.1sp1/nios2eds/bin/gnu/h-i686-mingw32/bin/../lib/gcc/nios2-elf/4.1.2\libgcc.a(_thenan_df.o)
 .bss           0x0004d5b4        0x0 c:/develop/altera/12.1sp1/nios2eds/bin/gnu/h-i686-mingw32/bin/../lib/gcc/nios2-elf/4.1.2\libgcc.a(_usi_to_df.o)
 .bss           0x0004d5b4        0x0 c:/develop/altera/12.1sp1/nios2eds/bin/gnu/h-i686-mingw32/bin/../lib/gcc/nios2-elf/4.1.2\libgcc.a(lib2-divmod.o)
 .bss           0x0004d5b4        0x0 c:/develop/altera/12.1sp1/nios2eds/bin/gnu/h-i686-mingw32/bin/../lib/gcc/nios2-elf/4.1.2\libgcc.a(_muldi3.o)
 .bss           0x0004d5b4        0x0 c:/develop/altera/12.1sp1/nios2eds/bin/gnu/h-i686-mingw32/bin/../lib/gcc/nios2-elf/4.1.2\libgcc.a(_clz.o)
 .bss           0x0004d5b4        0x0 c:/develop/altera/12.1sp1/nios2eds/bin/gnu/h-i686-mingw32/bin/../lib/gcc/nios2-elf/4.1.2\libgcc.a(_clzsi2.o)
 .bss           0x0004d5b4        0x0 c:/develop/altera/12.1sp1/nios2eds/bin/gnu/h-i686-mingw32/bin/../lib/gcc/nios2-elf/4.1.2\libgcc.a(_pack_df.o)
 .bss           0x0004d5b4        0x0 c:/develop/altera/12.1sp1/nios2eds/bin/gnu/h-i686-mingw32/bin/../lib/gcc/nios2-elf/4.1.2\libgcc.a(_unpack_df.o)
 .bss           0x0004d5b4        0x0 c:/develop/altera/12.1sp1/nios2eds/bin/gnu/h-i686-mingw32/bin/../lib/gcc/nios2-elf/4.1.2\libgcc.a(_fpcmp_parts_df.o)
 .bss           0x0004d5b4        0x0 ../bmp_test_bsp/\libhal_bsp.a(alt_close.o)
 .bss           0x0004d5b4        0x0 ../bmp_test_bsp/\libhal_bsp.a(alt_dcache_flush.o)
 .bss           0x0004d5b4        0x0 ../bmp_test_bsp/\libhal_bsp.a(alt_dev.o)
 .bss           0x0004d5b4        0x0 ../bmp_test_bsp/\libhal_bsp.a(alt_errno.o)
 .bss           0x0004d5b4        0x0 ../bmp_test_bsp/\libhal_bsp.a(alt_fs_reg.o)
 .bss           0x0004d5b4        0x0 ../bmp_test_bsp/\libhal_bsp.a(alt_fstat.o)
 .bss           0x0004d5b4        0x0 ../bmp_test_bsp/\libhal_bsp.a(alt_isatty.o)
 .bss           0x0004d5b4        0x0 ../bmp_test_bsp/\libhal_bsp.a(alt_lseek.o)
 .bss           0x0004d5b4        0x0 ../bmp_test_bsp/\libhal_bsp.a(alt_main.o)
 .bss           0x0004d5b4        0x0 ../bmp_test_bsp/\libhal_bsp.a(alt_malloc_lock.o)
 .bss           0x0004d5b4        0x0 ../bmp_test_bsp/\libhal_bsp.a(alt_open.o)
 .bss           0x0004d5b4        0x0 ../bmp_test_bsp/\libhal_bsp.a(alt_read.o)
 .bss           0x0004d5b4        0x0 ../bmp_test_bsp/\libhal_bsp.a(alt_release_fd.o)
 .bss           0x0004d5b4        0x0 ../bmp_test_bsp/\libhal_bsp.a(alt_sbrk.o)
 .bss           0x0004d5b4        0x0 ../bmp_test_bsp/\libhal_bsp.a(alt_usleep.o)
 .bss           0x0004d5b4        0x0 ../bmp_test_bsp/\libhal_bsp.a(alt_write.o)
 .bss           0x0004d5b4        0x0 ../bmp_test_bsp/\libhal_bsp.a(alt_sys_init.o)
 .bss           0x0004d5b4        0x0 ../bmp_test_bsp/\libhal_bsp.a(altera_avalon_cfi_flash.o)
 .bss           0x0004d5b4        0x0 ../bmp_test_bsp/\libhal_bsp.a(altera_avalon_cfi_flash_table.o)
 .bss           0x0004d5b4        0x0 ../bmp_test_bsp/\libhal_bsp.a(altera_avalon_jtag_uart_fd.o)
 .bss           0x0004d5b4        0x0 ../bmp_test_bsp/\libhal_bsp.a(altera_avalon_jtag_uart_init.o)
 .bss           0x0004d5b4        0x0 ../bmp_test_bsp/\libhal_bsp.a(altera_avalon_jtag_uart_ioctl.o)
 .bss           0x0004d5b4        0x0 ../bmp_test_bsp/\libhal_bsp.a(altera_avalon_jtag_uart_read.o)
 .bss           0x0004d5b4        0x0 ../bmp_test_bsp/\libhal_bsp.a(altera_avalon_jtag_uart_write.o)
 .bss           0x0004d5b4        0x0 ../bmp_test_bsp/\libhal_bsp.a(altera_avalon_timer_sc.o)
 .bss           0x0004d5b4        0x0 ../bmp_test_bsp/\libhal_bsp.a(altera_avalon_uart_fd.o)
 .bss           0x0004d5b4        0x0 ../bmp_test_bsp/\libhal_bsp.a(altera_avalon_uart_init.o)
 .bss           0x0004d5b4        0x0 ../bmp_test_bsp/\libhal_bsp.a(altera_avalon_uart_read.o)
 .bss           0x0004d5b4        0x0 ../bmp_test_bsp/\libhal_bsp.a(altera_avalon_uart_write.o)
 .bss           0x0004d5b4        0x0 ../bmp_test_bsp/\libhal_bsp.a(alt_alarm_start.o)
 .bss           0x0004d5b4        0x0 ../bmp_test_bsp/\libhal_bsp.a(alt_busy_sleep.o)
 .bss           0x0004d5b4        0x0 ../bmp_test_bsp/\libhal_bsp.a(alt_dev_llist_insert.o)
 .bss           0x0004d5b4        0x0 ../bmp_test_bsp/\libhal_bsp.a(alt_do_ctors.o)
 .bss           0x0004d5b4        0x0 ../bmp_test_bsp/\libhal_bsp.a(alt_do_dtors.o)
 .bss           0x0004d5b4        0x0 ../bmp_test_bsp/\libhal_bsp.a(alt_find_dev.o)
 .bss           0x0004d5b4        0x0 ../bmp_test_bsp/\libhal_bsp.a(alt_find_file.o)
 .bss           0x0004d5b4        0x0 ../bmp_test_bsp/\libhal_bsp.a(alt_flash_dev.o)
 .bss           0x0004d5b4        0x0 ../bmp_test_bsp/\libhal_bsp.a(alt_get_fd.o)
 .bss           0x0004d5b4        0x0 ../bmp_test_bsp/\libhal_bsp.a(alt_iic.o)
 .bss           0x0004d5b4        0x0 ../bmp_test_bsp/\libhal_bsp.a(alt_iic_isr_register.o)
 .bss           0x0004d5b4        0x0 ../bmp_test_bsp/\libhal_bsp.a(alt_io_redirect.o)
 .bss           0x0004d5b4        0x0 ../bmp_test_bsp/\libhal_bsp.a(alt_irq_entry.o)
 .bss           0x0004d5b4        0x0 ../bmp_test_bsp/\libhal_bsp.a(alt_irq_handler.o)
 .bss           0x0004d5b4        0x0 ../bmp_test_bsp/\libhal_bsp.a(alt_irq_vars.o)
 .bss           0x0004d5b4        0x0 ../bmp_test_bsp/\libhal_bsp.a(alt_tick.o)
 .bss           0x0004d5b4        0x0 ../bmp_test_bsp/\libhal_bsp.a(altera_nios2_irq.o)
 .bss           0x0004d5b4        0x0 ../bmp_test_bsp/\libhal_bsp.a(altera_avalon_cfi_flash_amd.o)
 .bss           0x0004d5b4        0x0 ../bmp_test_bsp/\libhal_bsp.a(altera_avalon_cfi_flash_intel.o)
 .bss           0x0004d5b4        0x0 ../bmp_test_bsp/\libhal_bsp.a(alt_exception_entry.o)
 .bss           0x0004d5b4        0x0 c:/develop/altera/12.1sp1/nios2eds/bin/gnu/h-i686-mingw32/bin/../lib/gcc/nios2-elf/4.1.2/../../../../nios2-elf/lib\libc.a(lib_a-atexit.o)
 .bss           0x0004d5b4        0x0 c:/develop/altera/12.1sp1/nios2eds/bin/gnu/h-i686-mingw32/bin/../lib/gcc/nios2-elf/4.1.2/../../../../nios2-elf/lib\libc.a(lib_a-exit.o)
 .bss           0x0004d5b4        0x0 c:/develop/altera/12.1sp1/nios2eds/bin/gnu/h-i686-mingw32/bin/../lib/gcc/nios2-elf/4.1.2/../../../../nios2-elf/lib\libc.a(lib_a-memcmp.o)
 .bss           0x0004d5b4        0x0 c:/develop/altera/12.1sp1/nios2eds/bin/gnu/h-i686-mingw32/bin/../lib/gcc/nios2-elf/4.1.2/../../../../nios2-elf/lib\libc.a(lib_a-__atexit.o)
 .bss           0x0004d5b4        0x0 c:/develop/altera/12.1sp1/nios2eds/bin/gnu/h-i686-mingw32/bin/../lib/gcc/nios2-elf/4.1.2/../../../../nios2-elf/lib\libc.a(lib_a-__call_atexit.o)
 .bss           0x0004d5b4        0x0 ../bmp_test_bsp/\libhal_bsp.a(alt_exit.o)
 *(COMMON)
 COMMON         0x0004d5b4      0x100 ../bmp_test_bsp/\libhal_bsp.a(alt_irq_handler.o)
                0x0004d5b4                alt_irq
 COMMON         0x0004d6b4      0x190 c:/develop/altera/12.1sp1/nios2eds/bin/gnu/h-i686-mingw32/bin/../lib/gcc/nios2-elf/4.1.2/../../../../nios2-elf/lib\libc.a(lib_a-atexit.o)
                0x0004d6b4                _atexit0
                0x0004d844                . = ALIGN (0x4)
                0x0004d844                __bss_end = ABSOLUTE (.)

.sdram          0x0004d844        0x0
                0x0004d844                PROVIDE (_alt_partition_sdram_start, ABSOLUTE (.))
 *(.sdram. sdram.*)
                0x0004d844                . = ALIGN (0x4)
                0x0004d844                PROVIDE (_alt_partition_sdram_end, ABSOLUTE (.))
                0x0004d844                _end = ABSOLUTE (.)
                0x0004d844                end = ABSOLUTE (.)
                0x0004d844                __alt_stack_base = ABSOLUTE (.)
                0x0004d844                PROVIDE (_alt_partition_sdram_load_addr, LOADADDR (.sdram))

.ext_flash      0x04000000        0x0
                0x04000000                PROVIDE (_alt_partition_ext_flash_start, ABSOLUTE (.))
 *(.ext_flash. ext_flash.*)
                0x04000000                . = ALIGN (0x4)
                0x04000000                PROVIDE (_alt_partition_ext_flash_end, ABSOLUTE (.))
                0x04000000                PROVIDE (_alt_partition_ext_flash_load_addr, LOADADDR (.ext_flash))

.ipl_memory     0x0f000020        0x0
                0x0f000020                PROVIDE (_alt_partition_ipl_memory_start, ABSOLUTE (.))
 *(.ipl_memory. ipl_memory.*)
                0x0f000020                . = ALIGN (0x4)
                0x0f000020                PROVIDE (_alt_partition_ipl_memory_end, ABSOLUTE (.))
                0x0f000020                PROVIDE (_alt_partition_ipl_memory_load_addr, LOADADDR (.ipl_memory))

.stab
 *(.stab)

.stabstr
 *(.stabstr)

.stab.excl
 *(.stab.excl)

.stab.exclstr
 *(.stab.exclstr)

.stab.index
 *(.stab.index)

.stab.indexstr
 *(.stab.indexstr)

.comment        0x00000000       0x26
 *(.comment)
 .comment       0x00000000       0x26 obj/default/bmp_test.o
                                 0x27 (size before relaxing)
 .comment       0x00000000       0x27 obj/default/mmcfs/fatfs/ff.o
 .comment       0x00000000       0x27 obj/default/mmcfs/fatfs/mmcbb.o
 .comment       0x00000000       0x27 obj/default/mmcfs/fatfs/option/cc932.o
 .comment       0x00000000       0x27 obj/default/mmcfs/gettime.o
 .comment       0x00000000       0x27 obj/default/mmcfs/mmc_spi.o
 .comment       0x00000000       0x27 obj/default/mmcfs/mmcfs.o
 .comment       0x00000000       0x27 obj/default/nd_lib/fontx_k12x10.o
 .comment       0x00000000       0x27 obj/default/nd_lib/fontx_k6x10.o
 .comment       0x00000000       0x27 obj/default/nd_lib/nd_egl.o
 .comment       0x00000000       0x27 c:/develop/altera/12.1sp1/nios2eds/bin/gnu/h-i686-mingw32/bin/../lib/gcc/nios2-elf/4.1.2/../../../../nios2-elf/lib\libc.a(lib_a-fclose.o)
 .comment       0x00000000       0x27 c:/develop/altera/12.1sp1/nios2eds/bin/gnu/h-i686-mingw32/bin/../lib/gcc/nios2-elf/4.1.2/../../../../nios2-elf/lib\libc.a(lib_a-fflush.o)
 .comment       0x00000000       0x27 c:/develop/altera/12.1sp1/nios2eds/bin/gnu/h-i686-mingw32/bin/../lib/gcc/nios2-elf/4.1.2/../../../../nios2-elf/lib\libc.a(lib_a-findfp.o)
 .comment       0x00000000       0x27 c:/develop/altera/12.1sp1/nios2eds/bin/gnu/h-i686-mingw32/bin/../lib/gcc/nios2-elf/4.1.2/../../../../nios2-elf/lib\libc.a(lib_a-fopen.o)
 .comment       0x00000000       0x27 c:/develop/altera/12.1sp1/nios2eds/bin/gnu/h-i686-mingw32/bin/../lib/gcc/nios2-elf/4.1.2/../../../../nios2-elf/lib\libc.a(lib_a-fread.o)
 .comment       0x00000000       0x27 c:/develop/altera/12.1sp1/nios2eds/bin/gnu/h-i686-mingw32/bin/../lib/gcc/nios2-elf/4.1.2/../../../../nios2-elf/lib\libc.a(lib_a-freer.o)
 .comment       0x00000000       0x27 c:/develop/altera/12.1sp1/nios2eds/bin/gnu/h-i686-mingw32/bin/../lib/gcc/nios2-elf/4.1.2/../../../../nios2-elf/lib\libc.a(lib_a-fseek.o)
 .comment       0x00000000       0x27 c:/develop/altera/12.1sp1/nios2eds/bin/gnu/h-i686-mingw32/bin/../lib/gcc/nios2-elf/4.1.2/../../../../nios2-elf/lib\libc.a(lib_a-fstatr.o)
 .comment       0x00000000       0x27 c:/develop/altera/12.1sp1/nios2eds/bin/gnu/h-i686-mingw32/bin/../lib/gcc/nios2-elf/4.1.2/../../../../nios2-elf/lib\libc.a(lib_a-fwalk.o)
 .comment       0x00000000       0x27 c:/develop/altera/12.1sp1/nios2eds/bin/gnu/h-i686-mingw32/bin/../lib/gcc/nios2-elf/4.1.2/../../../../nios2-elf/lib\libc.a(lib_a-impure.o)
 .comment       0x00000000       0x27 c:/develop/altera/12.1sp1/nios2eds/bin/gnu/h-i686-mingw32/bin/../lib/gcc/nios2-elf/4.1.2/../../../../nios2-elf/lib\libc.a(lib_a-int_errno.o)
 .comment       0x00000000       0x27 c:/develop/altera/12.1sp1/nios2eds/bin/gnu/h-i686-mingw32/bin/../lib/gcc/nios2-elf/4.1.2/../../../../nios2-elf/lib\libc.a(lib_a-makebuf.o)
 .comment       0x00000000       0x27 c:/develop/altera/12.1sp1/nios2eds/bin/gnu/h-i686-mingw32/bin/../lib/gcc/nios2-elf/4.1.2/../../../../nios2-elf/lib\libc.a(lib_a-malloc.o)
 .comment       0x00000000       0x27 c:/develop/altera/12.1sp1/nios2eds/bin/gnu/h-i686-mingw32/bin/../lib/gcc/nios2-elf/4.1.2/../../../../nios2-elf/lib\libc.a(lib_a-mallocr.o)
 .comment       0x00000000       0x27 c:/develop/altera/12.1sp1/nios2eds/bin/gnu/h-i686-mingw32/bin/../lib/gcc/nios2-elf/4.1.2/../../../../nios2-elf/lib\libc.a(lib_a-memcpy.o)
 .comment       0x00000000       0x27 c:/develop/altera/12.1sp1/nios2eds/bin/gnu/h-i686-mingw32/bin/../lib/gcc/nios2-elf/4.1.2/../../../../nios2-elf/lib\libc.a(lib_a-memset.o)
 .comment       0x00000000       0x27 c:/develop/altera/12.1sp1/nios2eds/bin/gnu/h-i686-mingw32/bin/../lib/gcc/nios2-elf/4.1.2/../../../../nios2-elf/lib\libc.a(lib_a-openr.o)
 .comment       0x00000000       0x27 c:/develop/altera/12.1sp1/nios2eds/bin/gnu/h-i686-mingw32/bin/../lib/gcc/nios2-elf/4.1.2/../../../../nios2-elf/lib\libc.a(lib_a-printf.o)
 .comment       0x00000000       0x27 c:/develop/altera/12.1sp1/nios2eds/bin/gnu/h-i686-mingw32/bin/../lib/gcc/nios2-elf/4.1.2/../../../../nios2-elf/lib\libc.a(lib_a-puts.o)
 .comment       0x00000000       0x27 c:/develop/altera/12.1sp1/nios2eds/bin/gnu/h-i686-mingw32/bin/../lib/gcc/nios2-elf/4.1.2/../../../../nios2-elf/lib\libc.a(lib_a-refill.o)
 .comment       0x00000000       0x27 c:/develop/altera/12.1sp1/nios2eds/bin/gnu/h-i686-mingw32/bin/../lib/gcc/nios2-elf/4.1.2/../../../../nios2-elf/lib\libc.a(lib_a-sbrkr.o)
 .comment       0x00000000       0x27 c:/develop/altera/12.1sp1/nios2eds/bin/gnu/h-i686-mingw32/bin/../lib/gcc/nios2-elf/4.1.2/../../../../nios2-elf/lib\libc.a(lib_a-stdio.o)
 .comment       0x00000000       0x27 c:/develop/altera/12.1sp1/nios2eds/bin/gnu/h-i686-mingw32/bin/../lib/gcc/nios2-elf/4.1.2/../../../../nios2-elf/lib\libc.a(lib_a-strlen.o)
 .comment       0x00000000       0x27 c:/develop/altera/12.1sp1/nios2eds/bin/gnu/h-i686-mingw32/bin/../lib/gcc/nios2-elf/4.1.2/../../../../nios2-elf/lib\libc.a(lib_a-vfprintf.o)
 .comment       0x00000000       0x27 c:/develop/altera/12.1sp1/nios2eds/bin/gnu/h-i686-mingw32/bin/../lib/gcc/nios2-elf/4.1.2/../../../../nios2-elf/lib\libc.a(lib_a-writer.o)
 .comment       0x00000000       0x27 c:/develop/altera/12.1sp1/nios2eds/bin/gnu/h-i686-mingw32/bin/../lib/gcc/nios2-elf/4.1.2/../../../../nios2-elf/lib\libc.a(lib_a-wsetup.o)
 .comment       0x00000000       0x27 c:/develop/altera/12.1sp1/nios2eds/bin/gnu/h-i686-mingw32/bin/../lib/gcc/nios2-elf/4.1.2/../../../../nios2-elf/lib\libc.a(lib_a-closer.o)
 .comment       0x00000000       0x27 c:/develop/altera/12.1sp1/nios2eds/bin/gnu/h-i686-mingw32/bin/../lib/gcc/nios2-elf/4.1.2/../../../../nios2-elf/lib\libc.a(lib_a-dtoa.o)
 .comment       0x00000000       0x27 c:/develop/altera/12.1sp1/nios2eds/bin/gnu/h-i686-mingw32/bin/../lib/gcc/nios2-elf/4.1.2/../../../../nios2-elf/lib\libc.a(lib_a-flags.o)
 .comment       0x00000000       0x27 c:/develop/altera/12.1sp1/nios2eds/bin/gnu/h-i686-mingw32/bin/../lib/gcc/nios2-elf/4.1.2/../../../../nios2-elf/lib\libc.a(lib_a-fvwrite.o)
 .comment       0x00000000       0x27 c:/develop/altera/12.1sp1/nios2eds/bin/gnu/h-i686-mingw32/bin/../lib/gcc/nios2-elf/4.1.2/../../../../nios2-elf/lib\libc.a(lib_a-isattyr.o)
 .comment       0x00000000       0x27 c:/develop/altera/12.1sp1/nios2eds/bin/gnu/h-i686-mingw32/bin/../lib/gcc/nios2-elf/4.1.2/../../../../nios2-elf/lib\libc.a(lib_a-locale.o)
 .comment       0x00000000       0x27 c:/develop/altera/12.1sp1/nios2eds/bin/gnu/h-i686-mingw32/bin/../lib/gcc/nios2-elf/4.1.2/../../../../nios2-elf/lib\libc.a(lib_a-lseekr.o)
 .comment       0x00000000       0x27 c:/develop/altera/12.1sp1/nios2eds/bin/gnu/h-i686-mingw32/bin/../lib/gcc/nios2-elf/4.1.2/../../../../nios2-elf/lib\libc.a(lib_a-memchr.o)
 .comment       0x00000000       0x27 c:/develop/altera/12.1sp1/nios2eds/bin/gnu/h-i686-mingw32/bin/../lib/gcc/nios2-elf/4.1.2/../../../../nios2-elf/lib\libc.a(lib_a-memmove.o)
 .comment       0x00000000       0x27 c:/develop/altera/12.1sp1/nios2eds/bin/gnu/h-i686-mingw32/bin/../lib/gcc/nios2-elf/4.1.2/../../../../nios2-elf/lib\libc.a(lib_a-mprec.o)
 .comment       0x00000000       0x27 c:/develop/altera/12.1sp1/nios2eds/bin/gnu/h-i686-mingw32/bin/../lib/gcc/nios2-elf/4.1.2/../../../../nios2-elf/lib\libc.a(lib_a-readr.o)
 .comment       0x00000000       0x27 c:/develop/altera/12.1sp1/nios2eds/bin/gnu/h-i686-mingw32/bin/../lib/gcc/nios2-elf/4.1.2/../../../../nios2-elf/lib\libc.a(lib_a-reallocr.o)
 .comment       0x00000000       0x27 c:/develop/altera/12.1sp1/nios2eds/bin/gnu/h-i686-mingw32/bin/../lib/gcc/nios2-elf/4.1.2/../../../../nios2-elf/lib\libc.a(lib_a-s_isinfd.o)
 .comment       0x00000000       0x27 c:/develop/altera/12.1sp1/nios2eds/bin/gnu/h-i686-mingw32/bin/../lib/gcc/nios2-elf/4.1.2/../../../../nios2-elf/lib\libc.a(lib_a-s_isnand.o)
 .comment       0x00000000       0x27 c:/develop/altera/12.1sp1/nios2eds/bin/gnu/h-i686-mingw32/bin/../lib/gcc/nios2-elf/4.1.2/../../../../nios2-elf/lib\libc.a(lib_a-strcmp.o)
 .comment       0x00000000       0x27 c:/develop/altera/12.1sp1/nios2eds/bin/gnu/h-i686-mingw32/bin/../lib/gcc/nios2-elf/4.1.2/../../../../nios2-elf/lib\libc.a(lib_a-callocr.o)
 .comment       0x00000000       0x27 c:/develop/altera/12.1sp1/nios2eds/bin/gnu/h-i686-mingw32/bin/../lib/gcc/nios2-elf/4.1.2\libgcc.a(_udivdi3.o)
 .comment       0x00000000       0x27 c:/develop/altera/12.1sp1/nios2eds/bin/gnu/h-i686-mingw32/bin/../lib/gcc/nios2-elf/4.1.2\libgcc.a(_umoddi3.o)
 .comment       0x00000000       0x27 c:/develop/altera/12.1sp1/nios2eds/bin/gnu/h-i686-mingw32/bin/../lib/gcc/nios2-elf/4.1.2\libgcc.a(_addsub_df.o)
 .comment       0x00000000       0x27 c:/develop/altera/12.1sp1/nios2eds/bin/gnu/h-i686-mingw32/bin/../lib/gcc/nios2-elf/4.1.2\libgcc.a(_mul_df.o)
 .comment       0x00000000       0x27 c:/develop/altera/12.1sp1/nios2eds/bin/gnu/h-i686-mingw32/bin/../lib/gcc/nios2-elf/4.1.2\libgcc.a(_div_df.o)
 .comment       0x00000000       0x27 c:/develop/altera/12.1sp1/nios2eds/bin/gnu/h-i686-mingw32/bin/../lib/gcc/nios2-elf/4.1.2\libgcc.a(_eq_df.o)
 .comment       0x00000000       0x27 c:/develop/altera/12.1sp1/nios2eds/bin/gnu/h-i686-mingw32/bin/../lib/gcc/nios2-elf/4.1.2\libgcc.a(_ne_df.o)
 .comment       0x00000000       0x27 c:/develop/altera/12.1sp1/nios2eds/bin/gnu/h-i686-mingw32/bin/../lib/gcc/nios2-elf/4.1.2\libgcc.a(_gt_df.o)
 .comment       0x00000000       0x27 c:/develop/altera/12.1sp1/nios2eds/bin/gnu/h-i686-mingw32/bin/../lib/gcc/nios2-elf/4.1.2\libgcc.a(_ge_df.o)
 .comment       0x00000000       0x27 c:/develop/altera/12.1sp1/nios2eds/bin/gnu/h-i686-mingw32/bin/../lib/gcc/nios2-elf/4.1.2\libgcc.a(_lt_df.o)
 .comment       0x00000000       0x27 c:/develop/altera/12.1sp1/nios2eds/bin/gnu/h-i686-mingw32/bin/../lib/gcc/nios2-elf/4.1.2\libgcc.a(_si_to_df.o)
 .comment       0x00000000       0x27 c:/develop/altera/12.1sp1/nios2eds/bin/gnu/h-i686-mingw32/bin/../lib/gcc/nios2-elf/4.1.2\libgcc.a(_df_to_si.o)
 .comment       0x00000000       0x27 c:/develop/altera/12.1sp1/nios2eds/bin/gnu/h-i686-mingw32/bin/../lib/gcc/nios2-elf/4.1.2\libgcc.a(_thenan_df.o)
 .comment       0x00000000       0x27 c:/develop/altera/12.1sp1/nios2eds/bin/gnu/h-i686-mingw32/bin/../lib/gcc/nios2-elf/4.1.2\libgcc.a(_usi_to_df.o)
 .comment       0x00000000       0x27 c:/develop/altera/12.1sp1/nios2eds/bin/gnu/h-i686-mingw32/bin/../lib/gcc/nios2-elf/4.1.2\libgcc.a(lib2-divmod.o)
 .comment       0x00000000       0x27 c:/develop/altera/12.1sp1/nios2eds/bin/gnu/h-i686-mingw32/bin/../lib/gcc/nios2-elf/4.1.2\libgcc.a(_muldi3.o)
 .comment       0x00000000       0x27 c:/develop/altera/12.1sp1/nios2eds/bin/gnu/h-i686-mingw32/bin/../lib/gcc/nios2-elf/4.1.2\libgcc.a(_clz.o)
 .comment       0x00000000       0x27 c:/develop/altera/12.1sp1/nios2eds/bin/gnu/h-i686-mingw32/bin/../lib/gcc/nios2-elf/4.1.2\libgcc.a(_clzsi2.o)
 .comment       0x00000000       0x27 c:/develop/altera/12.1sp1/nios2eds/bin/gnu/h-i686-mingw32/bin/../lib/gcc/nios2-elf/4.1.2\libgcc.a(_pack_df.o)
 .comment       0x00000000       0x27 c:/develop/altera/12.1sp1/nios2eds/bin/gnu/h-i686-mingw32/bin/../lib/gcc/nios2-elf/4.1.2\libgcc.a(_unpack_df.o)
 .comment       0x00000000       0x27 c:/develop/altera/12.1sp1/nios2eds/bin/gnu/h-i686-mingw32/bin/../lib/gcc/nios2-elf/4.1.2\libgcc.a(_fpcmp_parts_df.o)
 .comment       0x00000000       0x27 ../bmp_test_bsp/\libhal_bsp.a(alt_close.o)
 .comment       0x00000000       0x27 ../bmp_test_bsp/\libhal_bsp.a(alt_dcache_flush.o)
 .comment       0x00000000       0x27 ../bmp_test_bsp/\libhal_bsp.a(alt_dev.o)
 .comment       0x00000000       0x27 ../bmp_test_bsp/\libhal_bsp.a(alt_errno.o)
 .comment       0x00000000       0x27 ../bmp_test_bsp/\libhal_bsp.a(alt_fs_reg.o)
 .comment       0x00000000       0x27 ../bmp_test_bsp/\libhal_bsp.a(alt_fstat.o)
 .comment       0x00000000       0x27 ../bmp_test_bsp/\libhal_bsp.a(alt_isatty.o)
 .comment       0x00000000       0x27 ../bmp_test_bsp/\libhal_bsp.a(alt_lseek.o)
 .comment       0x00000000       0x27 ../bmp_test_bsp/\libhal_bsp.a(alt_main.o)
 .comment       0x00000000       0x27 ../bmp_test_bsp/\libhal_bsp.a(alt_malloc_lock.o)
 .comment       0x00000000       0x27 ../bmp_test_bsp/\libhal_bsp.a(alt_open.o)
 .comment       0x00000000       0x27 ../bmp_test_bsp/\libhal_bsp.a(alt_read.o)
 .comment       0x00000000       0x27 ../bmp_test_bsp/\libhal_bsp.a(alt_release_fd.o)
 .comment       0x00000000       0x27 ../bmp_test_bsp/\libhal_bsp.a(alt_sbrk.o)
 .comment       0x00000000       0x27 ../bmp_test_bsp/\libhal_bsp.a(alt_usleep.o)
 .comment       0x00000000       0x27 ../bmp_test_bsp/\libhal_bsp.a(alt_write.o)
 .comment       0x00000000       0x27 ../bmp_test_bsp/\libhal_bsp.a(alt_sys_init.o)
 .comment       0x00000000       0x27 ../bmp_test_bsp/\libhal_bsp.a(altera_avalon_cfi_flash.o)
 .comment       0x00000000       0x27 ../bmp_test_bsp/\libhal_bsp.a(altera_avalon_cfi_flash_table.o)
 .comment       0x00000000       0x27 ../bmp_test_bsp/\libhal_bsp.a(altera_avalon_jtag_uart_fd.o)
 .comment       0x00000000       0x27 ../bmp_test_bsp/\libhal_bsp.a(altera_avalon_jtag_uart_init.o)
 .comment       0x00000000       0x27 ../bmp_test_bsp/\libhal_bsp.a(altera_avalon_jtag_uart_ioctl.o)
 .comment       0x00000000       0x27 ../bmp_test_bsp/\libhal_bsp.a(altera_avalon_jtag_uart_read.o)
 .comment       0x00000000       0x27 ../bmp_test_bsp/\libhal_bsp.a(altera_avalon_jtag_uart_write.o)
 .comment       0x00000000       0x27 ../bmp_test_bsp/\libhal_bsp.a(altera_avalon_timer_sc.o)
 .comment       0x00000000       0x27 ../bmp_test_bsp/\libhal_bsp.a(altera_avalon_uart_fd.o)
 .comment       0x00000000       0x27 ../bmp_test_bsp/\libhal_bsp.a(altera_avalon_uart_init.o)
 .comment       0x00000000       0x27 ../bmp_test_bsp/\libhal_bsp.a(altera_avalon_uart_read.o)
 .comment       0x00000000       0x27 ../bmp_test_bsp/\libhal_bsp.a(altera_avalon_uart_write.o)
 .comment       0x00000000       0x27 ../bmp_test_bsp/\libhal_bsp.a(alt_alarm_start.o)
 .comment       0x00000000       0x27 ../bmp_test_bsp/\libhal_bsp.a(alt_busy_sleep.o)
 .comment       0x00000000       0x27 ../bmp_test_bsp/\libhal_bsp.a(alt_dev_llist_insert.o)
 .comment       0x00000000       0x27 ../bmp_test_bsp/\libhal_bsp.a(alt_do_ctors.o)
 .comment       0x00000000       0x27 ../bmp_test_bsp/\libhal_bsp.a(alt_do_dtors.o)
 .comment       0x00000000       0x27 ../bmp_test_bsp/\libhal_bsp.a(alt_find_dev.o)
 .comment       0x00000000       0x27 ../bmp_test_bsp/\libhal_bsp.a(alt_find_file.o)
 .comment       0x00000000       0x27 ../bmp_test_bsp/\libhal_bsp.a(alt_flash_dev.o)
 .comment       0x00000000       0x27 ../bmp_test_bsp/\libhal_bsp.a(alt_get_fd.o)
 .comment       0x00000000       0x27 ../bmp_test_bsp/\libhal_bsp.a(alt_iic.o)
 .comment       0x00000000       0x27 ../bmp_test_bsp/\libhal_bsp.a(alt_iic_isr_register.o)
 .comment       0x00000000       0x27 ../bmp_test_bsp/\libhal_bsp.a(alt_io_redirect.o)
 .comment       0x00000000       0x27 ../bmp_test_bsp/\libhal_bsp.a(alt_irq_handler.o)
 .comment       0x00000000       0x27 ../bmp_test_bsp/\libhal_bsp.a(alt_irq_vars.o)
 .comment       0x00000000       0x27 ../bmp_test_bsp/\libhal_bsp.a(alt_tick.o)
 .comment       0x00000000       0x27 ../bmp_test_bsp/\libhal_bsp.a(altera_nios2_irq.o)
 .comment       0x00000000       0x27 ../bmp_test_bsp/\libhal_bsp.a(altera_avalon_cfi_flash_amd.o)
 .comment       0x00000000       0x27 ../bmp_test_bsp/\libhal_bsp.a(altera_avalon_cfi_flash_intel.o)
 .comment       0x00000000       0x27 c:/develop/altera/12.1sp1/nios2eds/bin/gnu/h-i686-mingw32/bin/../lib/gcc/nios2-elf/4.1.2/../../../../nios2-elf/lib\libc.a(lib_a-atexit.o)
 .comment       0x00000000       0x27 c:/develop/altera/12.1sp1/nios2eds/bin/gnu/h-i686-mingw32/bin/../lib/gcc/nios2-elf/4.1.2/../../../../nios2-elf/lib\libc.a(lib_a-exit.o)
 .comment       0x00000000       0x27 c:/develop/altera/12.1sp1/nios2eds/bin/gnu/h-i686-mingw32/bin/../lib/gcc/nios2-elf/4.1.2/../../../../nios2-elf/lib\libc.a(lib_a-memcmp.o)
 .comment       0x00000000       0x27 c:/develop/altera/12.1sp1/nios2eds/bin/gnu/h-i686-mingw32/bin/../lib/gcc/nios2-elf/4.1.2/../../../../nios2-elf/lib\libc.a(lib_a-__atexit.o)
 .comment       0x00000000       0x27 c:/develop/altera/12.1sp1/nios2eds/bin/gnu/h-i686-mingw32/bin/../lib/gcc/nios2-elf/4.1.2/../../../../nios2-elf/lib\libc.a(lib_a-__call_atexit.o)
 .comment       0x00000000       0x27 ../bmp_test_bsp/\libhal_bsp.a(alt_exit.o)

.debug
 *(.debug)

.line
 *(.line)

.debug_srcinfo
 *(.debug_srcinfo)

.debug_sfnames
 *(.debug_sfnames)

.debug_aranges  0x00000000      0xf50
 *(.debug_aranges)
 .debug_aranges
                0x00000000       0x20 ../bmp_test_bsp//obj/HAL/src/crt0.o
 .debug_aranges
                0x00000020       0x20 obj/default/bmp_test.o
 .debug_aranges
                0x00000040       0x20 obj/default/mmcfs/fatfs/ff.o
 .debug_aranges
                0x00000060       0x20 obj/default/mmcfs/fatfs/mmcbb.o
 .debug_aranges
                0x00000080       0x20 obj/default/mmcfs/fatfs/option/cc932.o
 .debug_aranges
                0x000000a0       0x20 obj/default/mmcfs/gettime.o
 .debug_aranges
                0x000000c0       0x20 obj/default/mmcfs/mmc_spi.o
 .debug_aranges
                0x000000e0       0x20 obj/default/mmcfs/mmcfs.o
 .debug_aranges
                0x00000100       0x20 obj/default/nd_lib/nd_egl.o
 .debug_aranges
                0x00000120       0x20 c:/develop/altera/12.1sp1/nios2eds/bin/gnu/h-i686-mingw32/bin/../lib/gcc/nios2-elf/4.1.2/../../../../nios2-elf/lib\libc.a(lib_a-fclose.o)
 .debug_aranges
                0x00000140       0x20 c:/develop/altera/12.1sp1/nios2eds/bin/gnu/h-i686-mingw32/bin/../lib/gcc/nios2-elf/4.1.2/../../../../nios2-elf/lib\libc.a(lib_a-fflush.o)
 .debug_aranges
                0x00000160       0x20 c:/develop/altera/12.1sp1/nios2eds/bin/gnu/h-i686-mingw32/bin/../lib/gcc/nios2-elf/4.1.2/../../../../nios2-elf/lib\libc.a(lib_a-findfp.o)
 .debug_aranges
                0x00000180       0x20 c:/develop/altera/12.1sp1/nios2eds/bin/gnu/h-i686-mingw32/bin/../lib/gcc/nios2-elf/4.1.2/../../../../nios2-elf/lib\libc.a(lib_a-fopen.o)
 .debug_aranges
                0x000001a0       0x20 c:/develop/altera/12.1sp1/nios2eds/bin/gnu/h-i686-mingw32/bin/../lib/gcc/nios2-elf/4.1.2/../../../../nios2-elf/lib\libc.a(lib_a-fread.o)
 .debug_aranges
                0x000001c0       0x20 c:/develop/altera/12.1sp1/nios2eds/bin/gnu/h-i686-mingw32/bin/../lib/gcc/nios2-elf/4.1.2/../../../../nios2-elf/lib\libc.a(lib_a-freer.o)
 .debug_aranges
                0x000001e0       0x20 c:/develop/altera/12.1sp1/nios2eds/bin/gnu/h-i686-mingw32/bin/../lib/gcc/nios2-elf/4.1.2/../../../../nios2-elf/lib\libc.a(lib_a-fseek.o)
 .debug_aranges
                0x00000200       0x20 c:/develop/altera/12.1sp1/nios2eds/bin/gnu/h-i686-mingw32/bin/../lib/gcc/nios2-elf/4.1.2/../../../../nios2-elf/lib\libc.a(lib_a-fstatr.o)
 .debug_aranges
                0x00000220       0x20 c:/develop/altera/12.1sp1/nios2eds/bin/gnu/h-i686-mingw32/bin/../lib/gcc/nios2-elf/4.1.2/../../../../nios2-elf/lib\libc.a(lib_a-fwalk.o)
 .debug_aranges
                0x00000240       0x20 c:/develop/altera/12.1sp1/nios2eds/bin/gnu/h-i686-mingw32/bin/../lib/gcc/nios2-elf/4.1.2/../../../../nios2-elf/lib\libc.a(lib_a-makebuf.o)
 .debug_aranges
                0x00000260       0x20 c:/develop/altera/12.1sp1/nios2eds/bin/gnu/h-i686-mingw32/bin/../lib/gcc/nios2-elf/4.1.2/../../../../nios2-elf/lib\libc.a(lib_a-malloc.o)
 .debug_aranges
                0x00000280       0x20 c:/develop/altera/12.1sp1/nios2eds/bin/gnu/h-i686-mingw32/bin/../lib/gcc/nios2-elf/4.1.2/../../../../nios2-elf/lib\libc.a(lib_a-mallocr.o)
 .debug_aranges
                0x000002a0       0x20 c:/develop/altera/12.1sp1/nios2eds/bin/gnu/h-i686-mingw32/bin/../lib/gcc/nios2-elf/4.1.2/../../../../nios2-elf/lib\libc.a(lib_a-memcpy.o)
 .debug_aranges
                0x000002c0       0x20 c:/develop/altera/12.1sp1/nios2eds/bin/gnu/h-i686-mingw32/bin/../lib/gcc/nios2-elf/4.1.2/../../../../nios2-elf/lib\libc.a(lib_a-memset.o)
 .debug_aranges
                0x000002e0       0x20 c:/develop/altera/12.1sp1/nios2eds/bin/gnu/h-i686-mingw32/bin/../lib/gcc/nios2-elf/4.1.2/../../../../nios2-elf/lib\libc.a(lib_a-openr.o)
 .debug_aranges
                0x00000300       0x20 c:/develop/altera/12.1sp1/nios2eds/bin/gnu/h-i686-mingw32/bin/../lib/gcc/nios2-elf/4.1.2/../../../../nios2-elf/lib\libc.a(lib_a-printf.o)
 .debug_aranges
                0x00000320       0x20 c:/develop/altera/12.1sp1/nios2eds/bin/gnu/h-i686-mingw32/bin/../lib/gcc/nios2-elf/4.1.2/../../../../nios2-elf/lib\libc.a(lib_a-puts.o)
 .debug_aranges
                0x00000340       0x20 c:/develop/altera/12.1sp1/nios2eds/bin/gnu/h-i686-mingw32/bin/../lib/gcc/nios2-elf/4.1.2/../../../../nios2-elf/lib\libc.a(lib_a-refill.o)
 .debug_aranges
                0x00000360       0x20 c:/develop/altera/12.1sp1/nios2eds/bin/gnu/h-i686-mingw32/bin/../lib/gcc/nios2-elf/4.1.2/../../../../nios2-elf/lib\libc.a(lib_a-sbrkr.o)
 .debug_aranges
                0x00000380       0x20 c:/develop/altera/12.1sp1/nios2eds/bin/gnu/h-i686-mingw32/bin/../lib/gcc/nios2-elf/4.1.2/../../../../nios2-elf/lib\libc.a(lib_a-stdio.o)
 .debug_aranges
                0x000003a0       0x20 c:/develop/altera/12.1sp1/nios2eds/bin/gnu/h-i686-mingw32/bin/../lib/gcc/nios2-elf/4.1.2/../../../../nios2-elf/lib\libc.a(lib_a-strlen.o)
 .debug_aranges
                0x000003c0       0x20 c:/develop/altera/12.1sp1/nios2eds/bin/gnu/h-i686-mingw32/bin/../lib/gcc/nios2-elf/4.1.2/../../../../nios2-elf/lib\libc.a(lib_a-vfprintf.o)
 .debug_aranges
                0x000003e0       0x20 c:/develop/altera/12.1sp1/nios2eds/bin/gnu/h-i686-mingw32/bin/../lib/gcc/nios2-elf/4.1.2/../../../../nios2-elf/lib\libc.a(lib_a-writer.o)
 .debug_aranges
                0x00000400       0x20 c:/develop/altera/12.1sp1/nios2eds/bin/gnu/h-i686-mingw32/bin/../lib/gcc/nios2-elf/4.1.2/../../../../nios2-elf/lib\libc.a(lib_a-wsetup.o)
 .debug_aranges
                0x00000420       0x20 c:/develop/altera/12.1sp1/nios2eds/bin/gnu/h-i686-mingw32/bin/../lib/gcc/nios2-elf/4.1.2/../../../../nios2-elf/lib\libc.a(lib_a-closer.o)
 .debug_aranges
                0x00000440       0x20 c:/develop/altera/12.1sp1/nios2eds/bin/gnu/h-i686-mingw32/bin/../lib/gcc/nios2-elf/4.1.2/../../../../nios2-elf/lib\libc.a(lib_a-dtoa.o)
 .debug_aranges
                0x00000460       0x20 c:/develop/altera/12.1sp1/nios2eds/bin/gnu/h-i686-mingw32/bin/../lib/gcc/nios2-elf/4.1.2/../../../../nios2-elf/lib\libc.a(lib_a-flags.o)
 .debug_aranges
                0x00000480       0x20 c:/develop/altera/12.1sp1/nios2eds/bin/gnu/h-i686-mingw32/bin/../lib/gcc/nios2-elf/4.1.2/../../../../nios2-elf/lib\libc.a(lib_a-fvwrite.o)
 .debug_aranges
                0x000004a0       0x20 c:/develop/altera/12.1sp1/nios2eds/bin/gnu/h-i686-mingw32/bin/../lib/gcc/nios2-elf/4.1.2/../../../../nios2-elf/lib\libc.a(lib_a-isattyr.o)
 .debug_aranges
                0x000004c0       0x20 c:/develop/altera/12.1sp1/nios2eds/bin/gnu/h-i686-mingw32/bin/../lib/gcc/nios2-elf/4.1.2/../../../../nios2-elf/lib\libc.a(lib_a-locale.o)
 .debug_aranges
                0x000004e0       0x20 c:/develop/altera/12.1sp1/nios2eds/bin/gnu/h-i686-mingw32/bin/../lib/gcc/nios2-elf/4.1.2/../../../../nios2-elf/lib\libc.a(lib_a-lseekr.o)
 .debug_aranges
                0x00000500       0x20 c:/develop/altera/12.1sp1/nios2eds/bin/gnu/h-i686-mingw32/bin/../lib/gcc/nios2-elf/4.1.2/../../../../nios2-elf/lib\libc.a(lib_a-memchr.o)
 .debug_aranges
                0x00000520       0x20 c:/develop/altera/12.1sp1/nios2eds/bin/gnu/h-i686-mingw32/bin/../lib/gcc/nios2-elf/4.1.2/../../../../nios2-elf/lib\libc.a(lib_a-memmove.o)
 .debug_aranges
                0x00000540       0x20 c:/develop/altera/12.1sp1/nios2eds/bin/gnu/h-i686-mingw32/bin/../lib/gcc/nios2-elf/4.1.2/../../../../nios2-elf/lib\libc.a(lib_a-mprec.o)
 .debug_aranges
                0x00000560       0x20 c:/develop/altera/12.1sp1/nios2eds/bin/gnu/h-i686-mingw32/bin/../lib/gcc/nios2-elf/4.1.2/../../../../nios2-elf/lib\libc.a(lib_a-readr.o)
 .debug_aranges
                0x00000580       0x20 c:/develop/altera/12.1sp1/nios2eds/bin/gnu/h-i686-mingw32/bin/../lib/gcc/nios2-elf/4.1.2/../../../../nios2-elf/lib\libc.a(lib_a-reallocr.o)
 .debug_aranges
                0x000005a0       0x20 c:/develop/altera/12.1sp1/nios2eds/bin/gnu/h-i686-mingw32/bin/../lib/gcc/nios2-elf/4.1.2/../../../../nios2-elf/lib\libc.a(lib_a-s_isinfd.o)
 .debug_aranges
                0x000005c0       0x20 c:/develop/altera/12.1sp1/nios2eds/bin/gnu/h-i686-mingw32/bin/../lib/gcc/nios2-elf/4.1.2/../../../../nios2-elf/lib\libc.a(lib_a-s_isnand.o)
 .debug_aranges
                0x000005e0       0x20 c:/develop/altera/12.1sp1/nios2eds/bin/gnu/h-i686-mingw32/bin/../lib/gcc/nios2-elf/4.1.2/../../../../nios2-elf/lib\libc.a(lib_a-strcmp.o)
 .debug_aranges
                0x00000600       0x20 c:/develop/altera/12.1sp1/nios2eds/bin/gnu/h-i686-mingw32/bin/../lib/gcc/nios2-elf/4.1.2/../../../../nios2-elf/lib\libc.a(lib_a-callocr.o)
 .debug_aranges
                0x00000620       0x20 c:/develop/altera/12.1sp1/nios2eds/bin/gnu/h-i686-mingw32/bin/../lib/gcc/nios2-elf/4.1.2\libgcc.a(_udivdi3.o)
 .debug_aranges
                0x00000640       0x20 c:/develop/altera/12.1sp1/nios2eds/bin/gnu/h-i686-mingw32/bin/../lib/gcc/nios2-elf/4.1.2\libgcc.a(_umoddi3.o)
 .debug_aranges
                0x00000660       0x20 c:/develop/altera/12.1sp1/nios2eds/bin/gnu/h-i686-mingw32/bin/../lib/gcc/nios2-elf/4.1.2\libgcc.a(_addsub_df.o)
 .debug_aranges
                0x00000680       0x20 c:/develop/altera/12.1sp1/nios2eds/bin/gnu/h-i686-mingw32/bin/../lib/gcc/nios2-elf/4.1.2\libgcc.a(_mul_df.o)
 .debug_aranges
                0x000006a0       0x20 c:/develop/altera/12.1sp1/nios2eds/bin/gnu/h-i686-mingw32/bin/../lib/gcc/nios2-elf/4.1.2\libgcc.a(_div_df.o)
 .debug_aranges
                0x000006c0       0x20 c:/develop/altera/12.1sp1/nios2eds/bin/gnu/h-i686-mingw32/bin/../lib/gcc/nios2-elf/4.1.2\libgcc.a(_eq_df.o)
 .debug_aranges
                0x000006e0       0x20 c:/develop/altera/12.1sp1/nios2eds/bin/gnu/h-i686-mingw32/bin/../lib/gcc/nios2-elf/4.1.2\libgcc.a(_ne_df.o)
 .debug_aranges
                0x00000700       0x20 c:/develop/altera/12.1sp1/nios2eds/bin/gnu/h-i686-mingw32/bin/../lib/gcc/nios2-elf/4.1.2\libgcc.a(_gt_df.o)
 .debug_aranges
                0x00000720       0x20 c:/develop/altera/12.1sp1/nios2eds/bin/gnu/h-i686-mingw32/bin/../lib/gcc/nios2-elf/4.1.2\libgcc.a(_ge_df.o)
 .debug_aranges
                0x00000740       0x20 c:/develop/altera/12.1sp1/nios2eds/bin/gnu/h-i686-mingw32/bin/../lib/gcc/nios2-elf/4.1.2\libgcc.a(_lt_df.o)
 .debug_aranges
                0x00000760       0x20 c:/develop/altera/12.1sp1/nios2eds/bin/gnu/h-i686-mingw32/bin/../lib/gcc/nios2-elf/4.1.2\libgcc.a(_si_to_df.o)
 .debug_aranges
                0x00000780       0x20 c:/develop/altera/12.1sp1/nios2eds/bin/gnu/h-i686-mingw32/bin/../lib/gcc/nios2-elf/4.1.2\libgcc.a(_df_to_si.o)
 .debug_aranges
                0x000007a0       0x20 c:/develop/altera/12.1sp1/nios2eds/bin/gnu/h-i686-mingw32/bin/../lib/gcc/nios2-elf/4.1.2\libgcc.a(_usi_to_df.o)
 .debug_aranges
                0x000007c0       0x20 c:/develop/altera/12.1sp1/nios2eds/bin/gnu/h-i686-mingw32/bin/../lib/gcc/nios2-elf/4.1.2\libgcc.a(lib2-divmod.o)
 .debug_aranges
                0x000007e0       0x20 c:/develop/altera/12.1sp1/nios2eds/bin/gnu/h-i686-mingw32/bin/../lib/gcc/nios2-elf/4.1.2\libgcc.a(_muldi3.o)
 .debug_aranges
                0x00000800       0x20 c:/develop/altera/12.1sp1/nios2eds/bin/gnu/h-i686-mingw32/bin/../lib/gcc/nios2-elf/4.1.2\libgcc.a(_clzsi2.o)
 .debug_aranges
                0x00000820       0x20 c:/develop/altera/12.1sp1/nios2eds/bin/gnu/h-i686-mingw32/bin/../lib/gcc/nios2-elf/4.1.2\libgcc.a(_pack_df.o)
 .debug_aranges
                0x00000840       0x20 c:/develop/altera/12.1sp1/nios2eds/bin/gnu/h-i686-mingw32/bin/../lib/gcc/nios2-elf/4.1.2\libgcc.a(_unpack_df.o)
 .debug_aranges
                0x00000860       0x20 c:/develop/altera/12.1sp1/nios2eds/bin/gnu/h-i686-mingw32/bin/../lib/gcc/nios2-elf/4.1.2\libgcc.a(_fpcmp_parts_df.o)
 .debug_aranges
                0x00000880       0x20 ../bmp_test_bsp/\libhal_bsp.a(alt_close.o)
 .debug_aranges
                0x000008a0       0x20 ../bmp_test_bsp/\libhal_bsp.a(alt_dcache_flush.o)
 .debug_aranges
                0x000008c0       0x20 ../bmp_test_bsp/\libhal_bsp.a(alt_dev.o)
 .debug_aranges
                0x000008e0       0x20 ../bmp_test_bsp/\libhal_bsp.a(alt_fs_reg.o)
 .debug_aranges
                0x00000900       0x20 ../bmp_test_bsp/\libhal_bsp.a(alt_fstat.o)
 .debug_aranges
                0x00000920       0x20 ../bmp_test_bsp/\libhal_bsp.a(alt_isatty.o)
 .debug_aranges
                0x00000940       0x20 ../bmp_test_bsp/\libhal_bsp.a(alt_lseek.o)
 .debug_aranges
                0x00000960       0x20 ../bmp_test_bsp/\libhal_bsp.a(alt_main.o)
 .debug_aranges
                0x00000980       0x20 ../bmp_test_bsp/\libhal_bsp.a(alt_malloc_lock.o)
 .debug_aranges
                0x000009a0       0x20 ../bmp_test_bsp/\libhal_bsp.a(alt_open.o)
 .debug_aranges
                0x000009c0       0x20 ../bmp_test_bsp/\libhal_bsp.a(alt_read.o)
 .debug_aranges
                0x000009e0       0x20 ../bmp_test_bsp/\libhal_bsp.a(alt_release_fd.o)
 .debug_aranges
                0x00000a00       0x20 ../bmp_test_bsp/\libhal_bsp.a(alt_sbrk.o)
 .debug_aranges
                0x00000a20       0x20 ../bmp_test_bsp/\libhal_bsp.a(alt_usleep.o)
 .debug_aranges
                0x00000a40       0x20 ../bmp_test_bsp/\libhal_bsp.a(alt_write.o)
 .debug_aranges
                0x00000a60       0x20 ../bmp_test_bsp/\libhal_bsp.a(alt_sys_init.o)
 .debug_aranges
                0x00000a80       0x20 ../bmp_test_bsp/\libhal_bsp.a(altera_avalon_cfi_flash.o)
 .debug_aranges
                0x00000aa0       0x20 ../bmp_test_bsp/\libhal_bsp.a(altera_avalon_cfi_flash_table.o)
 .debug_aranges
                0x00000ac0       0x20 ../bmp_test_bsp/\libhal_bsp.a(altera_avalon_jtag_uart_fd.o)
 .debug_aranges
                0x00000ae0       0x20 ../bmp_test_bsp/\libhal_bsp.a(altera_avalon_jtag_uart_init.o)
 .debug_aranges
                0x00000b00       0x20 ../bmp_test_bsp/\libhal_bsp.a(altera_avalon_jtag_uart_ioctl.o)
 .debug_aranges
                0x00000b20       0x20 ../bmp_test_bsp/\libhal_bsp.a(altera_avalon_jtag_uart_read.o)
 .debug_aranges
                0x00000b40       0x20 ../bmp_test_bsp/\libhal_bsp.a(altera_avalon_jtag_uart_write.o)
 .debug_aranges
                0x00000b60       0x20 ../bmp_test_bsp/\libhal_bsp.a(altera_avalon_timer_sc.o)
 .debug_aranges
                0x00000b80       0x20 ../bmp_test_bsp/\libhal_bsp.a(altera_avalon_uart_fd.o)
 .debug_aranges
                0x00000ba0       0x20 ../bmp_test_bsp/\libhal_bsp.a(altera_avalon_uart_init.o)
 .debug_aranges
                0x00000bc0       0x20 ../bmp_test_bsp/\libhal_bsp.a(altera_avalon_uart_read.o)
 .debug_aranges
                0x00000be0       0x20 ../bmp_test_bsp/\libhal_bsp.a(altera_avalon_uart_write.o)
 .debug_aranges
                0x00000c00       0x20 ../bmp_test_bsp/\libhal_bsp.a(alt_alarm_start.o)
 .debug_aranges
                0x00000c20       0x20 ../bmp_test_bsp/\libhal_bsp.a(alt_busy_sleep.o)
 .debug_aranges
                0x00000c40       0x20 ../bmp_test_bsp/\libhal_bsp.a(alt_dev_llist_insert.o)
 .debug_aranges
                0x00000c60       0x20 ../bmp_test_bsp/\libhal_bsp.a(alt_do_ctors.o)
 .debug_aranges
                0x00000c80       0x20 ../bmp_test_bsp/\libhal_bsp.a(alt_do_dtors.o)
 .debug_aranges
                0x00000ca0       0x20 ../bmp_test_bsp/\libhal_bsp.a(alt_find_dev.o)
 .debug_aranges
                0x00000cc0       0x20 ../bmp_test_bsp/\libhal_bsp.a(alt_find_file.o)
 .debug_aranges
                0x00000ce0       0x20 ../bmp_test_bsp/\libhal_bsp.a(alt_flash_dev.o)
 .debug_aranges
                0x00000d00       0x20 ../bmp_test_bsp/\libhal_bsp.a(alt_get_fd.o)
 .debug_aranges
                0x00000d20       0x20 ../bmp_test_bsp/\libhal_bsp.a(alt_iic.o)
 .debug_aranges
                0x00000d40       0x20 ../bmp_test_bsp/\libhal_bsp.a(alt_iic_isr_register.o)
 .debug_aranges
                0x00000d60       0x20 ../bmp_test_bsp/\libhal_bsp.a(alt_io_redirect.o)
 .debug_aranges
                0x00000d80       0x30 ../bmp_test_bsp/\libhal_bsp.a(alt_irq_entry.o)
 .debug_aranges
                0x00000db0       0x28 ../bmp_test_bsp/\libhal_bsp.a(alt_irq_handler.o)
 .debug_aranges
                0x00000dd8       0x20 ../bmp_test_bsp/\libhal_bsp.a(alt_tick.o)
 .debug_aranges
                0x00000df8       0x20 ../bmp_test_bsp/\libhal_bsp.a(altera_nios2_irq.o)
 .debug_aranges
                0x00000e18       0x20 ../bmp_test_bsp/\libhal_bsp.a(altera_avalon_cfi_flash_amd.o)
 .debug_aranges
                0x00000e38       0x20 ../bmp_test_bsp/\libhal_bsp.a(altera_avalon_cfi_flash_intel.o)
 .debug_aranges
                0x00000e58       0x38 ../bmp_test_bsp/\libhal_bsp.a(alt_exception_entry.o)
 .debug_aranges
                0x00000e90       0x20 c:/develop/altera/12.1sp1/nios2eds/bin/gnu/h-i686-mingw32/bin/../lib/gcc/nios2-elf/4.1.2/../../../../nios2-elf/lib\libc.a(lib_a-atexit.o)
 .debug_aranges
                0x00000eb0       0x20 c:/develop/altera/12.1sp1/nios2eds/bin/gnu/h-i686-mingw32/bin/../lib/gcc/nios2-elf/4.1.2/../../../../nios2-elf/lib\libc.a(lib_a-exit.o)
 .debug_aranges
                0x00000ed0       0x20 c:/develop/altera/12.1sp1/nios2eds/bin/gnu/h-i686-mingw32/bin/../lib/gcc/nios2-elf/4.1.2/../../../../nios2-elf/lib\libc.a(lib_a-memcmp.o)
 .debug_aranges
                0x00000ef0       0x20 c:/develop/altera/12.1sp1/nios2eds/bin/gnu/h-i686-mingw32/bin/../lib/gcc/nios2-elf/4.1.2/../../../../nios2-elf/lib\libc.a(lib_a-__atexit.o)
 .debug_aranges
                0x00000f10       0x20 c:/develop/altera/12.1sp1/nios2eds/bin/gnu/h-i686-mingw32/bin/../lib/gcc/nios2-elf/4.1.2/../../../../nios2-elf/lib\libc.a(lib_a-__call_atexit.o)
 .debug_aranges
                0x00000f30       0x20 ../bmp_test_bsp/\libhal_bsp.a(alt_exit.o)

.debug_pubnames
                0x00000000     0x1fae
 *(.debug_pubnames)
 .debug_pubnames
                0x00000000       0x27 obj/default/bmp_test.o
 .debug_pubnames
                0x00000027      0x11c obj/default/mmcfs/fatfs/ff.o
 .debug_pubnames
                0x00000143       0x62 obj/default/mmcfs/fatfs/mmcbb.o
 .debug_pubnames
                0x000001a5       0x31 obj/default/mmcfs/fatfs/option/cc932.o
 .debug_pubnames
                0x000001d6       0x22 obj/default/mmcfs/gettime.o
 .debug_pubnames
                0x000001f8      0x14d obj/default/mmcfs/mmc_spi.o
 .debug_pubnames
                0x00000345       0x98 obj/default/mmcfs/mmcfs.o
 .debug_pubnames
                0x000003dd       0x27 obj/default/nd_lib/fontx_k12x10.o
 .debug_pubnames
                0x00000404       0x26 obj/default/nd_lib/fontx_k6x10.o
 .debug_pubnames
                0x0000042a      0x274 obj/default/nd_lib/nd_egl.o
 .debug_pubnames
                0x0000069e       0x2b c:/develop/altera/12.1sp1/nios2eds/bin/gnu/h-i686-mingw32/bin/../lib/gcc/nios2-elf/4.1.2/../../../../nios2-elf/lib\libc.a(lib_a-fclose.o)
 .debug_pubnames
                0x000006c9       0x2b c:/develop/altera/12.1sp1/nios2eds/bin/gnu/h-i686-mingw32/bin/../lib/gcc/nios2-elf/4.1.2/../../../../nios2-elf/lib\libc.a(lib_a-fflush.o)
 .debug_pubnames
                0x000006f4       0xdb c:/develop/altera/12.1sp1/nios2eds/bin/gnu/h-i686-mingw32/bin/../lib/gcc/nios2-elf/4.1.2/../../../../nios2-elf/lib\libc.a(lib_a-findfp.o)
 .debug_pubnames
                0x000007cf       0x29 c:/develop/altera/12.1sp1/nios2eds/bin/gnu/h-i686-mingw32/bin/../lib/gcc/nios2-elf/4.1.2/../../../../nios2-elf/lib\libc.a(lib_a-fopen.o)
 .debug_pubnames
                0x000007f8       0x29 c:/develop/altera/12.1sp1/nios2eds/bin/gnu/h-i686-mingw32/bin/../lib/gcc/nios2-elf/4.1.2/../../../../nios2-elf/lib\libc.a(lib_a-fread.o)
 .debug_pubnames
                0x00000821       0x31 c:/develop/altera/12.1sp1/nios2eds/bin/gnu/h-i686-mingw32/bin/../lib/gcc/nios2-elf/4.1.2/../../../../nios2-elf/lib\libc.a(lib_a-freer.o)
 .debug_pubnames
                0x00000852       0x29 c:/develop/altera/12.1sp1/nios2eds/bin/gnu/h-i686-mingw32/bin/../lib/gcc/nios2-elf/4.1.2/../../../../nios2-elf/lib\libc.a(lib_a-fseek.o)
 .debug_pubnames
                0x0000087b       0x1f c:/develop/altera/12.1sp1/nios2eds/bin/gnu/h-i686-mingw32/bin/../lib/gcc/nios2-elf/4.1.2/../../../../nios2-elf/lib\libc.a(lib_a-fstatr.o)
 .debug_pubnames
                0x0000089a       0x2e c:/develop/altera/12.1sp1/nios2eds/bin/gnu/h-i686-mingw32/bin/../lib/gcc/nios2-elf/4.1.2/../../../../nios2-elf/lib\libc.a(lib_a-fwalk.o)
 .debug_pubnames
                0x000008c8       0x39 c:/develop/altera/12.1sp1/nios2eds/bin/gnu/h-i686-mingw32/bin/../lib/gcc/nios2-elf/4.1.2/../../../../nios2-elf/lib\libc.a(lib_a-impure.o)
 .debug_pubnames
                0x00000901       0x1c c:/develop/altera/12.1sp1/nios2eds/bin/gnu/h-i686-mingw32/bin/../lib/gcc/nios2-elf/4.1.2/../../../../nios2-elf/lib\libc.a(lib_a-int_errno.o)
 .debug_pubnames
                0x0000091d       0x23 c:/develop/altera/12.1sp1/nios2eds/bin/gnu/h-i686-mingw32/bin/../lib/gcc/nios2-elf/4.1.2/../../../../nios2-elf/lib\libc.a(lib_a-makebuf.o)
 .debug_pubnames
                0x00000940       0x26 c:/develop/altera/12.1sp1/nios2eds/bin/gnu/h-i686-mingw32/bin/../lib/gcc/nios2-elf/4.1.2/../../../../nios2-elf/lib\libc.a(lib_a-malloc.o)
 .debug_pubnames
                0x00000966       0xce c:/develop/altera/12.1sp1/nios2eds/bin/gnu/h-i686-mingw32/bin/../lib/gcc/nios2-elf/4.1.2/../../../../nios2-elf/lib\libc.a(lib_a-mallocr.o)
 .debug_pubnames
                0x00000a34       0x1d c:/develop/altera/12.1sp1/nios2eds/bin/gnu/h-i686-mingw32/bin/../lib/gcc/nios2-elf/4.1.2/../../../../nios2-elf/lib\libc.a(lib_a-memcpy.o)
 .debug_pubnames
                0x00000a51       0x1d c:/develop/altera/12.1sp1/nios2eds/bin/gnu/h-i686-mingw32/bin/../lib/gcc/nios2-elf/4.1.2/../../../../nios2-elf/lib\libc.a(lib_a-memset.o)
 .debug_pubnames
                0x00000a6e       0x1e c:/develop/altera/12.1sp1/nios2eds/bin/gnu/h-i686-mingw32/bin/../lib/gcc/nios2-elf/4.1.2/../../../../nios2-elf/lib\libc.a(lib_a-openr.o)
 .debug_pubnames
                0x00000a8c       0x2b c:/develop/altera/12.1sp1/nios2eds/bin/gnu/h-i686-mingw32/bin/../lib/gcc/nios2-elf/4.1.2/../../../../nios2-elf/lib\libc.a(lib_a-printf.o)
 .debug_pubnames
                0x00000ab7       0x27 c:/develop/altera/12.1sp1/nios2eds/bin/gnu/h-i686-mingw32/bin/../lib/gcc/nios2-elf/4.1.2/../../../../nios2-elf/lib\libc.a(lib_a-puts.o)
 .debug_pubnames
                0x00000ade       0x22 c:/develop/altera/12.1sp1/nios2eds/bin/gnu/h-i686-mingw32/bin/../lib/gcc/nios2-elf/4.1.2/../../../../nios2-elf/lib\libc.a(lib_a-refill.o)
 .debug_pubnames
                0x00000b00       0x1e c:/develop/altera/12.1sp1/nios2eds/bin/gnu/h-i686-mingw32/bin/../lib/gcc/nios2-elf/4.1.2/../../../../nios2-elf/lib\libc.a(lib_a-sbrkr.o)
 .debug_pubnames
                0x00000b1e       0x44 c:/develop/altera/12.1sp1/nios2eds/bin/gnu/h-i686-mingw32/bin/../lib/gcc/nios2-elf/4.1.2/../../../../nios2-elf/lib\libc.a(lib_a-stdio.o)
 .debug_pubnames
                0x00000b62       0x1d c:/develop/altera/12.1sp1/nios2eds/bin/gnu/h-i686-mingw32/bin/../lib/gcc/nios2-elf/4.1.2/../../../../nios2-elf/lib\libc.a(lib_a-strlen.o)
 .debug_pubnames
                0x00000b7f       0x45 c:/develop/altera/12.1sp1/nios2eds/bin/gnu/h-i686-mingw32/bin/../lib/gcc/nios2-elf/4.1.2/../../../../nios2-elf/lib\libc.a(lib_a-vfprintf.o)
 .debug_pubnames
                0x00000bc4       0x1f c:/develop/altera/12.1sp1/nios2eds/bin/gnu/h-i686-mingw32/bin/../lib/gcc/nios2-elf/4.1.2/../../../../nios2-elf/lib\libc.a(lib_a-writer.o)
 .debug_pubnames
                0x00000be3       0x22 c:/develop/altera/12.1sp1/nios2eds/bin/gnu/h-i686-mingw32/bin/../lib/gcc/nios2-elf/4.1.2/../../../../nios2-elf/lib\libc.a(lib_a-wsetup.o)
 .debug_pubnames
                0x00000c05       0x1f c:/develop/altera/12.1sp1/nios2eds/bin/gnu/h-i686-mingw32/bin/../lib/gcc/nios2-elf/4.1.2/../../../../nios2-elf/lib\libc.a(lib_a-closer.o)
 .debug_pubnames
                0x00000c24       0x1e c:/develop/altera/12.1sp1/nios2eds/bin/gnu/h-i686-mingw32/bin/../lib/gcc/nios2-elf/4.1.2/../../../../nios2-elf/lib\libc.a(lib_a-dtoa.o)
 .debug_pubnames
                0x00000c42       0x1f c:/develop/altera/12.1sp1/nios2eds/bin/gnu/h-i686-mingw32/bin/../lib/gcc/nios2-elf/4.1.2/../../../../nios2-elf/lib\libc.a(lib_a-flags.o)
 .debug_pubnames
                0x00000c61       0x23 c:/develop/altera/12.1sp1/nios2eds/bin/gnu/h-i686-mingw32/bin/../lib/gcc/nios2-elf/4.1.2/../../../../nios2-elf/lib\libc.a(lib_a-fvwrite.o)
 .debug_pubnames
                0x00000c84       0x20 c:/develop/altera/12.1sp1/nios2eds/bin/gnu/h-i686-mingw32/bin/../lib/gcc/nios2-elf/4.1.2/../../../../nios2-elf/lib\libc.a(lib_a-isattyr.o)
 .debug_pubnames
                0x00000ca4       0xc3 c:/develop/altera/12.1sp1/nios2eds/bin/gnu/h-i686-mingw32/bin/../lib/gcc/nios2-elf/4.1.2/../../../../nios2-elf/lib\libc.a(lib_a-locale.o)
 .debug_pubnames
                0x00000d67       0x1f c:/develop/altera/12.1sp1/nios2eds/bin/gnu/h-i686-mingw32/bin/../lib/gcc/nios2-elf/4.1.2/../../../../nios2-elf/lib\libc.a(lib_a-lseekr.o)
 .debug_pubnames
                0x00000d86       0x1d c:/develop/altera/12.1sp1/nios2eds/bin/gnu/h-i686-mingw32/bin/../lib/gcc/nios2-elf/4.1.2/../../../../nios2-elf/lib\libc.a(lib_a-memchr.o)
 .debug_pubnames
                0x00000da3       0x1e c:/develop/altera/12.1sp1/nios2eds/bin/gnu/h-i686-mingw32/bin/../lib/gcc/nios2-elf/4.1.2/../../../../nios2-elf/lib\libc.a(lib_a-memmove.o)
 .debug_pubnames
                0x00000dc1      0x13a c:/develop/altera/12.1sp1/nios2eds/bin/gnu/h-i686-mingw32/bin/../lib/gcc/nios2-elf/4.1.2/../../../../nios2-elf/lib\libc.a(lib_a-mprec.o)
 .debug_pubnames
                0x00000efb       0x1e c:/develop/altera/12.1sp1/nios2eds/bin/gnu/h-i686-mingw32/bin/../lib/gcc/nios2-elf/4.1.2/../../../../nios2-elf/lib\libc.a(lib_a-readr.o)
 .debug_pubnames
                0x00000f19       0x21 c:/develop/altera/12.1sp1/nios2eds/bin/gnu/h-i686-mingw32/bin/../lib/gcc/nios2-elf/4.1.2/../../../../nios2-elf/lib\libc.a(lib_a-reallocr.o)
 .debug_pubnames
                0x00000f3a       0x1f c:/develop/altera/12.1sp1/nios2eds/bin/gnu/h-i686-mingw32/bin/../lib/gcc/nios2-elf/4.1.2/../../../../nios2-elf/lib\libc.a(lib_a-s_isinfd.o)
 .debug_pubnames
                0x00000f59       0x1f c:/develop/altera/12.1sp1/nios2eds/bin/gnu/h-i686-mingw32/bin/../lib/gcc/nios2-elf/4.1.2/../../../../nios2-elf/lib\libc.a(lib_a-s_isnand.o)
 .debug_pubnames
                0x00000f78       0x1d c:/develop/altera/12.1sp1/nios2eds/bin/gnu/h-i686-mingw32/bin/../lib/gcc/nios2-elf/4.1.2/../../../../nios2-elf/lib\libc.a(lib_a-strcmp.o)
 .debug_pubnames
                0x00000f95       0x20 c:/develop/altera/12.1sp1/nios2eds/bin/gnu/h-i686-mingw32/bin/../lib/gcc/nios2-elf/4.1.2/../../../../nios2-elf/lib\libc.a(lib_a-callocr.o)
 .debug_pubnames
                0x00000fb5       0x20 c:/develop/altera/12.1sp1/nios2eds/bin/gnu/h-i686-mingw32/bin/../lib/gcc/nios2-elf/4.1.2\libgcc.a(_udivdi3.o)
 .debug_pubnames
                0x00000fd5       0x20 c:/develop/altera/12.1sp1/nios2eds/bin/gnu/h-i686-mingw32/bin/../lib/gcc/nios2-elf/4.1.2\libgcc.a(_umoddi3.o)
 .debug_pubnames
                0x00000ff5       0x2c c:/develop/altera/12.1sp1/nios2eds/bin/gnu/h-i686-mingw32/bin/../lib/gcc/nios2-elf/4.1.2\libgcc.a(_addsub_df.o)
 .debug_pubnames
                0x00001021       0x1f c:/develop/altera/12.1sp1/nios2eds/bin/gnu/h-i686-mingw32/bin/../lib/gcc/nios2-elf/4.1.2\libgcc.a(_mul_df.o)
 .debug_pubnames
                0x00001040       0x1f c:/develop/altera/12.1sp1/nios2eds/bin/gnu/h-i686-mingw32/bin/../lib/gcc/nios2-elf/4.1.2\libgcc.a(_div_df.o)
 .debug_pubnames
                0x0000105f       0x1e c:/develop/altera/12.1sp1/nios2eds/bin/gnu/h-i686-mingw32/bin/../lib/gcc/nios2-elf/4.1.2\libgcc.a(_eq_df.o)
 .debug_pubnames
                0x0000107d       0x1e c:/develop/altera/12.1sp1/nios2eds/bin/gnu/h-i686-mingw32/bin/../lib/gcc/nios2-elf/4.1.2\libgcc.a(_ne_df.o)
 .debug_pubnames
                0x0000109b       0x1e c:/develop/altera/12.1sp1/nios2eds/bin/gnu/h-i686-mingw32/bin/../lib/gcc/nios2-elf/4.1.2\libgcc.a(_gt_df.o)
 .debug_pubnames
                0x000010b9       0x1e c:/develop/altera/12.1sp1/nios2eds/bin/gnu/h-i686-mingw32/bin/../lib/gcc/nios2-elf/4.1.2\libgcc.a(_ge_df.o)
 .debug_pubnames
                0x000010d7       0x1e c:/develop/altera/12.1sp1/nios2eds/bin/gnu/h-i686-mingw32/bin/../lib/gcc/nios2-elf/4.1.2\libgcc.a(_lt_df.o)
 .debug_pubnames
                0x000010f5       0x22 c:/develop/altera/12.1sp1/nios2eds/bin/gnu/h-i686-mingw32/bin/../lib/gcc/nios2-elf/4.1.2\libgcc.a(_si_to_df.o)
 .debug_pubnames
                0x00001117       0x20 c:/develop/altera/12.1sp1/nios2eds/bin/gnu/h-i686-mingw32/bin/../lib/gcc/nios2-elf/4.1.2\libgcc.a(_df_to_si.o)
 .debug_pubnames
                0x00001137       0x22 c:/develop/altera/12.1sp1/nios2eds/bin/gnu/h-i686-mingw32/bin/../lib/gcc/nios2-elf/4.1.2\libgcc.a(_thenan_df.o)
 .debug_pubnames
                0x00001159       0x24 c:/develop/altera/12.1sp1/nios2eds/bin/gnu/h-i686-mingw32/bin/../lib/gcc/nios2-elf/4.1.2\libgcc.a(_usi_to_df.o)
 .debug_pubnames
                0x0000117d       0x48 c:/develop/altera/12.1sp1/nios2eds/bin/gnu/h-i686-mingw32/bin/../lib/gcc/nios2-elf/4.1.2\libgcc.a(lib2-divmod.o)
 .debug_pubnames
                0x000011c5       0x1f c:/develop/altera/12.1sp1/nios2eds/bin/gnu/h-i686-mingw32/bin/../lib/gcc/nios2-elf/4.1.2\libgcc.a(_muldi3.o)
 .debug_pubnames
                0x000011e4       0x20 c:/develop/altera/12.1sp1/nios2eds/bin/gnu/h-i686-mingw32/bin/../lib/gcc/nios2-elf/4.1.2\libgcc.a(_clz.o)
 .debug_pubnames
                0x00001204       0x1f c:/develop/altera/12.1sp1/nios2eds/bin/gnu/h-i686-mingw32/bin/../lib/gcc/nios2-elf/4.1.2\libgcc.a(_clzsi2.o)
 .debug_pubnames
                0x00001223       0x1f c:/develop/altera/12.1sp1/nios2eds/bin/gnu/h-i686-mingw32/bin/../lib/gcc/nios2-elf/4.1.2\libgcc.a(_pack_df.o)
 .debug_pubnames
                0x00001242       0x21 c:/develop/altera/12.1sp1/nios2eds/bin/gnu/h-i686-mingw32/bin/../lib/gcc/nios2-elf/4.1.2\libgcc.a(_unpack_df.o)
 .debug_pubnames
                0x00001263       0x26 c:/develop/altera/12.1sp1/nios2eds/bin/gnu/h-i686-mingw32/bin/../lib/gcc/nios2-elf/4.1.2\libgcc.a(_fpcmp_parts_df.o)
 .debug_pubnames
                0x00001289       0x1c ../bmp_test_bsp/\libhal_bsp.a(alt_close.o)
 .debug_pubnames
                0x000012a5       0x27 ../bmp_test_bsp/\libhal_bsp.a(alt_dcache_flush.o)
 .debug_pubnames
                0x000012cc       0x63 ../bmp_test_bsp/\libhal_bsp.a(alt_dev.o)
 .debug_pubnames
                0x0000132f       0x20 ../bmp_test_bsp/\libhal_bsp.a(alt_errno.o)
 .debug_pubnames
                0x0000134f       0x21 ../bmp_test_bsp/\libhal_bsp.a(alt_fs_reg.o)
 .debug_pubnames
                0x00001370       0x1c ../bmp_test_bsp/\libhal_bsp.a(alt_fstat.o)
 .debug_pubnames
                0x0000138c       0x1d ../bmp_test_bsp/\libhal_bsp.a(alt_isatty.o)
 .debug_pubnames
                0x000013a9       0x1c ../bmp_test_bsp/\libhal_bsp.a(alt_lseek.o)
 .debug_pubnames
                0x000013c5       0x46 ../bmp_test_bsp/\libhal_bsp.a(alt_main.o)
 .debug_pubnames
                0x0000140b       0x38 ../bmp_test_bsp/\libhal_bsp.a(alt_malloc_lock.o)
 .debug_pubnames
                0x00001443       0x1b ../bmp_test_bsp/\libhal_bsp.a(alt_open.o)
 .debug_pubnames
                0x0000145e       0x1b ../bmp_test_bsp/\libhal_bsp.a(alt_read.o)
 .debug_pubnames
                0x00001479       0x25 ../bmp_test_bsp/\libhal_bsp.a(alt_release_fd.o)
 .debug_pubnames
                0x0000149e       0x1b ../bmp_test_bsp/\libhal_bsp.a(alt_sbrk.o)
 .debug_pubnames
                0x000014b9       0x1d ../bmp_test_bsp/\libhal_bsp.a(alt_usleep.o)
 .debug_pubnames
                0x000014d6       0x1c ../bmp_test_bsp/\libhal_bsp.a(alt_write.o)
 .debug_pubnames
                0x000014f2       0x34 ../bmp_test_bsp/\libhal_bsp.a(alt_sys_init.o)
 .debug_pubnames
                0x00001526       0xac ../bmp_test_bsp/\libhal_bsp.a(altera_avalon_cfi_flash.o)
 .debug_pubnames
                0x000015d2      0x27a ../bmp_test_bsp/\libhal_bsp.a(altera_avalon_cfi_flash_table.o)
 .debug_pubnames
                0x0000184c       0xa5 ../bmp_test_bsp/\libhal_bsp.a(altera_avalon_jtag_uart_fd.o)
 .debug_pubnames
                0x000018f1       0x55 ../bmp_test_bsp/\libhal_bsp.a(altera_avalon_jtag_uart_init.o)
 .debug_pubnames
                0x00001946       0x34 ../bmp_test_bsp/\libhal_bsp.a(altera_avalon_jtag_uart_ioctl.o)
 .debug_pubnames
                0x0000197a       0x33 ../bmp_test_bsp/\libhal_bsp.a(altera_avalon_jtag_uart_read.o)
 .debug_pubnames
                0x000019ad       0x34 ../bmp_test_bsp/\libhal_bsp.a(altera_avalon_jtag_uart_write.o)
 .debug_pubnames
                0x000019e1       0x2f ../bmp_test_bsp/\libhal_bsp.a(altera_avalon_timer_sc.o)
 .debug_pubnames
                0x00001a10       0x71 ../bmp_test_bsp/\libhal_bsp.a(altera_avalon_uart_fd.o)
 .debug_pubnames
                0x00001a81       0x4b ../bmp_test_bsp/\libhal_bsp.a(altera_avalon_uart_init.o)
 .debug_pubnames
                0x00001acc       0x2e ../bmp_test_bsp/\libhal_bsp.a(altera_avalon_uart_read.o)
 .debug_pubnames
                0x00001afa       0x2f ../bmp_test_bsp/\libhal_bsp.a(altera_avalon_uart_write.o)
 .debug_pubnames
                0x00001b29       0x26 ../bmp_test_bsp/\libhal_bsp.a(alt_alarm_start.o)
 .debug_pubnames
                0x00001b4f       0x25 ../bmp_test_bsp/\libhal_bsp.a(alt_busy_sleep.o)
 .debug_pubnames
                0x00001b74       0x2b ../bmp_test_bsp/\libhal_bsp.a(alt_dev_llist_insert.o)
 .debug_pubnames
                0x00001b9f       0x20 ../bmp_test_bsp/\libhal_bsp.a(alt_do_ctors.o)
 .debug_pubnames
                0x00001bbf       0x20 ../bmp_test_bsp/\libhal_bsp.a(alt_do_dtors.o)
 .debug_pubnames
                0x00001bdf       0x23 ../bmp_test_bsp/\libhal_bsp.a(alt_find_dev.o)
 .debug_pubnames
                0x00001c02       0x24 ../bmp_test_bsp/\libhal_bsp.a(alt_find_file.o)
 .debug_pubnames
                0x00001c26       0x58 ../bmp_test_bsp/\libhal_bsp.a(alt_flash_dev.o)
 .debug_pubnames
                0x00001c7e       0x21 ../bmp_test_bsp/\libhal_bsp.a(alt_get_fd.o)
 .debug_pubnames
                0x00001c9f       0x6e ../bmp_test_bsp/\libhal_bsp.a(alt_iic.o)
 .debug_pubnames
                0x00001d0d       0x2b ../bmp_test_bsp/\libhal_bsp.a(alt_iic_isr_register.o)
 .debug_pubnames
                0x00001d38       0x26 ../bmp_test_bsp/\libhal_bsp.a(alt_io_redirect.o)
 .debug_pubnames
                0x00001d5e       0x32 ../bmp_test_bsp/\libhal_bsp.a(alt_irq_handler.o)
 .debug_pubnames
                0x00001d90       0x3b ../bmp_test_bsp/\libhal_bsp.a(alt_irq_vars.o)
 .debug_pubnames
                0x00001dcb       0x68 ../bmp_test_bsp/\libhal_bsp.a(alt_tick.o)
 .debug_pubnames
                0x00001e33       0x2c ../bmp_test_bsp/\libhal_bsp.a(altera_nios2_irq.o)
 .debug_pubnames
                0x00001e5f       0x3e ../bmp_test_bsp/\libhal_bsp.a(altera_avalon_cfi_flash_amd.o)
 .debug_pubnames
                0x00001e9d       0x42 ../bmp_test_bsp/\libhal_bsp.a(altera_avalon_cfi_flash_intel.o)
 .debug_pubnames
                0x00001edf       0x2a c:/develop/altera/12.1sp1/nios2eds/bin/gnu/h-i686-mingw32/bin/../lib/gcc/nios2-elf/4.1.2/../../../../nios2-elf/lib\libc.a(lib_a-atexit.o)
 .debug_pubnames
                0x00001f09       0x1b c:/develop/altera/12.1sp1/nios2eds/bin/gnu/h-i686-mingw32/bin/../lib/gcc/nios2-elf/4.1.2/../../../../nios2-elf/lib\libc.a(lib_a-exit.o)
 .debug_pubnames
                0x00001f24       0x1d c:/develop/altera/12.1sp1/nios2eds/bin/gnu/h-i686-mingw32/bin/../lib/gcc/nios2-elf/4.1.2/../../../../nios2-elf/lib\libc.a(lib_a-memcmp.o)
 .debug_pubnames
                0x00001f41       0x2a c:/develop/altera/12.1sp1/nios2eds/bin/gnu/h-i686-mingw32/bin/../lib/gcc/nios2-elf/4.1.2/../../../../nios2-elf/lib\libc.a(lib_a-__atexit.o)
 .debug_pubnames
                0x00001f6b       0x27 c:/develop/altera/12.1sp1/nios2eds/bin/gnu/h-i686-mingw32/bin/../lib/gcc/nios2-elf/4.1.2/../../../../nios2-elf/lib\libc.a(lib_a-__call_atexit.o)
 .debug_pubnames
                0x00001f92       0x1c ../bmp_test_bsp/\libhal_bsp.a(alt_exit.o)

.debug_info     0x00000000    0x2ca2e
 *(.debug_info .gnu.linkonce.wi.*)
 .debug_info    0x00000000       0x68 ../bmp_test_bsp//obj/HAL/src/crt0.o
 .debug_info    0x00000068      0xc38 obj/default/bmp_test.o
 .debug_info    0x00000ca0     0x1d91 obj/default/mmcfs/fatfs/ff.o
 .debug_info    0x00002a31      0x6a1 obj/default/mmcfs/fatfs/mmcbb.o
 .debug_info    0x000030d2      0x28b obj/default/mmcfs/fatfs/option/cc932.o
 .debug_info    0x0000335d      0x13a obj/default/mmcfs/gettime.o
 .debug_info    0x00003497      0x3f3 obj/default/mmcfs/mmc_spi.o
 .debug_info    0x0000388a      0xd34 obj/default/mmcfs/mmcfs.o
 .debug_info    0x000045be       0xc8 obj/default/nd_lib/fontx_k12x10.o
 .debug_info    0x00004686       0xc4 obj/default/nd_lib/fontx_k6x10.o
 .debug_info    0x0000474a      0xdf6 obj/default/nd_lib/nd_egl.o
 .debug_info    0x00005540      0x994 c:/develop/altera/12.1sp1/nios2eds/bin/gnu/h-i686-mingw32/bin/../lib/gcc/nios2-elf/4.1.2/../../../../nios2-elf/lib\libc.a(lib_a-fclose.o)
 .debug_info    0x00005ed4      0x9fe c:/develop/altera/12.1sp1/nios2eds/bin/gnu/h-i686-mingw32/bin/../lib/gcc/nios2-elf/4.1.2/../../../../nios2-elf/lib\libc.a(lib_a-fflush.o)
 .debug_info    0x000068d2      0xb72 c:/develop/altera/12.1sp1/nios2eds/bin/gnu/h-i686-mingw32/bin/../lib/gcc/nios2-elf/4.1.2/../../../../nios2-elf/lib\libc.a(lib_a-findfp.o)
 .debug_info    0x00007444      0x9e0 c:/develop/altera/12.1sp1/nios2eds/bin/gnu/h-i686-mingw32/bin/../lib/gcc/nios2-elf/4.1.2/../../../../nios2-elf/lib\libc.a(lib_a-fopen.o)
 .debug_info    0x00007e24      0xa77 c:/develop/altera/12.1sp1/nios2eds/bin/gnu/h-i686-mingw32/bin/../lib/gcc/nios2-elf/4.1.2/../../../../nios2-elf/lib\libc.a(lib_a-fread.o)
 .debug_info    0x0000889b      0xbc9 c:/develop/altera/12.1sp1/nios2eds/bin/gnu/h-i686-mingw32/bin/../lib/gcc/nios2-elf/4.1.2/../../../../nios2-elf/lib\libc.a(lib_a-freer.o)
 .debug_info    0x00009464      0xbdc c:/develop/altera/12.1sp1/nios2eds/bin/gnu/h-i686-mingw32/bin/../lib/gcc/nios2-elf/4.1.2/../../../../nios2-elf/lib\libc.a(lib_a-fseek.o)
 .debug_info    0x0000a040      0xafc c:/develop/altera/12.1sp1/nios2eds/bin/gnu/h-i686-mingw32/bin/../lib/gcc/nios2-elf/4.1.2/../../../../nios2-elf/lib\libc.a(lib_a-fstatr.o)
 .debug_info    0x0000ab3c      0xaed c:/develop/altera/12.1sp1/nios2eds/bin/gnu/h-i686-mingw32/bin/../lib/gcc/nios2-elf/4.1.2/../../../../nios2-elf/lib\libc.a(lib_a-fwalk.o)
 .debug_info    0x0000b629      0x93d c:/develop/altera/12.1sp1/nios2eds/bin/gnu/h-i686-mingw32/bin/../lib/gcc/nios2-elf/4.1.2/../../../../nios2-elf/lib\libc.a(lib_a-impure.o)
 .debug_info    0x0000bf66       0x8c c:/develop/altera/12.1sp1/nios2eds/bin/gnu/h-i686-mingw32/bin/../lib/gcc/nios2-elf/4.1.2/../../../../nios2-elf/lib\libc.a(lib_a-int_errno.o)
 .debug_info    0x0000bff2      0xb1a c:/develop/altera/12.1sp1/nios2eds/bin/gnu/h-i686-mingw32/bin/../lib/gcc/nios2-elf/4.1.2/../../../../nios2-elf/lib\libc.a(lib_a-makebuf.o)
 .debug_info    0x0000cb0c      0x96e c:/develop/altera/12.1sp1/nios2eds/bin/gnu/h-i686-mingw32/bin/../lib/gcc/nios2-elf/4.1.2/../../../../nios2-elf/lib\libc.a(lib_a-malloc.o)
 .debug_info    0x0000d47a      0xcd0 c:/develop/altera/12.1sp1/nios2eds/bin/gnu/h-i686-mingw32/bin/../lib/gcc/nios2-elf/4.1.2/../../../../nios2-elf/lib\libc.a(lib_a-mallocr.o)
 .debug_info    0x0000e14a      0x106 c:/develop/altera/12.1sp1/nios2eds/bin/gnu/h-i686-mingw32/bin/../lib/gcc/nios2-elf/4.1.2/../../../../nios2-elf/lib\libc.a(lib_a-memcpy.o)
 .debug_info    0x0000e250      0x113 c:/develop/altera/12.1sp1/nios2eds/bin/gnu/h-i686-mingw32/bin/../lib/gcc/nios2-elf/4.1.2/../../../../nios2-elf/lib\libc.a(lib_a-memset.o)
 .debug_info    0x0000e363      0x977 c:/develop/altera/12.1sp1/nios2eds/bin/gnu/h-i686-mingw32/bin/../lib/gcc/nios2-elf/4.1.2/../../../../nios2-elf/lib\libc.a(lib_a-openr.o)
 .debug_info    0x0000ecda      0x9d1 c:/develop/altera/12.1sp1/nios2eds/bin/gnu/h-i686-mingw32/bin/../lib/gcc/nios2-elf/4.1.2/../../../../nios2-elf/lib\libc.a(lib_a-printf.o)
 .debug_info    0x0000f6ab      0xa25 c:/develop/altera/12.1sp1/nios2eds/bin/gnu/h-i686-mingw32/bin/../lib/gcc/nios2-elf/4.1.2/../../../../nios2-elf/lib\libc.a(lib_a-puts.o)
 .debug_info    0x000100d0      0x98b c:/develop/altera/12.1sp1/nios2eds/bin/gnu/h-i686-mingw32/bin/../lib/gcc/nios2-elf/4.1.2/../../../../nios2-elf/lib\libc.a(lib_a-refill.o)
 .debug_info    0x00010a5b      0x962 c:/develop/altera/12.1sp1/nios2eds/bin/gnu/h-i686-mingw32/bin/../lib/gcc/nios2-elf/4.1.2/../../../../nios2-elf/lib\libc.a(lib_a-sbrkr.o)
 .debug_info    0x000113bd      0xaac c:/develop/altera/12.1sp1/nios2eds/bin/gnu/h-i686-mingw32/bin/../lib/gcc/nios2-elf/4.1.2/../../../../nios2-elf/lib\libc.a(lib_a-stdio.o)
 .debug_info    0x00011e69       0xdb c:/develop/altera/12.1sp1/nios2eds/bin/gnu/h-i686-mingw32/bin/../lib/gcc/nios2-elf/4.1.2/../../../../nios2-elf/lib\libc.a(lib_a-strlen.o)
 .debug_info    0x00011f44     0x10d5 c:/develop/altera/12.1sp1/nios2eds/bin/gnu/h-i686-mingw32/bin/../lib/gcc/nios2-elf/4.1.2/../../../../nios2-elf/lib\libc.a(lib_a-vfprintf.o)
 .debug_info    0x00013019      0x993 c:/develop/altera/12.1sp1/nios2eds/bin/gnu/h-i686-mingw32/bin/../lib/gcc/nios2-elf/4.1.2/../../../../nios2-elf/lib\libc.a(lib_a-writer.o)
 .debug_info    0x000139ac      0x95d c:/develop/altera/12.1sp1/nios2eds/bin/gnu/h-i686-mingw32/bin/../lib/gcc/nios2-elf/4.1.2/../../../../nios2-elf/lib\libc.a(lib_a-wsetup.o)
 .debug_info    0x00014309      0x958 c:/develop/altera/12.1sp1/nios2eds/bin/gnu/h-i686-mingw32/bin/../lib/gcc/nios2-elf/4.1.2/../../../../nios2-elf/lib\libc.a(lib_a-closer.o)
 .debug_info    0x00014c61      0xd6f c:/develop/altera/12.1sp1/nios2eds/bin/gnu/h-i686-mingw32/bin/../lib/gcc/nios2-elf/4.1.2/../../../../nios2-elf/lib\libc.a(lib_a-dtoa.o)
 .debug_info    0x000159d0      0x977 c:/develop/altera/12.1sp1/nios2eds/bin/gnu/h-i686-mingw32/bin/../lib/gcc/nios2-elf/4.1.2/../../../../nios2-elf/lib\libc.a(lib_a-flags.o)
 .debug_info    0x00016347      0xa88 c:/develop/altera/12.1sp1/nios2eds/bin/gnu/h-i686-mingw32/bin/../lib/gcc/nios2-elf/4.1.2/../../../../nios2-elf/lib\libc.a(lib_a-fvwrite.o)
 .debug_info    0x00016dcf      0x958 c:/develop/altera/12.1sp1/nios2eds/bin/gnu/h-i686-mingw32/bin/../lib/gcc/nios2-elf/4.1.2/../../../../nios2-elf/lib\libc.a(lib_a-isattyr.o)
 .debug_info    0x00017727      0xb97 c:/develop/altera/12.1sp1/nios2eds/bin/gnu/h-i686-mingw32/bin/../lib/gcc/nios2-elf/4.1.2/../../../../nios2-elf/lib\libc.a(lib_a-locale.o)
 .debug_info    0x000182be      0x981 c:/develop/altera/12.1sp1/nios2eds/bin/gnu/h-i686-mingw32/bin/../lib/gcc/nios2-elf/4.1.2/../../../../nios2-elf/lib\libc.a(lib_a-lseekr.o)
 .debug_info    0x00018c3f      0x138 c:/develop/altera/12.1sp1/nios2eds/bin/gnu/h-i686-mingw32/bin/../lib/gcc/nios2-elf/4.1.2/../../../../nios2-elf/lib\libc.a(lib_a-memchr.o)
 .debug_info    0x00018d77      0x13e c:/develop/altera/12.1sp1/nios2eds/bin/gnu/h-i686-mingw32/bin/../lib/gcc/nios2-elf/4.1.2/../../../../nios2-elf/lib\libc.a(lib_a-memmove.o)
 .debug_info    0x00018eb5     0x1437 c:/develop/altera/12.1sp1/nios2eds/bin/gnu/h-i686-mingw32/bin/../lib/gcc/nios2-elf/4.1.2/../../../../nios2-elf/lib\libc.a(lib_a-mprec.o)
 .debug_info    0x0001a2ec      0x98c c:/develop/altera/12.1sp1/nios2eds/bin/gnu/h-i686-mingw32/bin/../lib/gcc/nios2-elf/4.1.2/../../../../nios2-elf/lib\libc.a(lib_a-readr.o)
 .debug_info    0x0001ac78      0xbd7 c:/develop/altera/12.1sp1/nios2eds/bin/gnu/h-i686-mingw32/bin/../lib/gcc/nios2-elf/4.1.2/../../../../nios2-elf/lib\libc.a(lib_a-reallocr.o)
 .debug_info    0x0001b84f       0xd7 c:/develop/altera/12.1sp1/nios2eds/bin/gnu/h-i686-mingw32/bin/../lib/gcc/nios2-elf/4.1.2/../../../../nios2-elf/lib\libc.a(lib_a-s_isinfd.o)
 .debug_info    0x0001b926       0xd5 c:/develop/altera/12.1sp1/nios2eds/bin/gnu/h-i686-mingw32/bin/../lib/gcc/nios2-elf/4.1.2/../../../../nios2-elf/lib\libc.a(lib_a-s_isnand.o)
 .debug_info    0x0001b9fb       0xdd c:/develop/altera/12.1sp1/nios2eds/bin/gnu/h-i686-mingw32/bin/../lib/gcc/nios2-elf/4.1.2/../../../../nios2-elf/lib\libc.a(lib_a-strcmp.o)
 .debug_info    0x0001bad8      0xa1b c:/develop/altera/12.1sp1/nios2eds/bin/gnu/h-i686-mingw32/bin/../lib/gcc/nios2-elf/4.1.2/../../../../nios2-elf/lib\libc.a(lib_a-callocr.o)
 .debug_info    0x0001c4f3      0x724 c:/develop/altera/12.1sp1/nios2eds/bin/gnu/h-i686-mingw32/bin/../lib/gcc/nios2-elf/4.1.2\libgcc.a(_udivdi3.o)
 .debug_info    0x0001cc17      0x751 c:/develop/altera/12.1sp1/nios2eds/bin/gnu/h-i686-mingw32/bin/../lib/gcc/nios2-elf/4.1.2\libgcc.a(_umoddi3.o)
 .debug_info    0x0001d368      0x493 c:/develop/altera/12.1sp1/nios2eds/bin/gnu/h-i686-mingw32/bin/../lib/gcc/nios2-elf/4.1.2\libgcc.a(_addsub_df.o)
 .debug_info    0x0001d7fb      0x488 c:/develop/altera/12.1sp1/nios2eds/bin/gnu/h-i686-mingw32/bin/../lib/gcc/nios2-elf/4.1.2\libgcc.a(_mul_df.o)
 .debug_info    0x0001dc83      0x39b c:/develop/altera/12.1sp1/nios2eds/bin/gnu/h-i686-mingw32/bin/../lib/gcc/nios2-elf/4.1.2\libgcc.a(_div_df.o)
 .debug_info    0x0001e01e      0x29d c:/develop/altera/12.1sp1/nios2eds/bin/gnu/h-i686-mingw32/bin/../lib/gcc/nios2-elf/4.1.2\libgcc.a(_eq_df.o)
 .debug_info    0x0001e2bb      0x29d c:/develop/altera/12.1sp1/nios2eds/bin/gnu/h-i686-mingw32/bin/../lib/gcc/nios2-elf/4.1.2\libgcc.a(_ne_df.o)
 .debug_info    0x0001e558      0x29d c:/develop/altera/12.1sp1/nios2eds/bin/gnu/h-i686-mingw32/bin/../lib/gcc/nios2-elf/4.1.2\libgcc.a(_gt_df.o)
 .debug_info    0x0001e7f5      0x29d c:/develop/altera/12.1sp1/nios2eds/bin/gnu/h-i686-mingw32/bin/../lib/gcc/nios2-elf/4.1.2\libgcc.a(_ge_df.o)
 .debug_info    0x0001ea92      0x29d c:/develop/altera/12.1sp1/nios2eds/bin/gnu/h-i686-mingw32/bin/../lib/gcc/nios2-elf/4.1.2\libgcc.a(_lt_df.o)
 .debug_info    0x0001ed2f      0x218 c:/develop/altera/12.1sp1/nios2eds/bin/gnu/h-i686-mingw32/bin/../lib/gcc/nios2-elf/4.1.2\libgcc.a(_si_to_df.o)
 .debug_info    0x0001ef47      0x2cd c:/develop/altera/12.1sp1/nios2eds/bin/gnu/h-i686-mingw32/bin/../lib/gcc/nios2-elf/4.1.2\libgcc.a(_df_to_si.o)
 .debug_info    0x0001f214      0x164 c:/develop/altera/12.1sp1/nios2eds/bin/gnu/h-i686-mingw32/bin/../lib/gcc/nios2-elf/4.1.2\libgcc.a(_thenan_df.o)
 .debug_info    0x0001f378      0x213 c:/develop/altera/12.1sp1/nios2eds/bin/gnu/h-i686-mingw32/bin/../lib/gcc/nios2-elf/4.1.2\libgcc.a(_usi_to_df.o)
 .debug_info    0x0001f58b      0x21c c:/develop/altera/12.1sp1/nios2eds/bin/gnu/h-i686-mingw32/bin/../lib/gcc/nios2-elf/4.1.2\libgcc.a(lib2-divmod.o)
 .debug_info    0x0001f7a7      0x215 c:/develop/altera/12.1sp1/nios2eds/bin/gnu/h-i686-mingw32/bin/../lib/gcc/nios2-elf/4.1.2\libgcc.a(_muldi3.o)
 .debug_info    0x0001f9bc       0xc9 c:/develop/altera/12.1sp1/nios2eds/bin/gnu/h-i686-mingw32/bin/../lib/gcc/nios2-elf/4.1.2\libgcc.a(_clz.o)
 .debug_info    0x0001fa85      0x130 c:/develop/altera/12.1sp1/nios2eds/bin/gnu/h-i686-mingw32/bin/../lib/gcc/nios2-elf/4.1.2\libgcc.a(_clzsi2.o)
 .debug_info    0x0001fbb5      0x2fc c:/develop/altera/12.1sp1/nios2eds/bin/gnu/h-i686-mingw32/bin/../lib/gcc/nios2-elf/4.1.2\libgcc.a(_pack_df.o)
 .debug_info    0x0001feb1      0x268 c:/develop/altera/12.1sp1/nios2eds/bin/gnu/h-i686-mingw32/bin/../lib/gcc/nios2-elf/4.1.2\libgcc.a(_unpack_df.o)
 .debug_info    0x00020119      0x21b c:/develop/altera/12.1sp1/nios2eds/bin/gnu/h-i686-mingw32/bin/../lib/gcc/nios2-elf/4.1.2\libgcc.a(_fpcmp_parts_df.o)
 .debug_info    0x00020334      0x35c ../bmp_test_bsp/\libhal_bsp.a(alt_close.o)
 .debug_info    0x00020690       0xd9 ../bmp_test_bsp/\libhal_bsp.a(alt_dcache_flush.o)
 .debug_info    0x00020769      0x4dd ../bmp_test_bsp/\libhal_bsp.a(alt_dev.o)
 .debug_info    0x00020c46       0xab ../bmp_test_bsp/\libhal_bsp.a(alt_errno.o)
 .debug_info    0x00020cf1      0x31b ../bmp_test_bsp/\libhal_bsp.a(alt_fs_reg.o)
 .debug_info    0x0002100c      0x4dd ../bmp_test_bsp/\libhal_bsp.a(alt_fstat.o)
 .debug_info    0x000214e9      0x4dd ../bmp_test_bsp/\libhal_bsp.a(alt_isatty.o)
 .debug_info    0x000219c6      0x384 ../bmp_test_bsp/\libhal_bsp.a(alt_lseek.o)
 .debug_info    0x00021d4a      0x137 ../bmp_test_bsp/\libhal_bsp.a(alt_main.o)
 .debug_info    0x00021e81      0x947 ../bmp_test_bsp/\libhal_bsp.a(alt_malloc_lock.o)
 .debug_info    0x000227c8      0x410 ../bmp_test_bsp/\libhal_bsp.a(alt_open.o)
 .debug_info    0x00022bd8      0x519 ../bmp_test_bsp/\libhal_bsp.a(alt_read.o)
 .debug_info    0x000230f1      0x2d9 ../bmp_test_bsp/\libhal_bsp.a(alt_release_fd.o)
 .debug_info    0x000233ca      0x1a5 ../bmp_test_bsp/\libhal_bsp.a(alt_sbrk.o)
 .debug_info    0x0002356f       0xab ../bmp_test_bsp/\libhal_bsp.a(alt_usleep.o)
 .debug_info    0x0002361a      0x520 ../bmp_test_bsp/\libhal_bsp.a(alt_write.o)
 .debug_info    0x00023b3a      0x9b5 ../bmp_test_bsp/\libhal_bsp.a(alt_sys_init.o)
 .debug_info    0x000244ef      0x817 ../bmp_test_bsp/\libhal_bsp.a(altera_avalon_cfi_flash.o)
 .debug_info    0x00024d06      0x9ae ../bmp_test_bsp/\libhal_bsp.a(altera_avalon_cfi_flash_table.o)
 .debug_info    0x000256b4      0x57c ../bmp_test_bsp/\libhal_bsp.a(altera_avalon_jtag_uart_fd.o)
 .debug_info    0x00025c30      0x3ad ../bmp_test_bsp/\libhal_bsp.a(altera_avalon_jtag_uart_init.o)
 .debug_info    0x00025fdd      0x2a1 ../bmp_test_bsp/\libhal_bsp.a(altera_avalon_jtag_uart_ioctl.o)
 .debug_info    0x0002627e      0x373 ../bmp_test_bsp/\libhal_bsp.a(altera_avalon_jtag_uart_read.o)
 .debug_info    0x000265f1      0x35e ../bmp_test_bsp/\libhal_bsp.a(altera_avalon_jtag_uart_write.o)
 .debug_info    0x0002694f      0x221 ../bmp_test_bsp/\libhal_bsp.a(altera_avalon_timer_sc.o)
 .debug_info    0x00026b70      0x46f ../bmp_test_bsp/\libhal_bsp.a(altera_avalon_uart_fd.o)
 .debug_info    0x00026fdf      0x339 ../bmp_test_bsp/\libhal_bsp.a(altera_avalon_uart_init.o)
 .debug_info    0x00027318      0x326 ../bmp_test_bsp/\libhal_bsp.a(altera_avalon_uart_read.o)
 .debug_info    0x0002763e      0x334 ../bmp_test_bsp/\libhal_bsp.a(altera_avalon_uart_write.o)
 .debug_info    0x00027972      0x2c6 ../bmp_test_bsp/\libhal_bsp.a(alt_alarm_start.o)
 .debug_info    0x00027c38       0xcc ../bmp_test_bsp/\libhal_bsp.a(alt_busy_sleep.o)
 .debug_info    0x00027d04      0x1b7 ../bmp_test_bsp/\libhal_bsp.a(alt_dev_llist_insert.o)
 .debug_info    0x00027ebb       0x8d ../bmp_test_bsp/\libhal_bsp.a(alt_do_ctors.o)
 .debug_info    0x00027f48       0x8d ../bmp_test_bsp/\libhal_bsp.a(alt_do_dtors.o)
 .debug_info    0x00027fd5      0x30c ../bmp_test_bsp/\libhal_bsp.a(alt_find_dev.o)
 .debug_info    0x000282e1      0x30e ../bmp_test_bsp/\libhal_bsp.a(alt_find_file.o)
 .debug_info    0x000285ef      0x3cd ../bmp_test_bsp/\libhal_bsp.a(alt_flash_dev.o)
 .debug_info    0x000289bc      0x331 ../bmp_test_bsp/\libhal_bsp.a(alt_get_fd.o)
 .debug_info    0x00028ced      0x341 ../bmp_test_bsp/\libhal_bsp.a(alt_iic.o)
 .debug_info    0x0002902e      0x1ee ../bmp_test_bsp/\libhal_bsp.a(alt_iic_isr_register.o)
 .debug_info    0x0002921c      0x4f6 ../bmp_test_bsp/\libhal_bsp.a(alt_io_redirect.o)
 .debug_info    0x00029712       0x6d ../bmp_test_bsp/\libhal_bsp.a(alt_irq_entry.o)
 .debug_info    0x0002977f      0x168 ../bmp_test_bsp/\libhal_bsp.a(alt_irq_handler.o)
 .debug_info    0x000298e7       0x92 ../bmp_test_bsp/\libhal_bsp.a(alt_irq_vars.o)
 .debug_info    0x00029979      0x2a1 ../bmp_test_bsp/\libhal_bsp.a(alt_tick.o)
 .debug_info    0x00029c1a       0x8d ../bmp_test_bsp/\libhal_bsp.a(altera_nios2_irq.o)
 .debug_info    0x00029ca7      0x679 ../bmp_test_bsp/\libhal_bsp.a(altera_avalon_cfi_flash_amd.o)
 .debug_info    0x0002a320      0x666 ../bmp_test_bsp/\libhal_bsp.a(altera_avalon_cfi_flash_intel.o)
 .debug_info    0x0002a986       0x73 ../bmp_test_bsp/\libhal_bsp.a(alt_exception_entry.o)
 .debug_info    0x0002a9f9      0x181 c:/develop/altera/12.1sp1/nios2eds/bin/gnu/h-i686-mingw32/bin/../lib/gcc/nios2-elf/4.1.2/../../../../nios2-elf/lib\libc.a(lib_a-atexit.o)
 .debug_info    0x0002ab7a      0x93f c:/develop/altera/12.1sp1/nios2eds/bin/gnu/h-i686-mingw32/bin/../lib/gcc/nios2-elf/4.1.2/../../../../nios2-elf/lib\libc.a(lib_a-exit.o)
 .debug_info    0x0002b4b9      0x115 c:/develop/altera/12.1sp1/nios2eds/bin/gnu/h-i686-mingw32/bin/../lib/gcc/nios2-elf/4.1.2/../../../../nios2-elf/lib\libc.a(lib_a-memcmp.o)
 .debug_info    0x0002b5ce      0x99c c:/develop/altera/12.1sp1/nios2eds/bin/gnu/h-i686-mingw32/bin/../lib/gcc/nios2-elf/4.1.2/../../../../nios2-elf/lib\libc.a(lib_a-__atexit.o)
 .debug_info    0x0002bf6a      0x9e2 c:/develop/altera/12.1sp1/nios2eds/bin/gnu/h-i686-mingw32/bin/../lib/gcc/nios2-elf/4.1.2/../../../../nios2-elf/lib\libc.a(lib_a-__call_atexit.o)
 .debug_info    0x0002c94c       0xe2 ../bmp_test_bsp/\libhal_bsp.a(alt_exit.o)

.debug_abbrev   0x00000000     0x9ebd
 *(.debug_abbrev)
 .debug_abbrev  0x00000000       0x14 ../bmp_test_bsp//obj/HAL/src/crt0.o
 .debug_abbrev  0x00000014      0x183 obj/default/bmp_test.o
 .debug_abbrev  0x00000197      0x14e obj/default/mmcfs/fatfs/ff.o
 .debug_abbrev  0x000002e5      0x12c obj/default/mmcfs/fatfs/mmcbb.o
 .debug_abbrev  0x00000411       0xa8 obj/default/mmcfs/fatfs/option/cc932.o
 .debug_abbrev  0x000004b9       0x4e obj/default/mmcfs/gettime.o
 .debug_abbrev  0x00000507       0xb6 obj/default/mmcfs/mmc_spi.o
 .debug_abbrev  0x000005bd      0x113 obj/default/mmcfs/mmcfs.o
 .debug_abbrev  0x000006d0       0x49 obj/default/nd_lib/fontx_k12x10.o
 .debug_abbrev  0x00000719       0x49 obj/default/nd_lib/fontx_k6x10.o
 .debug_abbrev  0x00000762      0x199 obj/default/nd_lib/nd_egl.o
 .debug_abbrev  0x000008fb      0x1a7 c:/develop/altera/12.1sp1/nios2eds/bin/gnu/h-i686-mingw32/bin/../lib/gcc/nios2-elf/4.1.2/../../../../nios2-elf/lib\libc.a(lib_a-fclose.o)
 .debug_abbrev  0x00000aa2      0x1c6 c:/develop/altera/12.1sp1/nios2eds/bin/gnu/h-i686-mingw32/bin/../lib/gcc/nios2-elf/4.1.2/../../../../nios2-elf/lib\libc.a(lib_a-fflush.o)
 .debug_abbrev  0x00000c68      0x24c c:/develop/altera/12.1sp1/nios2eds/bin/gnu/h-i686-mingw32/bin/../lib/gcc/nios2-elf/4.1.2/../../../../nios2-elf/lib\libc.a(lib_a-findfp.o)
 .debug_abbrev  0x00000eb4      0x1b6 c:/develop/altera/12.1sp1/nios2eds/bin/gnu/h-i686-mingw32/bin/../lib/gcc/nios2-elf/4.1.2/../../../../nios2-elf/lib\libc.a(lib_a-fopen.o)
 .debug_abbrev  0x0000106a      0x20d c:/develop/altera/12.1sp1/nios2eds/bin/gnu/h-i686-mingw32/bin/../lib/gcc/nios2-elf/4.1.2/../../../../nios2-elf/lib\libc.a(lib_a-fread.o)
 .debug_abbrev  0x00001277      0x1d9 c:/develop/altera/12.1sp1/nios2eds/bin/gnu/h-i686-mingw32/bin/../lib/gcc/nios2-elf/4.1.2/../../../../nios2-elf/lib\libc.a(lib_a-freer.o)
 .debug_abbrev  0x00001450      0x208 c:/develop/altera/12.1sp1/nios2eds/bin/gnu/h-i686-mingw32/bin/../lib/gcc/nios2-elf/4.1.2/../../../../nios2-elf/lib\libc.a(lib_a-fseek.o)
 .debug_abbrev  0x00001658      0x18e c:/develop/altera/12.1sp1/nios2eds/bin/gnu/h-i686-mingw32/bin/../lib/gcc/nios2-elf/4.1.2/../../../../nios2-elf/lib\libc.a(lib_a-fstatr.o)
 .debug_abbrev  0x000017e6      0x1e3 c:/develop/altera/12.1sp1/nios2eds/bin/gnu/h-i686-mingw32/bin/../lib/gcc/nios2-elf/4.1.2/../../../../nios2-elf/lib\libc.a(lib_a-fwalk.o)
 .debug_abbrev  0x000019c9      0x157 c:/develop/altera/12.1sp1/nios2eds/bin/gnu/h-i686-mingw32/bin/../lib/gcc/nios2-elf/4.1.2/../../../../nios2-elf/lib\libc.a(lib_a-impure.o)
 .debug_abbrev  0x00001b20       0x3b c:/develop/altera/12.1sp1/nios2eds/bin/gnu/h-i686-mingw32/bin/../lib/gcc/nios2-elf/4.1.2/../../../../nios2-elf/lib\libc.a(lib_a-int_errno.o)
 .debug_abbrev  0x00001b5b      0x197 c:/develop/altera/12.1sp1/nios2eds/bin/gnu/h-i686-mingw32/bin/../lib/gcc/nios2-elf/4.1.2/../../../../nios2-elf/lib\libc.a(lib_a-makebuf.o)
 .debug_abbrev  0x00001cf2      0x187 c:/develop/altera/12.1sp1/nios2eds/bin/gnu/h-i686-mingw32/bin/../lib/gcc/nios2-elf/4.1.2/../../../../nios2-elf/lib\libc.a(lib_a-malloc.o)
 .debug_abbrev  0x00001e79      0x216 c:/develop/altera/12.1sp1/nios2eds/bin/gnu/h-i686-mingw32/bin/../lib/gcc/nios2-elf/4.1.2/../../../../nios2-elf/lib\libc.a(lib_a-mallocr.o)
 .debug_abbrev  0x0000208f       0xb5 c:/develop/altera/12.1sp1/nios2eds/bin/gnu/h-i686-mingw32/bin/../lib/gcc/nios2-elf/4.1.2/../../../../nios2-elf/lib\libc.a(lib_a-memcpy.o)
 .debug_abbrev  0x00002144       0xb8 c:/develop/altera/12.1sp1/nios2eds/bin/gnu/h-i686-mingw32/bin/../lib/gcc/nios2-elf/4.1.2/../../../../nios2-elf/lib\libc.a(lib_a-memset.o)
 .debug_abbrev  0x000021fc      0x18e c:/develop/altera/12.1sp1/nios2eds/bin/gnu/h-i686-mingw32/bin/../lib/gcc/nios2-elf/4.1.2/../../../../nios2-elf/lib\libc.a(lib_a-openr.o)
 .debug_abbrev  0x0000238a      0x191 c:/develop/altera/12.1sp1/nios2eds/bin/gnu/h-i686-mingw32/bin/../lib/gcc/nios2-elf/4.1.2/../../../../nios2-elf/lib\libc.a(lib_a-printf.o)
 .debug_abbrev  0x0000251b      0x1ac c:/develop/altera/12.1sp1/nios2eds/bin/gnu/h-i686-mingw32/bin/../lib/gcc/nios2-elf/4.1.2/../../../../nios2-elf/lib\libc.a(lib_a-puts.o)
 .debug_abbrev  0x000026c7      0x187 c:/develop/altera/12.1sp1/nios2eds/bin/gnu/h-i686-mingw32/bin/../lib/gcc/nios2-elf/4.1.2/../../../../nios2-elf/lib\libc.a(lib_a-refill.o)
 .debug_abbrev  0x0000284e      0x18c c:/develop/altera/12.1sp1/nios2eds/bin/gnu/h-i686-mingw32/bin/../lib/gcc/nios2-elf/4.1.2/../../../../nios2-elf/lib\libc.a(lib_a-sbrkr.o)
 .debug_abbrev  0x000029da      0x1c9 c:/develop/altera/12.1sp1/nios2eds/bin/gnu/h-i686-mingw32/bin/../lib/gcc/nios2-elf/4.1.2/../../../../nios2-elf/lib\libc.a(lib_a-stdio.o)
 .debug_abbrev  0x00002ba3       0x8b c:/develop/altera/12.1sp1/nios2eds/bin/gnu/h-i686-mingw32/bin/../lib/gcc/nios2-elf/4.1.2/../../../../nios2-elf/lib\libc.a(lib_a-strlen.o)
 .debug_abbrev  0x00002c2e      0x30a c:/develop/altera/12.1sp1/nios2eds/bin/gnu/h-i686-mingw32/bin/../lib/gcc/nios2-elf/4.1.2/../../../../nios2-elf/lib\libc.a(lib_a-vfprintf.o)
 .debug_abbrev  0x00002f38      0x184 c:/develop/altera/12.1sp1/nios2eds/bin/gnu/h-i686-mingw32/bin/../lib/gcc/nios2-elf/4.1.2/../../../../nios2-elf/lib\libc.a(lib_a-writer.o)
 .debug_abbrev  0x000030bc      0x170 c:/develop/altera/12.1sp1/nios2eds/bin/gnu/h-i686-mingw32/bin/../lib/gcc/nios2-elf/4.1.2/../../../../nios2-elf/lib\libc.a(lib_a-wsetup.o)
 .debug_abbrev  0x0000322c      0x17f c:/develop/altera/12.1sp1/nios2eds/bin/gnu/h-i686-mingw32/bin/../lib/gcc/nios2-elf/4.1.2/../../../../nios2-elf/lib\libc.a(lib_a-closer.o)
 .debug_abbrev  0x000033ab      0x232 c:/develop/altera/12.1sp1/nios2eds/bin/gnu/h-i686-mingw32/bin/../lib/gcc/nios2-elf/4.1.2/../../../../nios2-elf/lib\libc.a(lib_a-dtoa.o)
 .debug_abbrev  0x000035dd      0x17d c:/develop/altera/12.1sp1/nios2eds/bin/gnu/h-i686-mingw32/bin/../lib/gcc/nios2-elf/4.1.2/../../../../nios2-elf/lib\libc.a(lib_a-flags.o)
 .debug_abbrev  0x0000375a      0x1a3 c:/develop/altera/12.1sp1/nios2eds/bin/gnu/h-i686-mingw32/bin/../lib/gcc/nios2-elf/4.1.2/../../../../nios2-elf/lib\libc.a(lib_a-fvwrite.o)
 .debug_abbrev  0x000038fd      0x17f c:/develop/altera/12.1sp1/nios2eds/bin/gnu/h-i686-mingw32/bin/../lib/gcc/nios2-elf/4.1.2/../../../../nios2-elf/lib\libc.a(lib_a-isattyr.o)
 .debug_abbrev  0x00003a7c      0x1ed c:/develop/altera/12.1sp1/nios2eds/bin/gnu/h-i686-mingw32/bin/../lib/gcc/nios2-elf/4.1.2/../../../../nios2-elf/lib\libc.a(lib_a-locale.o)
 .debug_abbrev  0x00003c69      0x18e c:/develop/altera/12.1sp1/nios2eds/bin/gnu/h-i686-mingw32/bin/../lib/gcc/nios2-elf/4.1.2/../../../../nios2-elf/lib\libc.a(lib_a-lseekr.o)
 .debug_abbrev  0x00003df7       0xb5 c:/develop/altera/12.1sp1/nios2eds/bin/gnu/h-i686-mingw32/bin/../lib/gcc/nios2-elf/4.1.2/../../../../nios2-elf/lib\libc.a(lib_a-memchr.o)
 .debug_abbrev  0x00003eac       0xb5 c:/develop/altera/12.1sp1/nios2eds/bin/gnu/h-i686-mingw32/bin/../lib/gcc/nios2-elf/4.1.2/../../../../nios2-elf/lib\libc.a(lib_a-memmove.o)
 .debug_abbrev  0x00003f61      0x297 c:/develop/altera/12.1sp1/nios2eds/bin/gnu/h-i686-mingw32/bin/../lib/gcc/nios2-elf/4.1.2/../../../../nios2-elf/lib\libc.a(lib_a-mprec.o)
 .debug_abbrev  0x000041f8      0x17f c:/develop/altera/12.1sp1/nios2eds/bin/gnu/h-i686-mingw32/bin/../lib/gcc/nios2-elf/4.1.2/../../../../nios2-elf/lib\libc.a(lib_a-readr.o)
 .debug_abbrev  0x00004377      0x1c3 c:/develop/altera/12.1sp1/nios2eds/bin/gnu/h-i686-mingw32/bin/../lib/gcc/nios2-elf/4.1.2/../../../../nios2-elf/lib\libc.a(lib_a-reallocr.o)
 .debug_abbrev  0x0000453a       0x79 c:/develop/altera/12.1sp1/nios2eds/bin/gnu/h-i686-mingw32/bin/../lib/gcc/nios2-elf/4.1.2/../../../../nios2-elf/lib\libc.a(lib_a-s_isinfd.o)
 .debug_abbrev  0x000045b3       0x79 c:/develop/altera/12.1sp1/nios2eds/bin/gnu/h-i686-mingw32/bin/../lib/gcc/nios2-elf/4.1.2/../../../../nios2-elf/lib\libc.a(lib_a-s_isnand.o)
 .debug_abbrev  0x0000462c       0x80 c:/develop/altera/12.1sp1/nios2eds/bin/gnu/h-i686-mingw32/bin/../lib/gcc/nios2-elf/4.1.2/../../../../nios2-elf/lib\libc.a(lib_a-strcmp.o)
 .debug_abbrev  0x000046ac      0x1b8 c:/develop/altera/12.1sp1/nios2eds/bin/gnu/h-i686-mingw32/bin/../lib/gcc/nios2-elf/4.1.2/../../../../nios2-elf/lib\libc.a(lib_a-callocr.o)
 .debug_abbrev  0x00004864      0x16b c:/develop/altera/12.1sp1/nios2eds/bin/gnu/h-i686-mingw32/bin/../lib/gcc/nios2-elf/4.1.2\libgcc.a(_udivdi3.o)
 .debug_abbrev  0x000049cf      0x18e c:/develop/altera/12.1sp1/nios2eds/bin/gnu/h-i686-mingw32/bin/../lib/gcc/nios2-elf/4.1.2\libgcc.a(_umoddi3.o)
 .debug_abbrev  0x00004b5d      0x1d2 c:/develop/altera/12.1sp1/nios2eds/bin/gnu/h-i686-mingw32/bin/../lib/gcc/nios2-elf/4.1.2\libgcc.a(_addsub_df.o)
 .debug_abbrev  0x00004d2f      0x204 c:/develop/altera/12.1sp1/nios2eds/bin/gnu/h-i686-mingw32/bin/../lib/gcc/nios2-elf/4.1.2\libgcc.a(_mul_df.o)
 .debug_abbrev  0x00004f33      0x1e3 c:/develop/altera/12.1sp1/nios2eds/bin/gnu/h-i686-mingw32/bin/../lib/gcc/nios2-elf/4.1.2\libgcc.a(_div_df.o)
 .debug_abbrev  0x00005116      0x151 c:/develop/altera/12.1sp1/nios2eds/bin/gnu/h-i686-mingw32/bin/../lib/gcc/nios2-elf/4.1.2\libgcc.a(_eq_df.o)
 .debug_abbrev  0x00005267      0x151 c:/develop/altera/12.1sp1/nios2eds/bin/gnu/h-i686-mingw32/bin/../lib/gcc/nios2-elf/4.1.2\libgcc.a(_ne_df.o)
 .debug_abbrev  0x000053b8      0x151 c:/develop/altera/12.1sp1/nios2eds/bin/gnu/h-i686-mingw32/bin/../lib/gcc/nios2-elf/4.1.2\libgcc.a(_gt_df.o)
 .debug_abbrev  0x00005509      0x151 c:/develop/altera/12.1sp1/nios2eds/bin/gnu/h-i686-mingw32/bin/../lib/gcc/nios2-elf/4.1.2\libgcc.a(_ge_df.o)
 .debug_abbrev  0x0000565a      0x151 c:/develop/altera/12.1sp1/nios2eds/bin/gnu/h-i686-mingw32/bin/../lib/gcc/nios2-elf/4.1.2\libgcc.a(_lt_df.o)
 .debug_abbrev  0x000057ab      0x13f c:/develop/altera/12.1sp1/nios2eds/bin/gnu/h-i686-mingw32/bin/../lib/gcc/nios2-elf/4.1.2\libgcc.a(_si_to_df.o)
 .debug_abbrev  0x000058ea      0x176 c:/develop/altera/12.1sp1/nios2eds/bin/gnu/h-i686-mingw32/bin/../lib/gcc/nios2-elf/4.1.2\libgcc.a(_df_to_si.o)
 .debug_abbrev  0x00005a60       0xba c:/develop/altera/12.1sp1/nios2eds/bin/gnu/h-i686-mingw32/bin/../lib/gcc/nios2-elf/4.1.2\libgcc.a(_thenan_df.o)
 .debug_abbrev  0x00005b1a      0x155 c:/develop/altera/12.1sp1/nios2eds/bin/gnu/h-i686-mingw32/bin/../lib/gcc/nios2-elf/4.1.2\libgcc.a(_usi_to_df.o)
 .debug_abbrev  0x00005c6f       0xe0 c:/develop/altera/12.1sp1/nios2eds/bin/gnu/h-i686-mingw32/bin/../lib/gcc/nios2-elf/4.1.2\libgcc.a(lib2-divmod.o)
 .debug_abbrev  0x00005d4f       0xee c:/develop/altera/12.1sp1/nios2eds/bin/gnu/h-i686-mingw32/bin/../lib/gcc/nios2-elf/4.1.2\libgcc.a(_muldi3.o)
 .debug_abbrev  0x00005e3d       0x61 c:/develop/altera/12.1sp1/nios2eds/bin/gnu/h-i686-mingw32/bin/../lib/gcc/nios2-elf/4.1.2\libgcc.a(_clz.o)
 .debug_abbrev  0x00005e9e       0xb9 c:/develop/altera/12.1sp1/nios2eds/bin/gnu/h-i686-mingw32/bin/../lib/gcc/nios2-elf/4.1.2\libgcc.a(_clzsi2.o)
 .debug_abbrev  0x00005f57      0x1b1 c:/develop/altera/12.1sp1/nios2eds/bin/gnu/h-i686-mingw32/bin/../lib/gcc/nios2-elf/4.1.2\libgcc.a(_pack_df.o)
 .debug_abbrev  0x00006108      0x149 c:/develop/altera/12.1sp1/nios2eds/bin/gnu/h-i686-mingw32/bin/../lib/gcc/nios2-elf/4.1.2\libgcc.a(_unpack_df.o)
 .debug_abbrev  0x00006251      0x132 c:/develop/altera/12.1sp1/nios2eds/bin/gnu/h-i686-mingw32/bin/../lib/gcc/nios2-elf/4.1.2\libgcc.a(_fpcmp_parts_df.o)
 .debug_abbrev  0x00006383      0x122 ../bmp_test_bsp/\libhal_bsp.a(alt_close.o)
 .debug_abbrev  0x000064a5       0x89 ../bmp_test_bsp/\libhal_bsp.a(alt_dcache_flush.o)
 .debug_abbrev  0x0000652e       0xd6 ../bmp_test_bsp/\libhal_bsp.a(alt_dev.o)
 .debug_abbrev  0x00006604       0x5e ../bmp_test_bsp/\libhal_bsp.a(alt_errno.o)
 .debug_abbrev  0x00006662      0x101 ../bmp_test_bsp/\libhal_bsp.a(alt_fs_reg.o)
 .debug_abbrev  0x00006763      0x124 ../bmp_test_bsp/\libhal_bsp.a(alt_fstat.o)
 .debug_abbrev  0x00006887      0x124 ../bmp_test_bsp/\libhal_bsp.a(alt_isatty.o)
 .debug_abbrev  0x000069ab      0x122 ../bmp_test_bsp/\libhal_bsp.a(alt_lseek.o)
 .debug_abbrev  0x00006acd       0xb7 ../bmp_test_bsp/\libhal_bsp.a(alt_main.o)
 .debug_abbrev  0x00006b84      0x172 ../bmp_test_bsp/\libhal_bsp.a(alt_malloc_lock.o)
 .debug_abbrev  0x00006cf6      0x179 ../bmp_test_bsp/\libhal_bsp.a(alt_open.o)
 .debug_abbrev  0x00006e6f      0x131 ../bmp_test_bsp/\libhal_bsp.a(alt_read.o)
 .debug_abbrev  0x00006fa0       0xdb ../bmp_test_bsp/\libhal_bsp.a(alt_release_fd.o)
 .debug_abbrev  0x0000707b      0x10b ../bmp_test_bsp/\libhal_bsp.a(alt_sbrk.o)
 .debug_abbrev  0x00007186       0x5d ../bmp_test_bsp/\libhal_bsp.a(alt_usleep.o)
 .debug_abbrev  0x000071e3      0x136 ../bmp_test_bsp/\libhal_bsp.a(alt_write.o)
 .debug_abbrev  0x00007319      0x17a ../bmp_test_bsp/\libhal_bsp.a(alt_sys_init.o)
 .debug_abbrev  0x00007493      0x204 ../bmp_test_bsp/\libhal_bsp.a(altera_avalon_cfi_flash.o)
 .debug_abbrev  0x00007697      0x1a3 ../bmp_test_bsp/\libhal_bsp.a(altera_avalon_cfi_flash_table.o)
 .debug_abbrev  0x0000783a      0x113 ../bmp_test_bsp/\libhal_bsp.a(altera_avalon_jtag_uart_fd.o)
 .debug_abbrev  0x0000794d      0x1a5 ../bmp_test_bsp/\libhal_bsp.a(altera_avalon_jtag_uart_init.o)
 .debug_abbrev  0x00007af2      0x10a ../bmp_test_bsp/\libhal_bsp.a(altera_avalon_jtag_uart_ioctl.o)
 .debug_abbrev  0x00007bfc      0x194 ../bmp_test_bsp/\libhal_bsp.a(altera_avalon_jtag_uart_read.o)
 .debug_abbrev  0x00007d90      0x18c ../bmp_test_bsp/\libhal_bsp.a(altera_avalon_jtag_uart_write.o)
 .debug_abbrev  0x00007f1c      0x158 ../bmp_test_bsp/\libhal_bsp.a(altera_avalon_timer_sc.o)
 .debug_abbrev  0x00008074      0x104 ../bmp_test_bsp/\libhal_bsp.a(altera_avalon_uart_fd.o)
 .debug_abbrev  0x00008178      0x1b8 ../bmp_test_bsp/\libhal_bsp.a(altera_avalon_uart_init.o)
 .debug_abbrev  0x00008330      0x178 ../bmp_test_bsp/\libhal_bsp.a(altera_avalon_uart_read.o)
 .debug_abbrev  0x000084a8      0x169 ../bmp_test_bsp/\libhal_bsp.a(altera_avalon_uart_write.o)
 .debug_abbrev  0x00008611      0x179 ../bmp_test_bsp/\libhal_bsp.a(alt_alarm_start.o)
 .debug_abbrev  0x0000878a       0x79 ../bmp_test_bsp/\libhal_bsp.a(alt_busy_sleep.o)
 .debug_abbrev  0x00008803      0x117 ../bmp_test_bsp/\libhal_bsp.a(alt_dev_llist_insert.o)
 .debug_abbrev  0x0000891a       0x76 ../bmp_test_bsp/\libhal_bsp.a(alt_do_ctors.o)
 .debug_abbrev  0x00008990       0x76 ../bmp_test_bsp/\libhal_bsp.a(alt_do_dtors.o)
 .debug_abbrev  0x00008a06       0xeb ../bmp_test_bsp/\libhal_bsp.a(alt_find_dev.o)
 .debug_abbrev  0x00008af1       0xed ../bmp_test_bsp/\libhal_bsp.a(alt_find_file.o)
 .debug_abbrev  0x00008bde      0x114 ../bmp_test_bsp/\libhal_bsp.a(alt_flash_dev.o)
 .debug_abbrev  0x00008cf2      0x117 ../bmp_test_bsp/\libhal_bsp.a(alt_get_fd.o)
 .debug_abbrev  0x00008e09      0x160 ../bmp_test_bsp/\libhal_bsp.a(alt_iic.o)
 .debug_abbrev  0x00008f69      0x17c ../bmp_test_bsp/\libhal_bsp.a(alt_iic_isr_register.o)
 .debug_abbrev  0x000090e5      0x10e ../bmp_test_bsp/\libhal_bsp.a(alt_io_redirect.o)
 .debug_abbrev  0x000091f3       0x12 ../bmp_test_bsp/\libhal_bsp.a(alt_irq_entry.o)
 .debug_abbrev  0x00009205      0x115 ../bmp_test_bsp/\libhal_bsp.a(alt_irq_handler.o)
 .debug_abbrev  0x0000931a       0x44 ../bmp_test_bsp/\libhal_bsp.a(alt_irq_vars.o)
 .debug_abbrev  0x0000935e      0x15f ../bmp_test_bsp/\libhal_bsp.a(alt_tick.o)
 .debug_abbrev  0x000094bd       0x3f ../bmp_test_bsp/\libhal_bsp.a(altera_nios2_irq.o)
 .debug_abbrev  0x000094fc      0x1b4 ../bmp_test_bsp/\libhal_bsp.a(altera_avalon_cfi_flash_amd.o)
 .debug_abbrev  0x000096b0      0x12f ../bmp_test_bsp/\libhal_bsp.a(altera_avalon_cfi_flash_intel.o)
 .debug_abbrev  0x000097df       0x12 ../bmp_test_bsp/\libhal_bsp.a(alt_exception_entry.o)
 .debug_abbrev  0x000097f1       0xb7 c:/develop/altera/12.1sp1/nios2eds/bin/gnu/h-i686-mingw32/bin/../lib/gcc/nios2-elf/4.1.2/../../../../nios2-elf/lib\libc.a(lib_a-atexit.o)
 .debug_abbrev  0x000098a8      0x16e c:/develop/altera/12.1sp1/nios2eds/bin/gnu/h-i686-mingw32/bin/../lib/gcc/nios2-elf/4.1.2/../../../../nios2-elf/lib\libc.a(lib_a-exit.o)
 .debug_abbrev  0x00009a16       0x7c c:/develop/altera/12.1sp1/nios2eds/bin/gnu/h-i686-mingw32/bin/../lib/gcc/nios2-elf/4.1.2/../../../../nios2-elf/lib\libc.a(lib_a-memcmp.o)
 .debug_abbrev  0x00009a92      0x1ae c:/develop/altera/12.1sp1/nios2eds/bin/gnu/h-i686-mingw32/bin/../lib/gcc/nios2-elf/4.1.2/../../../../nios2-elf/lib\libc.a(lib_a-__atexit.o)
 .debug_abbrev  0x00009c40      0x1de c:/develop/altera/12.1sp1/nios2eds/bin/gnu/h-i686-mingw32/bin/../lib/gcc/nios2-elf/4.1.2/../../../../nios2-elf/lib\libc.a(lib_a-__call_atexit.o)
 .debug_abbrev  0x00009e1e       0x9f ../bmp_test_bsp/\libhal_bsp.a(alt_exit.o)

.debug_line     0x00000000    0x1c044
 *(.debug_line)
 .debug_line    0x00000000       0x57 ../bmp_test_bsp//obj/HAL/src/crt0.o
 .debug_line    0x00000057      0x33e obj/default/bmp_test.o
 .debug_line    0x00000395     0x2418 obj/default/mmcfs/fatfs/ff.o
 .debug_line    0x000027ad      0x65b obj/default/mmcfs/fatfs/mmcbb.o
 .debug_line    0x00002e08      0x137 obj/default/mmcfs/fatfs/option/cc932.o
 .debug_line    0x00002f3f      0x1f1 obj/default/mmcfs/gettime.o
 .debug_line    0x00003130      0x316 obj/default/mmcfs/mmc_spi.o
 .debug_line    0x00003446      0x502 obj/default/mmcfs/mmcfs.o
 .debug_line    0x00003948       0x5a obj/default/nd_lib/fontx_k12x10.o
 .debug_line    0x000039a2       0x59 obj/default/nd_lib/fontx_k6x10.o
 .debug_line    0x000039fb      0xa24 obj/default/nd_lib/nd_egl.o
 .debug_line    0x0000441f      0x2e8 c:/develop/altera/12.1sp1/nios2eds/bin/gnu/h-i686-mingw32/bin/../lib/gcc/nios2-elf/4.1.2/../../../../nios2-elf/lib\libc.a(lib_a-fclose.o)
 .debug_line    0x00004707      0x40d c:/develop/altera/12.1sp1/nios2eds/bin/gnu/h-i686-mingw32/bin/../lib/gcc/nios2-elf/4.1.2/../../../../nios2-elf/lib\libc.a(lib_a-fflush.o)
 .debug_line    0x00004b14      0x601 c:/develop/altera/12.1sp1/nios2eds/bin/gnu/h-i686-mingw32/bin/../lib/gcc/nios2-elf/4.1.2/../../../../nios2-elf/lib\libc.a(lib_a-findfp.o)
 .debug_line    0x00005115      0x342 c:/develop/altera/12.1sp1/nios2eds/bin/gnu/h-i686-mingw32/bin/../lib/gcc/nios2-elf/4.1.2/../../../../nios2-elf/lib\libc.a(lib_a-fopen.o)
 .debug_line    0x00005457      0x456 c:/develop/altera/12.1sp1/nios2eds/bin/gnu/h-i686-mingw32/bin/../lib/gcc/nios2-elf/4.1.2/../../../../nios2-elf/lib\libc.a(lib_a-fread.o)
 .debug_line    0x000058ad      0x5eb c:/develop/altera/12.1sp1/nios2eds/bin/gnu/h-i686-mingw32/bin/../lib/gcc/nios2-elf/4.1.2/../../../../nios2-elf/lib\libc.a(lib_a-freer.o)
 .debug_line    0x00005e98      0x5ab c:/develop/altera/12.1sp1/nios2eds/bin/gnu/h-i686-mingw32/bin/../lib/gcc/nios2-elf/4.1.2/../../../../nios2-elf/lib\libc.a(lib_a-fseek.o)
 .debug_line    0x00006443      0x264 c:/develop/altera/12.1sp1/nios2eds/bin/gnu/h-i686-mingw32/bin/../lib/gcc/nios2-elf/4.1.2/../../../../nios2-elf/lib\libc.a(lib_a-fstatr.o)
 .debug_line    0x000066a7      0x34a c:/develop/altera/12.1sp1/nios2eds/bin/gnu/h-i686-mingw32/bin/../lib/gcc/nios2-elf/4.1.2/../../../../nios2-elf/lib\libc.a(lib_a-fwalk.o)
 .debug_line    0x000069f1      0x22d c:/develop/altera/12.1sp1/nios2eds/bin/gnu/h-i686-mingw32/bin/../lib/gcc/nios2-elf/4.1.2/../../../../nios2-elf/lib\libc.a(lib_a-impure.o)
 .debug_line    0x00006c1e      0x1df c:/develop/altera/12.1sp1/nios2eds/bin/gnu/h-i686-mingw32/bin/../lib/gcc/nios2-elf/4.1.2/../../../../nios2-elf/lib\libc.a(lib_a-int_errno.o)
 .debug_line    0x00006dfd      0x3c3 c:/develop/altera/12.1sp1/nios2eds/bin/gnu/h-i686-mingw32/bin/../lib/gcc/nios2-elf/4.1.2/../../../../nios2-elf/lib\libc.a(lib_a-makebuf.o)
 .debug_line    0x000071c0      0x24b c:/develop/altera/12.1sp1/nios2eds/bin/gnu/h-i686-mingw32/bin/../lib/gcc/nios2-elf/4.1.2/../../../../nios2-elf/lib\libc.a(lib_a-malloc.o)
 .debug_line    0x0000740b      0x80a c:/develop/altera/12.1sp1/nios2eds/bin/gnu/h-i686-mingw32/bin/../lib/gcc/nios2-elf/4.1.2/../../../../nios2-elf/lib\libc.a(lib_a-mallocr.o)
 .debug_line    0x00007c15      0x1ac c:/develop/altera/12.1sp1/nios2eds/bin/gnu/h-i686-mingw32/bin/../lib/gcc/nios2-elf/4.1.2/../../../../nios2-elf/lib\libc.a(lib_a-memcpy.o)
 .debug_line    0x00007dc1      0x301 c:/develop/altera/12.1sp1/nios2eds/bin/gnu/h-i686-mingw32/bin/../lib/gcc/nios2-elf/4.1.2/../../../../nios2-elf/lib\libc.a(lib_a-memset.o)
 .debug_line    0x000080c2      0x27b c:/develop/altera/12.1sp1/nios2eds/bin/gnu/h-i686-mingw32/bin/../lib/gcc/nios2-elf/4.1.2/../../../../nios2-elf/lib\libc.a(lib_a-openr.o)
 .debug_line    0x0000833d      0x29b c:/develop/altera/12.1sp1/nios2eds/bin/gnu/h-i686-mingw32/bin/../lib/gcc/nios2-elf/4.1.2/../../../../nios2-elf/lib\libc.a(lib_a-printf.o)
 .debug_line    0x000085d8      0x2f7 c:/develop/altera/12.1sp1/nios2eds/bin/gnu/h-i686-mingw32/bin/../lib/gcc/nios2-elf/4.1.2/../../../../nios2-elf/lib\libc.a(lib_a-puts.o)
 .debug_line    0x000088cf      0x3c4 c:/develop/altera/12.1sp1/nios2eds/bin/gnu/h-i686-mingw32/bin/../lib/gcc/nios2-elf/4.1.2/../../../../nios2-elf/lib\libc.a(lib_a-refill.o)
 .debug_line    0x00008c93      0x299 c:/develop/altera/12.1sp1/nios2eds/bin/gnu/h-i686-mingw32/bin/../lib/gcc/nios2-elf/4.1.2/../../../../nios2-elf/lib\libc.a(lib_a-sbrkr.o)
 .debug_line    0x00008f2c      0x38c c:/develop/altera/12.1sp1/nios2eds/bin/gnu/h-i686-mingw32/bin/../lib/gcc/nios2-elf/4.1.2/../../../../nios2-elf/lib\libc.a(lib_a-stdio.o)
 .debug_line    0x000092b8      0x26d c:/develop/altera/12.1sp1/nios2eds/bin/gnu/h-i686-mingw32/bin/../lib/gcc/nios2-elf/4.1.2/../../../../nios2-elf/lib\libc.a(lib_a-strlen.o)
 .debug_line    0x00009525     0x110c c:/develop/altera/12.1sp1/nios2eds/bin/gnu/h-i686-mingw32/bin/../lib/gcc/nios2-elf/4.1.2/../../../../nios2-elf/lib\libc.a(lib_a-vfprintf.o)
 .debug_line    0x0000a631      0x29a c:/develop/altera/12.1sp1/nios2eds/bin/gnu/h-i686-mingw32/bin/../lib/gcc/nios2-elf/4.1.2/../../../../nios2-elf/lib\libc.a(lib_a-writer.o)
 .debug_line    0x0000a8cb      0x2f0 c:/develop/altera/12.1sp1/nios2eds/bin/gnu/h-i686-mingw32/bin/../lib/gcc/nios2-elf/4.1.2/../../../../nios2-elf/lib\libc.a(lib_a-wsetup.o)
 .debug_line    0x0000abbb      0x29a c:/develop/altera/12.1sp1/nios2eds/bin/gnu/h-i686-mingw32/bin/../lib/gcc/nios2-elf/4.1.2/../../../../nios2-elf/lib\libc.a(lib_a-closer.o)
 .debug_line    0x0000ae55     0x12c6 c:/develop/altera/12.1sp1/nios2eds/bin/gnu/h-i686-mingw32/bin/../lib/gcc/nios2-elf/4.1.2/../../../../nios2-elf/lib\libc.a(lib_a-dtoa.o)
 .debug_line    0x0000c11b      0x296 c:/develop/altera/12.1sp1/nios2eds/bin/gnu/h-i686-mingw32/bin/../lib/gcc/nios2-elf/4.1.2/../../../../nios2-elf/lib\libc.a(lib_a-flags.o)
 .debug_line    0x0000c3b1      0x641 c:/develop/altera/12.1sp1/nios2eds/bin/gnu/h-i686-mingw32/bin/../lib/gcc/nios2-elf/4.1.2/../../../../nios2-elf/lib\libc.a(lib_a-fvwrite.o)
 .debug_line    0x0000c9f2      0x29b c:/develop/altera/12.1sp1/nios2eds/bin/gnu/h-i686-mingw32/bin/../lib/gcc/nios2-elf/4.1.2/../../../../nios2-elf/lib\libc.a(lib_a-isattyr.o)
 .debug_line    0x0000cc8d      0x2c8 c:/develop/altera/12.1sp1/nios2eds/bin/gnu/h-i686-mingw32/bin/../lib/gcc/nios2-elf/4.1.2/../../../../nios2-elf/lib\libc.a(lib_a-locale.o)
 .debug_line    0x0000cf55      0x29a c:/develop/altera/12.1sp1/nios2eds/bin/gnu/h-i686-mingw32/bin/../lib/gcc/nios2-elf/4.1.2/../../../../nios2-elf/lib\libc.a(lib_a-lseekr.o)
 .debug_line    0x0000d1ef      0x303 c:/develop/altera/12.1sp1/nios2eds/bin/gnu/h-i686-mingw32/bin/../lib/gcc/nios2-elf/4.1.2/../../../../nios2-elf/lib\libc.a(lib_a-memchr.o)
 .debug_line    0x0000d4f2      0x30a c:/develop/altera/12.1sp1/nios2eds/bin/gnu/h-i686-mingw32/bin/../lib/gcc/nios2-elf/4.1.2/../../../../nios2-elf/lib\libc.a(lib_a-memmove.o)
 .debug_line    0x0000d7fc     0x1243 c:/develop/altera/12.1sp1/nios2eds/bin/gnu/h-i686-mingw32/bin/../lib/gcc/nios2-elf/4.1.2/../../../../nios2-elf/lib\libc.a(lib_a-mprec.o)
 .debug_line    0x0000ea3f      0x299 c:/develop/altera/12.1sp1/nios2eds/bin/gnu/h-i686-mingw32/bin/../lib/gcc/nios2-elf/4.1.2/../../../../nios2-elf/lib\libc.a(lib_a-readr.o)
 .debug_line    0x0000ecd8      0x58a c:/develop/altera/12.1sp1/nios2eds/bin/gnu/h-i686-mingw32/bin/../lib/gcc/nios2-elf/4.1.2/../../../../nios2-elf/lib\libc.a(lib_a-reallocr.o)
 .debug_line    0x0000f262      0x222 c:/develop/altera/12.1sp1/nios2eds/bin/gnu/h-i686-mingw32/bin/../lib/gcc/nios2-elf/4.1.2/../../../../nios2-elf/lib\libc.a(lib_a-s_isinfd.o)
 .debug_line    0x0000f484      0x21a c:/develop/altera/12.1sp1/nios2eds/bin/gnu/h-i686-mingw32/bin/../lib/gcc/nios2-elf/4.1.2/../../../../nios2-elf/lib\libc.a(lib_a-s_isnand.o)
 .debug_line    0x0000f69e      0x2d5 c:/develop/altera/12.1sp1/nios2eds/bin/gnu/h-i686-mingw32/bin/../lib/gcc/nios2-elf/4.1.2/../../../../nios2-elf/lib\libc.a(lib_a-strcmp.o)
 .debug_line    0x0000f973      0x25c c:/develop/altera/12.1sp1/nios2eds/bin/gnu/h-i686-mingw32/bin/../lib/gcc/nios2-elf/4.1.2/../../../../nios2-elf/lib\libc.a(lib_a-callocr.o)
 .debug_line    0x0000fbcf      0x2f2 c:/develop/altera/12.1sp1/nios2eds/bin/gnu/h-i686-mingw32/bin/../lib/gcc/nios2-elf/4.1.2\libgcc.a(_udivdi3.o)
 .debug_line    0x0000fec1      0x37d c:/develop/altera/12.1sp1/nios2eds/bin/gnu/h-i686-mingw32/bin/../lib/gcc/nios2-elf/4.1.2\libgcc.a(_umoddi3.o)
 .debug_line    0x0001023e      0x430 c:/develop/altera/12.1sp1/nios2eds/bin/gnu/h-i686-mingw32/bin/../lib/gcc/nios2-elf/4.1.2\libgcc.a(_addsub_df.o)
 .debug_line    0x0001066e      0x3e5 c:/develop/altera/12.1sp1/nios2eds/bin/gnu/h-i686-mingw32/bin/../lib/gcc/nios2-elf/4.1.2\libgcc.a(_mul_df.o)
 .debug_line    0x00010a53      0x301 c:/develop/altera/12.1sp1/nios2eds/bin/gnu/h-i686-mingw32/bin/../lib/gcc/nios2-elf/4.1.2\libgcc.a(_div_df.o)
 .debug_line    0x00010d54      0x129 c:/develop/altera/12.1sp1/nios2eds/bin/gnu/h-i686-mingw32/bin/../lib/gcc/nios2-elf/4.1.2\libgcc.a(_eq_df.o)
 .debug_line    0x00010e7d      0x129 c:/develop/altera/12.1sp1/nios2eds/bin/gnu/h-i686-mingw32/bin/../lib/gcc/nios2-elf/4.1.2\libgcc.a(_ne_df.o)
 .debug_line    0x00010fa6      0x129 c:/develop/altera/12.1sp1/nios2eds/bin/gnu/h-i686-mingw32/bin/../lib/gcc/nios2-elf/4.1.2\libgcc.a(_gt_df.o)
 .debug_line    0x000110cf      0x129 c:/develop/altera/12.1sp1/nios2eds/bin/gnu/h-i686-mingw32/bin/../lib/gcc/nios2-elf/4.1.2\libgcc.a(_ge_df.o)
 .debug_line    0x000111f8      0x129 c:/develop/altera/12.1sp1/nios2eds/bin/gnu/h-i686-mingw32/bin/../lib/gcc/nios2-elf/4.1.2\libgcc.a(_lt_df.o)
 .debug_line    0x00011321      0x175 c:/develop/altera/12.1sp1/nios2eds/bin/gnu/h-i686-mingw32/bin/../lib/gcc/nios2-elf/4.1.2\libgcc.a(_si_to_df.o)
 .debug_line    0x00011496      0x149 c:/develop/altera/12.1sp1/nios2eds/bin/gnu/h-i686-mingw32/bin/../lib/gcc/nios2-elf/4.1.2\libgcc.a(_df_to_si.o)
 .debug_line    0x000115df       0x94 c:/develop/altera/12.1sp1/nios2eds/bin/gnu/h-i686-mingw32/bin/../lib/gcc/nios2-elf/4.1.2\libgcc.a(_thenan_df.o)
 .debug_line    0x00011673      0x189 c:/develop/altera/12.1sp1/nios2eds/bin/gnu/h-i686-mingw32/bin/../lib/gcc/nios2-elf/4.1.2\libgcc.a(_usi_to_df.o)
 .debug_line    0x000117fc      0x24f c:/develop/altera/12.1sp1/nios2eds/bin/gnu/h-i686-mingw32/bin/../lib/gcc/nios2-elf/4.1.2\libgcc.a(lib2-divmod.o)
 .debug_line    0x00011a4b      0x11f c:/develop/altera/12.1sp1/nios2eds/bin/gnu/h-i686-mingw32/bin/../lib/gcc/nios2-elf/4.1.2\libgcc.a(_muldi3.o)
 .debug_line    0x00011b6a       0xaa c:/develop/altera/12.1sp1/nios2eds/bin/gnu/h-i686-mingw32/bin/../lib/gcc/nios2-elf/4.1.2\libgcc.a(_clz.o)
 .debug_line    0x00011c14      0x105 c:/develop/altera/12.1sp1/nios2eds/bin/gnu/h-i686-mingw32/bin/../lib/gcc/nios2-elf/4.1.2\libgcc.a(_clzsi2.o)
 .debug_line    0x00011d19      0x222 c:/develop/altera/12.1sp1/nios2eds/bin/gnu/h-i686-mingw32/bin/../lib/gcc/nios2-elf/4.1.2\libgcc.a(_pack_df.o)
 .debug_line    0x00011f3b      0x1e4 c:/develop/altera/12.1sp1/nios2eds/bin/gnu/h-i686-mingw32/bin/../lib/gcc/nios2-elf/4.1.2\libgcc.a(_unpack_df.o)
 .debug_line    0x0001211f      0x187 c:/develop/altera/12.1sp1/nios2eds/bin/gnu/h-i686-mingw32/bin/../lib/gcc/nios2-elf/4.1.2\libgcc.a(_fpcmp_parts_df.o)
 .debug_line    0x000122a6      0x2bd ../bmp_test_bsp/\libhal_bsp.a(alt_close.o)
 .debug_line    0x00012563      0x1e9 ../bmp_test_bsp/\libhal_bsp.a(alt_dcache_flush.o)
 .debug_line    0x0001274c      0x25c ../bmp_test_bsp/\libhal_bsp.a(alt_dev.o)
 .debug_line    0x000129a8      0x1ba ../bmp_test_bsp/\libhal_bsp.a(alt_errno.o)
 .debug_line    0x00012b62      0x265 ../bmp_test_bsp/\libhal_bsp.a(alt_fs_reg.o)
 .debug_line    0x00012dc7      0x2b7 ../bmp_test_bsp/\libhal_bsp.a(alt_fstat.o)
 .debug_line    0x0001307e      0x2ae ../bmp_test_bsp/\libhal_bsp.a(alt_isatty.o)
 .debug_line    0x0001332c      0x2b3 ../bmp_test_bsp/\libhal_bsp.a(alt_lseek.o)
 .debug_line    0x000135df      0x2ea ../bmp_test_bsp/\libhal_bsp.a(alt_main.o)
 .debug_line    0x000138c9      0x227 ../bmp_test_bsp/\libhal_bsp.a(alt_malloc_lock.o)
 .debug_line    0x00013af0      0x33e ../bmp_test_bsp/\libhal_bsp.a(alt_open.o)
 .debug_line    0x00013e2e      0x2ea ../bmp_test_bsp/\libhal_bsp.a(alt_read.o)
 .debug_line    0x00014118       0xfd ../bmp_test_bsp/\libhal_bsp.a(alt_release_fd.o)
 .debug_line    0x00014215      0x264 ../bmp_test_bsp/\libhal_bsp.a(alt_sbrk.o)
 .debug_line    0x00014479      0x21a ../bmp_test_bsp/\libhal_bsp.a(alt_usleep.o)
 .debug_line    0x00014693      0x2eb ../bmp_test_bsp/\libhal_bsp.a(alt_write.o)
 .debug_line    0x0001497e      0x398 ../bmp_test_bsp/\libhal_bsp.a(alt_sys_init.o)
 .debug_line    0x00014d16      0x65d ../bmp_test_bsp/\libhal_bsp.a(altera_avalon_cfi_flash.o)
 .debug_line    0x00015373      0xadc ../bmp_test_bsp/\libhal_bsp.a(altera_avalon_cfi_flash_table.o)
 .debug_line    0x00015e4f      0x225 ../bmp_test_bsp/\libhal_bsp.a(altera_avalon_jtag_uart_fd.o)
 .debug_line    0x00016074      0x50b ../bmp_test_bsp/\libhal_bsp.a(altera_avalon_jtag_uart_init.o)
 .debug_line    0x0001657f      0x31d ../bmp_test_bsp/\libhal_bsp.a(altera_avalon_jtag_uart_ioctl.o)
 .debug_line    0x0001689c      0x447 ../bmp_test_bsp/\libhal_bsp.a(altera_avalon_jtag_uart_read.o)
 .debug_line    0x00016ce3      0x455 ../bmp_test_bsp/\libhal_bsp.a(altera_avalon_jtag_uart_write.o)
 .debug_line    0x00017138      0x2c9 ../bmp_test_bsp/\libhal_bsp.a(altera_avalon_timer_sc.o)
 .debug_line    0x00017401      0x1de ../bmp_test_bsp/\libhal_bsp.a(altera_avalon_uart_fd.o)
 .debug_line    0x000175df      0x492 ../bmp_test_bsp/\libhal_bsp.a(altera_avalon_uart_init.o)
 .debug_line    0x00017a71      0x45b ../bmp_test_bsp/\libhal_bsp.a(altera_avalon_uart_read.o)
 .debug_line    0x00017ecc      0x443 ../bmp_test_bsp/\libhal_bsp.a(altera_avalon_uart_write.o)
 .debug_line    0x0001830f      0x2ce ../bmp_test_bsp/\libhal_bsp.a(alt_alarm_start.o)
 .debug_line    0x000185dd      0x264 ../bmp_test_bsp/\libhal_bsp.a(alt_busy_sleep.o)
 .debug_line    0x00018841      0x274 ../bmp_test_bsp/\libhal_bsp.a(alt_dev_llist_insert.o)
 .debug_line    0x00018ab5       0xa3 ../bmp_test_bsp/\libhal_bsp.a(alt_do_ctors.o)
 .debug_line    0x00018b58       0xa3 ../bmp_test_bsp/\libhal_bsp.a(alt_do_dtors.o)
 .debug_line    0x00018bfb      0x28d ../bmp_test_bsp/\libhal_bsp.a(alt_find_dev.o)
 .debug_line    0x00018e88      0x2bc ../bmp_test_bsp/\libhal_bsp.a(alt_find_file.o)
 .debug_line    0x00019144      0x2a2 ../bmp_test_bsp/\libhal_bsp.a(alt_flash_dev.o)
 .debug_line    0x000193e6      0x2af ../bmp_test_bsp/\libhal_bsp.a(alt_get_fd.o)
 .debug_line    0x00019695      0x28f ../bmp_test_bsp/\libhal_bsp.a(alt_iic.o)
 .debug_line    0x00019924      0x263 ../bmp_test_bsp/\libhal_bsp.a(alt_iic_isr_register.o)
 .debug_line    0x00019b87      0x334 ../bmp_test_bsp/\libhal_bsp.a(alt_io_redirect.o)
 .debug_line    0x00019ebb       0x6b ../bmp_test_bsp/\libhal_bsp.a(alt_irq_entry.o)
 .debug_line    0x00019f26      0x275 ../bmp_test_bsp/\libhal_bsp.a(alt_irq_handler.o)
 .debug_line    0x0001a19b       0x72 ../bmp_test_bsp/\libhal_bsp.a(alt_irq_vars.o)
 .debug_line    0x0001a20d      0x326 ../bmp_test_bsp/\libhal_bsp.a(alt_tick.o)
 .debug_line    0x0001a533      0x1d9 ../bmp_test_bsp/\libhal_bsp.a(altera_nios2_irq.o)
 .debug_line    0x0001a70c      0x496 ../bmp_test_bsp/\libhal_bsp.a(altera_avalon_cfi_flash_amd.o)
 .debug_line    0x0001aba2      0x4ba ../bmp_test_bsp/\libhal_bsp.a(altera_avalon_cfi_flash_intel.o)
 .debug_line    0x0001b05c       0xab ../bmp_test_bsp/\libhal_bsp.a(alt_exception_entry.o)
 .debug_line    0x0001b107      0x200 c:/develop/altera/12.1sp1/nios2eds/bin/gnu/h-i686-mingw32/bin/../lib/gcc/nios2-elf/4.1.2/../../../../nios2-elf/lib\libc.a(lib_a-atexit.o)
 .debug_line    0x0001b307      0x238 c:/develop/altera/12.1sp1/nios2eds/bin/gnu/h-i686-mingw32/bin/../lib/gcc/nios2-elf/4.1.2/../../../../nios2-elf/lib\libc.a(lib_a-exit.o)
 .debug_line    0x0001b53f      0x29f c:/develop/altera/12.1sp1/nios2eds/bin/gnu/h-i686-mingw32/bin/../lib/gcc/nios2-elf/4.1.2/../../../../nios2-elf/lib\libc.a(lib_a-memcmp.o)
 .debug_line    0x0001b7de      0x313 c:/develop/altera/12.1sp1/nios2eds/bin/gnu/h-i686-mingw32/bin/../lib/gcc/nios2-elf/4.1.2/../../../../nios2-elf/lib\libc.a(lib_a-__atexit.o)
 .debug_line    0x0001baf1      0x367 c:/develop/altera/12.1sp1/nios2eds/bin/gnu/h-i686-mingw32/bin/../lib/gcc/nios2-elf/4.1.2/../../../../nios2-elf/lib\libc.a(lib_a-__call_atexit.o)
 .debug_line    0x0001be58      0x1ec ../bmp_test_bsp/\libhal_bsp.a(alt_exit.o)

.debug_frame    0x00000000     0x27a4
 *(.debug_frame)
 .debug_frame   0x00000000       0x48 obj/default/bmp_test.o
 .debug_frame   0x00000048      0x504 obj/default/mmcfs/fatfs/ff.o
 .debug_frame   0x0000054c      0x17c obj/default/mmcfs/fatfs/mmcbb.o
 .debug_frame   0x000006c8       0x48 obj/default/mmcfs/fatfs/option/cc932.o
 .debug_frame   0x00000710       0x2c obj/default/mmcfs/gettime.o
 .debug_frame   0x0000073c      0x17c obj/default/mmcfs/mmc_spi.o
 .debug_frame   0x000008b8       0xd8 obj/default/mmcfs/mmcfs.o
 .debug_frame   0x00000990      0x304 obj/default/nd_lib/nd_egl.o
 .debug_frame   0x00000c94       0x3c c:/develop/altera/12.1sp1/nios2eds/bin/gnu/h-i686-mingw32/bin/../lib/gcc/nios2-elf/4.1.2/../../../../nios2-elf/lib\libc.a(lib_a-fclose.o)
 .debug_frame   0x00000cd0       0x40 c:/develop/altera/12.1sp1/nios2eds/bin/gnu/h-i686-mingw32/bin/../lib/gcc/nios2-elf/4.1.2/../../../../nios2-elf/lib\libc.a(lib_a-fflush.o)
 .debug_frame   0x00000d10      0x118 c:/develop/altera/12.1sp1/nios2eds/bin/gnu/h-i686-mingw32/bin/../lib/gcc/nios2-elf/4.1.2/../../../../nios2-elf/lib\libc.a(lib_a-findfp.o)
 .debug_frame   0x00000e28       0x40 c:/develop/altera/12.1sp1/nios2eds/bin/gnu/h-i686-mingw32/bin/../lib/gcc/nios2-elf/4.1.2/../../../../nios2-elf/lib\libc.a(lib_a-fopen.o)
 .debug_frame   0x00000e68       0x54 c:/develop/altera/12.1sp1/nios2eds/bin/gnu/h-i686-mingw32/bin/../lib/gcc/nios2-elf/4.1.2/../../../../nios2-elf/lib\libc.a(lib_a-fread.o)
 .debug_frame   0x00000ebc       0x4c c:/develop/altera/12.1sp1/nios2eds/bin/gnu/h-i686-mingw32/bin/../lib/gcc/nios2-elf/4.1.2/../../../../nios2-elf/lib\libc.a(lib_a-freer.o)
 .debug_frame   0x00000f08       0x48 c:/develop/altera/12.1sp1/nios2eds/bin/gnu/h-i686-mingw32/bin/../lib/gcc/nios2-elf/4.1.2/../../../../nios2-elf/lib\libc.a(lib_a-fseek.o)
 .debug_frame   0x00000f50       0x2c c:/develop/altera/12.1sp1/nios2eds/bin/gnu/h-i686-mingw32/bin/../lib/gcc/nios2-elf/4.1.2/../../../../nios2-elf/lib\libc.a(lib_a-fstatr.o)
 .debug_frame   0x00000f7c       0x60 c:/develop/altera/12.1sp1/nios2eds/bin/gnu/h-i686-mingw32/bin/../lib/gcc/nios2-elf/4.1.2/../../../../nios2-elf/lib\libc.a(lib_a-fwalk.o)
 .debug_frame   0x00000fdc       0x2c c:/develop/altera/12.1sp1/nios2eds/bin/gnu/h-i686-mingw32/bin/../lib/gcc/nios2-elf/4.1.2/../../../../nios2-elf/lib\libc.a(lib_a-makebuf.o)
 .debug_frame   0x00001008       0x30 c:/develop/altera/12.1sp1/nios2eds/bin/gnu/h-i686-mingw32/bin/../lib/gcc/nios2-elf/4.1.2/../../../../nios2-elf/lib\libc.a(lib_a-malloc.o)
 .debug_frame   0x00001038       0x38 c:/develop/altera/12.1sp1/nios2eds/bin/gnu/h-i686-mingw32/bin/../lib/gcc/nios2-elf/4.1.2/../../../../nios2-elf/lib\libc.a(lib_a-mallocr.o)
 .debug_frame   0x00001070       0x20 c:/develop/altera/12.1sp1/nios2eds/bin/gnu/h-i686-mingw32/bin/../lib/gcc/nios2-elf/4.1.2/../../../../nios2-elf/lib\libc.a(lib_a-memcpy.o)
 .debug_frame   0x00001090       0x20 c:/develop/altera/12.1sp1/nios2eds/bin/gnu/h-i686-mingw32/bin/../lib/gcc/nios2-elf/4.1.2/../../../../nios2-elf/lib\libc.a(lib_a-memset.o)
 .debug_frame   0x000010b0       0x2c c:/develop/altera/12.1sp1/nios2eds/bin/gnu/h-i686-mingw32/bin/../lib/gcc/nios2-elf/4.1.2/../../../../nios2-elf/lib\libc.a(lib_a-openr.o)
 .debug_frame   0x000010dc       0x40 c:/develop/altera/12.1sp1/nios2eds/bin/gnu/h-i686-mingw32/bin/../lib/gcc/nios2-elf/4.1.2/../../../../nios2-elf/lib\libc.a(lib_a-printf.o)
 .debug_frame   0x0000111c       0x3c c:/develop/altera/12.1sp1/nios2eds/bin/gnu/h-i686-mingw32/bin/../lib/gcc/nios2-elf/4.1.2/../../../../nios2-elf/lib\libc.a(lib_a-puts.o)
 .debug_frame   0x00001158       0x3c c:/develop/altera/12.1sp1/nios2eds/bin/gnu/h-i686-mingw32/bin/../lib/gcc/nios2-elf/4.1.2/../../../../nios2-elf/lib\libc.a(lib_a-refill.o)
 .debug_frame   0x00001194       0x2c c:/develop/altera/12.1sp1/nios2eds/bin/gnu/h-i686-mingw32/bin/../lib/gcc/nios2-elf/4.1.2/../../../../nios2-elf/lib\libc.a(lib_a-sbrkr.o)
 .debug_frame   0x000011c0       0x78 c:/develop/altera/12.1sp1/nios2eds/bin/gnu/h-i686-mingw32/bin/../lib/gcc/nios2-elf/4.1.2/../../../../nios2-elf/lib\libc.a(lib_a-stdio.o)
 .debug_frame   0x00001238       0x20 c:/develop/altera/12.1sp1/nios2eds/bin/gnu/h-i686-mingw32/bin/../lib/gcc/nios2-elf/4.1.2/../../../../nios2-elf/lib\libc.a(lib_a-strlen.o)
 .debug_frame   0x00001258       0x64 c:/develop/altera/12.1sp1/nios2eds/bin/gnu/h-i686-mingw32/bin/../lib/gcc/nios2-elf/4.1.2/../../../../nios2-elf/lib\libc.a(lib_a-vfprintf.o)
 .debug_frame   0x000012bc       0x2c c:/develop/altera/12.1sp1/nios2eds/bin/gnu/h-i686-mingw32/bin/../lib/gcc/nios2-elf/4.1.2/../../../../nios2-elf/lib\libc.a(lib_a-writer.o)
 .debug_frame   0x000012e8       0x2c c:/develop/altera/12.1sp1/nios2eds/bin/gnu/h-i686-mingw32/bin/../lib/gcc/nios2-elf/4.1.2/../../../../nios2-elf/lib\libc.a(lib_a-wsetup.o)
 .debug_frame   0x00001314       0x2c c:/develop/altera/12.1sp1/nios2eds/bin/gnu/h-i686-mingw32/bin/../lib/gcc/nios2-elf/4.1.2/../../../../nios2-elf/lib\libc.a(lib_a-closer.o)
 .debug_frame   0x00001340       0x64 c:/develop/altera/12.1sp1/nios2eds/bin/gnu/h-i686-mingw32/bin/../lib/gcc/nios2-elf/4.1.2/../../../../nios2-elf/lib\libc.a(lib_a-dtoa.o)
 .debug_frame   0x000013a4       0x20 c:/develop/altera/12.1sp1/nios2eds/bin/gnu/h-i686-mingw32/bin/../lib/gcc/nios2-elf/4.1.2/../../../../nios2-elf/lib\libc.a(lib_a-flags.o)
 .debug_frame   0x000013c4       0x38 c:/develop/altera/12.1sp1/nios2eds/bin/gnu/h-i686-mingw32/bin/../lib/gcc/nios2-elf/4.1.2/../../../../nios2-elf/lib\libc.a(lib_a-fvwrite.o)
 .debug_frame   0x000013fc       0x2c c:/develop/altera/12.1sp1/nios2eds/bin/gnu/h-i686-mingw32/bin/../lib/gcc/nios2-elf/4.1.2/../../../../nios2-elf/lib\libc.a(lib_a-isattyr.o)
 .debug_frame   0x00001428       0x70 c:/develop/altera/12.1sp1/nios2eds/bin/gnu/h-i686-mingw32/bin/../lib/gcc/nios2-elf/4.1.2/../../../../nios2-elf/lib\libc.a(lib_a-locale.o)
 .debug_frame   0x00001498       0x2c c:/develop/altera/12.1sp1/nios2eds/bin/gnu/h-i686-mingw32/bin/../lib/gcc/nios2-elf/4.1.2/../../../../nios2-elf/lib\libc.a(lib_a-lseekr.o)
 .debug_frame   0x000014c4       0x20 c:/develop/altera/12.1sp1/nios2eds/bin/gnu/h-i686-mingw32/bin/../lib/gcc/nios2-elf/4.1.2/../../../../nios2-elf/lib\libc.a(lib_a-memchr.o)
 .debug_frame   0x000014e4       0x20 c:/develop/altera/12.1sp1/nios2eds/bin/gnu/h-i686-mingw32/bin/../lib/gcc/nios2-elf/4.1.2/../../../../nios2-elf/lib\libc.a(lib_a-memmove.o)
 .debug_frame   0x00001504      0x218 c:/develop/altera/12.1sp1/nios2eds/bin/gnu/h-i686-mingw32/bin/../lib/gcc/nios2-elf/4.1.2/../../../../nios2-elf/lib\libc.a(lib_a-mprec.o)
 .debug_frame   0x0000171c       0x2c c:/develop/altera/12.1sp1/nios2eds/bin/gnu/h-i686-mingw32/bin/../lib/gcc/nios2-elf/4.1.2/../../../../nios2-elf/lib\libc.a(lib_a-readr.o)
 .debug_frame   0x00001748       0x38 c:/develop/altera/12.1sp1/nios2eds/bin/gnu/h-i686-mingw32/bin/../lib/gcc/nios2-elf/4.1.2/../../../../nios2-elf/lib\libc.a(lib_a-reallocr.o)
 .debug_frame   0x00001780       0x20 c:/develop/altera/12.1sp1/nios2eds/bin/gnu/h-i686-mingw32/bin/../lib/gcc/nios2-elf/4.1.2/../../../../nios2-elf/lib\libc.a(lib_a-s_isinfd.o)
 .debug_frame   0x000017a0       0x20 c:/develop/altera/12.1sp1/nios2eds/bin/gnu/h-i686-mingw32/bin/../lib/gcc/nios2-elf/4.1.2/../../../../nios2-elf/lib\libc.a(lib_a-s_isnand.o)
 .debug_frame   0x000017c0       0x20 c:/develop/altera/12.1sp1/nios2eds/bin/gnu/h-i686-mingw32/bin/../lib/gcc/nios2-elf/4.1.2/../../../../nios2-elf/lib\libc.a(lib_a-strcmp.o)
 .debug_frame   0x000017e0       0x28 c:/develop/altera/12.1sp1/nios2eds/bin/gnu/h-i686-mingw32/bin/../lib/gcc/nios2-elf/4.1.2/../../../../nios2-elf/lib\libc.a(lib_a-callocr.o)
 .debug_frame   0x00001808       0x38 c:/develop/altera/12.1sp1/nios2eds/bin/gnu/h-i686-mingw32/bin/../lib/gcc/nios2-elf/4.1.2\libgcc.a(_udivdi3.o)
 .debug_frame   0x00001840       0x38 c:/develop/altera/12.1sp1/nios2eds/bin/gnu/h-i686-mingw32/bin/../lib/gcc/nios2-elf/4.1.2\libgcc.a(_umoddi3.o)
 .debug_frame   0x00001878       0x70 c:/develop/altera/12.1sp1/nios2eds/bin/gnu/h-i686-mingw32/bin/../lib/gcc/nios2-elf/4.1.2\libgcc.a(_addsub_df.o)
 .debug_frame   0x000018e8       0x3c c:/develop/altera/12.1sp1/nios2eds/bin/gnu/h-i686-mingw32/bin/../lib/gcc/nios2-elf/4.1.2\libgcc.a(_mul_df.o)
 .debug_frame   0x00001924       0x30 c:/develop/altera/12.1sp1/nios2eds/bin/gnu/h-i686-mingw32/bin/../lib/gcc/nios2-elf/4.1.2\libgcc.a(_div_df.o)
 .debug_frame   0x00001954       0x2c c:/develop/altera/12.1sp1/nios2eds/bin/gnu/h-i686-mingw32/bin/../lib/gcc/nios2-elf/4.1.2\libgcc.a(_eq_df.o)
 .debug_frame   0x00001980       0x2c c:/develop/altera/12.1sp1/nios2eds/bin/gnu/h-i686-mingw32/bin/../lib/gcc/nios2-elf/4.1.2\libgcc.a(_ne_df.o)
 .debug_frame   0x000019ac       0x2c c:/develop/altera/12.1sp1/nios2eds/bin/gnu/h-i686-mingw32/bin/../lib/gcc/nios2-elf/4.1.2\libgcc.a(_gt_df.o)
 .debug_frame   0x000019d8       0x2c c:/develop/altera/12.1sp1/nios2eds/bin/gnu/h-i686-mingw32/bin/../lib/gcc/nios2-elf/4.1.2\libgcc.a(_ge_df.o)
 .debug_frame   0x00001a04       0x2c c:/develop/altera/12.1sp1/nios2eds/bin/gnu/h-i686-mingw32/bin/../lib/gcc/nios2-elf/4.1.2\libgcc.a(_lt_df.o)
 .debug_frame   0x00001a30       0x30 c:/develop/altera/12.1sp1/nios2eds/bin/gnu/h-i686-mingw32/bin/../lib/gcc/nios2-elf/4.1.2\libgcc.a(_si_to_df.o)
 .debug_frame   0x00001a60       0x28 c:/develop/altera/12.1sp1/nios2eds/bin/gnu/h-i686-mingw32/bin/../lib/gcc/nios2-elf/4.1.2\libgcc.a(_df_to_si.o)
 .debug_frame   0x00001a88       0x38 c:/develop/altera/12.1sp1/nios2eds/bin/gnu/h-i686-mingw32/bin/../lib/gcc/nios2-elf/4.1.2\libgcc.a(_usi_to_df.o)
 .debug_frame   0x00001ac0       0x70 c:/develop/altera/12.1sp1/nios2eds/bin/gnu/h-i686-mingw32/bin/../lib/gcc/nios2-elf/4.1.2\libgcc.a(lib2-divmod.o)
 .debug_frame   0x00001b30       0x2c c:/develop/altera/12.1sp1/nios2eds/bin/gnu/h-i686-mingw32/bin/../lib/gcc/nios2-elf/4.1.2\libgcc.a(_muldi3.o)
 .debug_frame   0x00001b5c       0x20 c:/develop/altera/12.1sp1/nios2eds/bin/gnu/h-i686-mingw32/bin/../lib/gcc/nios2-elf/4.1.2\libgcc.a(_clzsi2.o)
 .debug_frame   0x00001b7c       0x2c c:/develop/altera/12.1sp1/nios2eds/bin/gnu/h-i686-mingw32/bin/../lib/gcc/nios2-elf/4.1.2\libgcc.a(_pack_df.o)
 .debug_frame   0x00001ba8       0x20 c:/develop/altera/12.1sp1/nios2eds/bin/gnu/h-i686-mingw32/bin/../lib/gcc/nios2-elf/4.1.2\libgcc.a(_unpack_df.o)
 .debug_frame   0x00001bc8       0x20 c:/develop/altera/12.1sp1/nios2eds/bin/gnu/h-i686-mingw32/bin/../lib/gcc/nios2-elf/4.1.2\libgcc.a(_fpcmp_parts_df.o)
 .debug_frame   0x00001be8       0x2c ../bmp_test_bsp/\libhal_bsp.a(alt_close.o)
 .debug_frame   0x00001c14       0x20 ../bmp_test_bsp/\libhal_bsp.a(alt_dcache_flush.o)
 .debug_frame   0x00001c34       0x20 ../bmp_test_bsp/\libhal_bsp.a(alt_dev.o)
 .debug_frame   0x00001c54       0x20 ../bmp_test_bsp/\libhal_bsp.a(alt_fs_reg.o)
 .debug_frame   0x00001c74       0x28 ../bmp_test_bsp/\libhal_bsp.a(alt_fstat.o)
 .debug_frame   0x00001c9c       0x28 ../bmp_test_bsp/\libhal_bsp.a(alt_isatty.o)
 .debug_frame   0x00001cc4       0x28 ../bmp_test_bsp/\libhal_bsp.a(alt_lseek.o)
 .debug_frame   0x00001cec       0x28 ../bmp_test_bsp/\libhal_bsp.a(alt_main.o)
 .debug_frame   0x00001d14       0x30 ../bmp_test_bsp/\libhal_bsp.a(alt_malloc_lock.o)
 .debug_frame   0x00001d44       0x34 ../bmp_test_bsp/\libhal_bsp.a(alt_open.o)
 .debug_frame   0x00001d78       0x28 ../bmp_test_bsp/\libhal_bsp.a(alt_read.o)
 .debug_frame   0x00001da0       0x20 ../bmp_test_bsp/\libhal_bsp.a(alt_release_fd.o)
 .debug_frame   0x00001dc0       0x20 ../bmp_test_bsp/\libhal_bsp.a(alt_sbrk.o)
 .debug_frame   0x00001de0       0x20 ../bmp_test_bsp/\libhal_bsp.a(alt_usleep.o)
 .debug_frame   0x00001e00       0x28 ../bmp_test_bsp/\libhal_bsp.a(alt_write.o)
 .debug_frame   0x00001e28       0x44 ../bmp_test_bsp/\libhal_bsp.a(alt_sys_init.o)
 .debug_frame   0x00001e6c       0xb4 ../bmp_test_bsp/\libhal_bsp.a(altera_avalon_cfi_flash.o)
 .debug_frame   0x00001f20      0x168 ../bmp_test_bsp/\libhal_bsp.a(altera_avalon_cfi_flash_table.o)
 .debug_frame   0x00002088       0x50 ../bmp_test_bsp/\libhal_bsp.a(altera_avalon_jtag_uart_fd.o)
 .debug_frame   0x000020d8       0x5c ../bmp_test_bsp/\libhal_bsp.a(altera_avalon_jtag_uart_init.o)
 .debug_frame   0x00002134       0x20 ../bmp_test_bsp/\libhal_bsp.a(altera_avalon_jtag_uart_ioctl.o)
 .debug_frame   0x00002154       0x38 ../bmp_test_bsp/\libhal_bsp.a(altera_avalon_jtag_uart_read.o)
 .debug_frame   0x0000218c       0x34 ../bmp_test_bsp/\libhal_bsp.a(altera_avalon_jtag_uart_write.o)
 .debug_frame   0x000021c0       0x40 ../bmp_test_bsp/\libhal_bsp.a(altera_avalon_timer_sc.o)
 .debug_frame   0x00002200       0x40 ../bmp_test_bsp/\libhal_bsp.a(altera_avalon_uart_fd.o)
 .debug_frame   0x00002240       0x48 ../bmp_test_bsp/\libhal_bsp.a(altera_avalon_uart_init.o)
 .debug_frame   0x00002288       0x28 ../bmp_test_bsp/\libhal_bsp.a(altera_avalon_uart_read.o)
 .debug_frame   0x000022b0       0x2c ../bmp_test_bsp/\libhal_bsp.a(altera_avalon_uart_write.o)
 .debug_frame   0x000022dc       0x20 ../bmp_test_bsp/\libhal_bsp.a(alt_alarm_start.o)
 .debug_frame   0x000022fc       0x20 ../bmp_test_bsp/\libhal_bsp.a(alt_busy_sleep.o)
 .debug_frame   0x0000231c       0x28 ../bmp_test_bsp/\libhal_bsp.a(alt_dev_llist_insert.o)
 .debug_frame   0x00002344       0x2c ../bmp_test_bsp/\libhal_bsp.a(alt_do_ctors.o)
 .debug_frame   0x00002370       0x2c ../bmp_test_bsp/\libhal_bsp.a(alt_do_dtors.o)
 .debug_frame   0x0000239c       0x30 ../bmp_test_bsp/\libhal_bsp.a(alt_find_dev.o)
 .debug_frame   0x000023cc       0x34 ../bmp_test_bsp/\libhal_bsp.a(alt_find_file.o)
 .debug_frame   0x00002400       0x38 ../bmp_test_bsp/\libhal_bsp.a(alt_flash_dev.o)
 .debug_frame   0x00002438       0x20 ../bmp_test_bsp/\libhal_bsp.a(alt_get_fd.o)
 .debug_frame   0x00002458       0x50 ../bmp_test_bsp/\libhal_bsp.a(alt_iic.o)
 .debug_frame   0x000024a8       0x28 ../bmp_test_bsp/\libhal_bsp.a(alt_iic_isr_register.o)
 .debug_frame   0x000024d0       0x50 ../bmp_test_bsp/\libhal_bsp.a(alt_io_redirect.o)
 .debug_frame   0x00002520       0x28 ../bmp_test_bsp/\libhal_bsp.a(alt_irq_handler.o)
 .debug_frame   0x00002548       0x40 ../bmp_test_bsp/\libhal_bsp.a(alt_tick.o)
 .debug_frame   0x00002588       0x20 ../bmp_test_bsp/\libhal_bsp.a(altera_nios2_irq.o)
 .debug_frame   0x000025a8       0x60 ../bmp_test_bsp/\libhal_bsp.a(altera_avalon_cfi_flash_amd.o)
 .debug_frame   0x00002608       0x94 ../bmp_test_bsp/\libhal_bsp.a(altera_avalon_cfi_flash_intel.o)
 .debug_frame   0x0000269c       0x20 c:/develop/altera/12.1sp1/nios2eds/bin/gnu/h-i686-mingw32/bin/../lib/gcc/nios2-elf/4.1.2/../../../../nios2-elf/lib\libc.a(lib_a-atexit.o)
 .debug_frame   0x000026bc       0x28 c:/develop/altera/12.1sp1/nios2eds/bin/gnu/h-i686-mingw32/bin/../lib/gcc/nios2-elf/4.1.2/../../../../nios2-elf/lib\libc.a(lib_a-exit.o)
 .debug_frame   0x000026e4       0x20 c:/develop/altera/12.1sp1/nios2eds/bin/gnu/h-i686-mingw32/bin/../lib/gcc/nios2-elf/4.1.2/../../../../nios2-elf/lib\libc.a(lib_a-memcmp.o)
 .debug_frame   0x00002704       0x34 c:/develop/altera/12.1sp1/nios2eds/bin/gnu/h-i686-mingw32/bin/../lib/gcc/nios2-elf/4.1.2/../../../../nios2-elf/lib\libc.a(lib_a-__atexit.o)
 .debug_frame   0x00002738       0x4c c:/develop/altera/12.1sp1/nios2eds/bin/gnu/h-i686-mingw32/bin/../lib/gcc/nios2-elf/4.1.2/../../../../nios2-elf/lib\libc.a(lib_a-__call_atexit.o)
 .debug_frame   0x00002784       0x20 ../bmp_test_bsp/\libhal_bsp.a(alt_exit.o)

.debug_str      0x00000000     0x3705
 *(.debug_str)
 .debug_str     0x00000000       0x20 obj/default/bmp_test.o
 .debug_str     0x00000020       0x23 obj/default/mmcfs/fatfs/ff.o
 .debug_str     0x00000043       0x17 obj/default/mmcfs/fatfs/mmcbb.o
 .debug_str     0x0000005a       0x12 obj/default/mmcfs/fatfs/option/cc932.o
 .debug_str     0x0000006c       0x12 obj/default/mmcfs/gettime.o
 .debug_str     0x0000007e       0x1c obj/default/mmcfs/mmcfs.o
 .debug_str     0x0000009a       0x22 obj/default/nd_lib/nd_egl.o
 .debug_str     0x000000bc      0x468 c:/develop/altera/12.1sp1/nios2eds/bin/gnu/h-i686-mingw32/bin/../lib/gcc/nios2-elf/4.1.2/../../../../nios2-elf/lib\libc.a(lib_a-fclose.o)
                                0x516 (size before relaxing)
 .debug_str     0x00000524       0x65 c:/develop/altera/12.1sp1/nios2eds/bin/gnu/h-i686-mingw32/bin/../lib/gcc/nios2-elf/4.1.2/../../../../nios2-elf/lib\libc.a(lib_a-fflush.o)
                                0x532 (size before relaxing)
 .debug_str     0x00000589      0x102 c:/develop/altera/12.1sp1/nios2eds/bin/gnu/h-i686-mingw32/bin/../lib/gcc/nios2-elf/4.1.2/../../../../nios2-elf/lib\libc.a(lib_a-findfp.o)
                                0x5f4 (size before relaxing)
 .debug_str     0x0000068b       0x4f c:/develop/altera/12.1sp1/nios2eds/bin/gnu/h-i686-mingw32/bin/../lib/gcc/nios2-elf/4.1.2/../../../../nios2-elf/lib\libc.a(lib_a-fopen.o)
                                0x525 (size before relaxing)
 .debug_str     0x000006da       0x70 c:/develop/altera/12.1sp1/nios2eds/bin/gnu/h-i686-mingw32/bin/../lib/gcc/nios2-elf/4.1.2/../../../../nios2-elf/lib\libc.a(lib_a-fread.o)
                                0x54e (size before relaxing)
 .debug_str     0x0000074a      0x1e7 c:/develop/altera/12.1sp1/nios2eds/bin/gnu/h-i686-mingw32/bin/../lib/gcc/nios2-elf/4.1.2/../../../../nios2-elf/lib\libc.a(lib_a-freer.o)
                                0x643 (size before relaxing)
 .debug_str     0x00000931      0x13a c:/develop/altera/12.1sp1/nios2eds/bin/gnu/h-i686-mingw32/bin/../lib/gcc/nios2-elf/4.1.2/../../../../nios2-elf/lib\libc.a(lib_a-fseek.o)
                                0x632 (size before relaxing)
 .debug_str     0x00000a6b       0xd4 c:/develop/altera/12.1sp1/nios2eds/bin/gnu/h-i686-mingw32/bin/../lib/gcc/nios2-elf/4.1.2/../../../../nios2-elf/lib\libc.a(lib_a-fstatr.o)
                                0x5f1 (size before relaxing)
 .debug_str     0x00000b3f       0x5e c:/develop/altera/12.1sp1/nios2eds/bin/gnu/h-i686-mingw32/bin/../lib/gcc/nios2-elf/4.1.2/../../../../nios2-elf/lib\libc.a(lib_a-fwalk.o)
                                0x535 (size before relaxing)
 .debug_str     0x00000b9d       0x46 c:/develop/altera/12.1sp1/nios2eds/bin/gnu/h-i686-mingw32/bin/../lib/gcc/nios2-elf/4.1.2/../../../../nios2-elf/lib\libc.a(lib_a-impure.o)
                                0x51a (size before relaxing)
 .debug_str     0x00000be3       0x3d c:/develop/altera/12.1sp1/nios2eds/bin/gnu/h-i686-mingw32/bin/../lib/gcc/nios2-elf/4.1.2/../../../../nios2-elf/lib\libc.a(lib_a-int_errno.o)
                                0x163 (size before relaxing)
 .debug_str     0x00000c20       0x53 c:/develop/altera/12.1sp1/nios2eds/bin/gnu/h-i686-mingw32/bin/../lib/gcc/nios2-elf/4.1.2/../../../../nios2-elf/lib\libc.a(lib_a-makebuf.o)
                                0x606 (size before relaxing)
 .debug_str     0x00000c73       0x47 c:/develop/altera/12.1sp1/nios2eds/bin/gnu/h-i686-mingw32/bin/../lib/gcc/nios2-elf/4.1.2/../../../../nios2-elf/lib\libc.a(lib_a-malloc.o)
                                0x51c (size before relaxing)
 .debug_str     0x00000cba       0xe3 c:/develop/altera/12.1sp1/nios2eds/bin/gnu/h-i686-mingw32/bin/../lib/gcc/nios2-elf/4.1.2/../../../../nios2-elf/lib\libc.a(lib_a-mallocr.o)
                                0x6f1 (size before relaxing)
 .debug_str     0x00000d9d       0xf5 c:/develop/altera/12.1sp1/nios2eds/bin/gnu/h-i686-mingw32/bin/../lib/gcc/nios2-elf/4.1.2/../../../../nios2-elf/lib\libc.a(lib_a-memcpy.o)
                                0x128 (size before relaxing)
 .debug_str     0x00000e92       0x56 c:/develop/altera/12.1sp1/nios2eds/bin/gnu/h-i686-mingw32/bin/../lib/gcc/nios2-elf/4.1.2/../../../../nios2-elf/lib\libc.a(lib_a-memset.o)
                                0x17e (size before relaxing)
 .debug_str     0x00000ee8       0x41 c:/develop/altera/12.1sp1/nios2eds/bin/gnu/h-i686-mingw32/bin/../lib/gcc/nios2-elf/4.1.2/../../../../nios2-elf/lib\libc.a(lib_a-openr.o)
                                0x50c (size before relaxing)
 .debug_str     0x00000f29       0x53 c:/develop/altera/12.1sp1/nios2eds/bin/gnu/h-i686-mingw32/bin/../lib/gcc/nios2-elf/4.1.2/../../../../nios2-elf/lib\libc.a(lib_a-printf.o)
                                0x523 (size before relaxing)
 .debug_str     0x00000f7c       0x81 c:/develop/altera/12.1sp1/nios2eds/bin/gnu/h-i686-mingw32/bin/../lib/gcc/nios2-elf/4.1.2/../../../../nios2-elf/lib\libc.a(lib_a-puts.o)
                                0x549 (size before relaxing)
 .debug_str     0x00000ffd       0x4d c:/develop/altera/12.1sp1/nios2eds/bin/gnu/h-i686-mingw32/bin/../lib/gcc/nios2-elf/4.1.2/../../../../nios2-elf/lib\libc.a(lib_a-refill.o)
                                0x51a (size before relaxing)
 .debug_str     0x0000104a       0x50 c:/develop/altera/12.1sp1/nios2eds/bin/gnu/h-i686-mingw32/bin/../lib/gcc/nios2-elf/4.1.2/../../../../nios2-elf/lib\libc.a(lib_a-sbrkr.o)
                                0x50b (size before relaxing)
 .debug_str     0x0000109a       0x5b c:/develop/altera/12.1sp1/nios2eds/bin/gnu/h-i686-mingw32/bin/../lib/gcc/nios2-elf/4.1.2/../../../../nios2-elf/lib\libc.a(lib_a-stdio.o)
                                0x531 (size before relaxing)
 .debug_str     0x000010f5       0x42 c:/develop/altera/12.1sp1/nios2eds/bin/gnu/h-i686-mingw32/bin/../lib/gcc/nios2-elf/4.1.2/../../../../nios2-elf/lib\libc.a(lib_a-strlen.o)
                                0x17d (size before relaxing)
 .debug_str     0x00001137      0x16d c:/develop/altera/12.1sp1/nios2eds/bin/gnu/h-i686-mingw32/bin/../lib/gcc/nios2-elf/4.1.2/../../../../nios2-elf/lib\libc.a(lib_a-vfprintf.o)
                                0x6f8 (size before relaxing)
 .debug_str     0x000012a4       0x4c c:/develop/altera/12.1sp1/nios2eds/bin/gnu/h-i686-mingw32/bin/../lib/gcc/nios2-elf/4.1.2/../../../../nios2-elf/lib\libc.a(lib_a-writer.o)
                                0x50e (size before relaxing)
 .debug_str     0x000012f0       0x46 c:/develop/altera/12.1sp1/nios2eds/bin/gnu/h-i686-mingw32/bin/../lib/gcc/nios2-elf/4.1.2/../../../../nios2-elf/lib\libc.a(lib_a-wsetup.o)
                                0x50c (size before relaxing)
 .debug_str     0x00001336       0x43 c:/develop/altera/12.1sp1/nios2eds/bin/gnu/h-i686-mingw32/bin/../lib/gcc/nios2-elf/4.1.2/../../../../nios2-elf/lib\libc.a(lib_a-closer.o)
                                0x4fe (size before relaxing)
 .debug_str     0x00001379      0x102 c:/develop/altera/12.1sp1/nios2eds/bin/gnu/h-i686-mingw32/bin/../lib/gcc/nios2-elf/4.1.2/../../../../nios2-elf/lib\libc.a(lib_a-dtoa.o)
                                0x601 (size before relaxing)
 .debug_str     0x0000147b       0x47 c:/develop/altera/12.1sp1/nios2eds/bin/gnu/h-i686-mingw32/bin/../lib/gcc/nios2-elf/4.1.2/../../../../nios2-elf/lib\libc.a(lib_a-flags.o)
                                0x501 (size before relaxing)
 .debug_str     0x000014c2       0x66 c:/develop/altera/12.1sp1/nios2eds/bin/gnu/h-i686-mingw32/bin/../lib/gcc/nios2-elf/4.1.2/../../../../nios2-elf/lib\libc.a(lib_a-fvwrite.o)
                                0x563 (size before relaxing)
 .debug_str     0x00001528       0x45 c:/develop/altera/12.1sp1/nios2eds/bin/gnu/h-i686-mingw32/bin/../lib/gcc/nios2-elf/4.1.2/../../../../nios2-elf/lib\libc.a(lib_a-isattyr.o)
                                0x500 (size before relaxing)
 .debug_str     0x0000156d      0x225 c:/develop/altera/12.1sp1/nios2eds/bin/gnu/h-i686-mingw32/bin/../lib/gcc/nios2-elf/4.1.2/../../../../nios2-elf/lib\libc.a(lib_a-locale.o)
                                0x6a9 (size before relaxing)
 .debug_str     0x00001792       0x43 c:/develop/altera/12.1sp1/nios2eds/bin/gnu/h-i686-mingw32/bin/../lib/gcc/nios2-elf/4.1.2/../../../../nios2-elf/lib\libc.a(lib_a-lseekr.o)
                                0x50c (size before relaxing)
 .debug_str     0x000017d5       0x50 c:/develop/altera/12.1sp1/nios2eds/bin/gnu/h-i686-mingw32/bin/../lib/gcc/nios2-elf/4.1.2/../../../../nios2-elf/lib\libc.a(lib_a-memchr.o)
                                0x18b (size before relaxing)
 .debug_str     0x00001825       0x4d c:/develop/altera/12.1sp1/nios2eds/bin/gnu/h-i686-mingw32/bin/../lib/gcc/nios2-elf/4.1.2/../../../../nios2-elf/lib\libc.a(lib_a-memmove.o)
                                0x19d (size before relaxing)
 .debug_str     0x00001872       0xf8 c:/develop/altera/12.1sp1/nios2eds/bin/gnu/h-i686-mingw32/bin/../lib/gcc/nios2-elf/4.1.2/../../../../nios2-elf/lib\libc.a(lib_a-mprec.o)
                                0x60e (size before relaxing)
 .debug_str     0x0000196a       0x41 c:/develop/altera/12.1sp1/nios2eds/bin/gnu/h-i686-mingw32/bin/../lib/gcc/nios2-elf/4.1.2/../../../../nios2-elf/lib\libc.a(lib_a-readr.o)
                                0x50c (size before relaxing)
 .debug_str     0x000019ab       0x59 c:/develop/altera/12.1sp1/nios2eds/bin/gnu/h-i686-mingw32/bin/../lib/gcc/nios2-elf/4.1.2/../../../../nios2-elf/lib\libc.a(lib_a-reallocr.o)
                                0x5c3 (size before relaxing)
 .debug_str     0x00001a04       0xdc c:/develop/altera/12.1sp1/nios2eds/bin/gnu/h-i686-mingw32/bin/../lib/gcc/nios2-elf/4.1.2/../../../../nios2-elf/lib\libc.a(lib_a-s_isinfd.o)
                                0x18a (size before relaxing)
 .debug_str     0x00001ae0       0x46 c:/develop/altera/12.1sp1/nios2eds/bin/gnu/h-i686-mingw32/bin/../lib/gcc/nios2-elf/4.1.2/../../../../nios2-elf/lib\libc.a(lib_a-s_isnand.o)
                                0x18a (size before relaxing)
 .debug_str     0x00001b26       0x42 c:/develop/altera/12.1sp1/nios2eds/bin/gnu/h-i686-mingw32/bin/../lib/gcc/nios2-elf/4.1.2/../../../../nios2-elf/lib\libc.a(lib_a-strcmp.o)
                                0x163 (size before relaxing)
 .debug_str     0x00001b68       0x19 c:/develop/altera/12.1sp1/nios2eds/bin/gnu/h-i686-mingw32/bin/../lib/gcc/nios2-elf/4.1.2/../../../../nios2-elf/lib\libc.a(lib_a-callocr.o)
                                0x542 (size before relaxing)
 .debug_str     0x00001b81      0x147 c:/develop/altera/12.1sp1/nios2eds/bin/gnu/h-i686-mingw32/bin/../lib/gcc/nios2-elf/4.1.2\libgcc.a(_udivdi3.o)
                                0x1f7 (size before relaxing)
 .debug_str     0x00001cc8        0xa c:/develop/altera/12.1sp1/nios2eds/bin/gnu/h-i686-mingw32/bin/../lib/gcc/nios2-elf/4.1.2\libgcc.a(_umoddi3.o)
                                0x1f7 (size before relaxing)
 .debug_str     0x00001cd2      0x137 c:/develop/altera/12.1sp1/nios2eds/bin/gnu/h-i686-mingw32/bin/../lib/gcc/nios2-elf/4.1.2\libgcc.a(_addsub_df.o)
                                0x26f (size before relaxing)
 .debug_str     0x00001e09       0x40 c:/develop/altera/12.1sp1/nios2eds/bin/gnu/h-i686-mingw32/bin/../lib/gcc/nios2-elf/4.1.2\libgcc.a(_mul_df.o)
                                0x241 (size before relaxing)
 .debug_str     0x00001e49       0x35 c:/develop/altera/12.1sp1/nios2eds/bin/gnu/h-i686-mingw32/bin/../lib/gcc/nios2-elf/4.1.2\libgcc.a(_div_df.o)
                                0x231 (size before relaxing)
 .debug_str     0x00001e7e        0x8 c:/develop/altera/12.1sp1/nios2eds/bin/gnu/h-i686-mingw32/bin/../lib/gcc/nios2-elf/4.1.2\libgcc.a(_eq_df.o)
                                0x1fe (size before relaxing)
 .debug_str     0x00001e86        0x8 c:/develop/altera/12.1sp1/nios2eds/bin/gnu/h-i686-mingw32/bin/../lib/gcc/nios2-elf/4.1.2\libgcc.a(_ne_df.o)
                                0x1fe (size before relaxing)
 .debug_str     0x00001e8e        0x8 c:/develop/altera/12.1sp1/nios2eds/bin/gnu/h-i686-mingw32/bin/../lib/gcc/nios2-elf/4.1.2\libgcc.a(_gt_df.o)
                                0x1fe (size before relaxing)
 .debug_str     0x00001e96        0x8 c:/develop/altera/12.1sp1/nios2eds/bin/gnu/h-i686-mingw32/bin/../lib/gcc/nios2-elf/4.1.2\libgcc.a(_ge_df.o)
                                0x1fe (size before relaxing)
 .debug_str     0x00001e9e        0x8 c:/develop/altera/12.1sp1/nios2eds/bin/gnu/h-i686-mingw32/bin/../lib/gcc/nios2-elf/4.1.2\libgcc.a(_lt_df.o)
                                0x1fe (size before relaxing)
 .debug_str     0x00001ea6       0x18 c:/develop/altera/12.1sp1/nios2eds/bin/gnu/h-i686-mingw32/bin/../lib/gcc/nios2-elf/4.1.2\libgcc.a(_si_to_df.o)
                                0x1de (size before relaxing)
 .debug_str     0x00001ebe        0xa c:/develop/altera/12.1sp1/nios2eds/bin/gnu/h-i686-mingw32/bin/../lib/gcc/nios2-elf/4.1.2\libgcc.a(_df_to_si.o)
                                0x207 (size before relaxing)
 .debug_str     0x00000000      0x1a3 c:/develop/altera/12.1sp1/nios2eds/bin/gnu/h-i686-mingw32/bin/../lib/gcc/nios2-elf/4.1.2\libgcc.a(_thenan_df.o)
 .debug_str     0x00001ec8       0x14 c:/develop/altera/12.1sp1/nios2eds/bin/gnu/h-i686-mingw32/bin/../lib/gcc/nios2-elf/4.1.2\libgcc.a(_usi_to_df.o)
                                0x1da (size before relaxing)
 .debug_str     0x00001edc       0x76 c:/develop/altera/12.1sp1/nios2eds/bin/gnu/h-i686-mingw32/bin/../lib/gcc/nios2-elf/4.1.2\libgcc.a(lib2-divmod.o)
                                0x1b4 (size before relaxing)
 .debug_str     0x00001f52        0x9 c:/develop/altera/12.1sp1/nios2eds/bin/gnu/h-i686-mingw32/bin/../lib/gcc/nios2-elf/4.1.2\libgcc.a(_muldi3.o)
                                0x1ac (size before relaxing)
 .debug_str     0x00000000      0x161 c:/develop/altera/12.1sp1/nios2eds/bin/gnu/h-i686-mingw32/bin/../lib/gcc/nios2-elf/4.1.2\libgcc.a(_clz.o)
 .debug_str     0x00001f5b        0x9 c:/develop/altera/12.1sp1/nios2eds/bin/gnu/h-i686-mingw32/bin/../lib/gcc/nios2-elf/4.1.2\libgcc.a(_clzsi2.o)
                                0x17e (size before relaxing)
 .debug_str     0x00001f64       0x10 c:/develop/altera/12.1sp1/nios2eds/bin/gnu/h-i686-mingw32/bin/../lib/gcc/nios2-elf/4.1.2\libgcc.a(_pack_df.o)
                                0x206 (size before relaxing)
 .debug_str     0x00001f74        0xb c:/develop/altera/12.1sp1/nios2eds/bin/gnu/h-i686-mingw32/bin/../lib/gcc/nios2-elf/4.1.2\libgcc.a(_unpack_df.o)
                                0x1e8 (size before relaxing)
 .debug_str     0x00001f7f       0x10 c:/develop/altera/12.1sp1/nios2eds/bin/gnu/h-i686-mingw32/bin/../lib/gcc/nios2-elf/4.1.2\libgcc.a(_fpcmp_parts_df.o)
                                0x1c6 (size before relaxing)
 .debug_str     0x00001f8f       0xeb ../bmp_test_bsp/\libhal_bsp.a(alt_close.o)
                                0x1b2 (size before relaxing)
 .debug_str     0x0000207a       0x34 ../bmp_test_bsp/\libhal_bsp.a(alt_dcache_flush.o)
                                0x102 (size before relaxing)
 .debug_str     0x000020ae       0x50 ../bmp_test_bsp/\libhal_bsp.a(alt_dev.o)
                                0x2ac (size before relaxing)
 .debug_str     0x000020fe       0x14 ../bmp_test_bsp/\libhal_bsp.a(alt_errno.o)
                                 0xec (size before relaxing)
 .debug_str     0x00002112       0x31 ../bmp_test_bsp/\libhal_bsp.a(alt_fs_reg.o)
                                0x1b0 (size before relaxing)
 .debug_str     0x00002143       0x14 ../bmp_test_bsp/\libhal_bsp.a(alt_fstat.o)
                                0x293 (size before relaxing)
 .debug_str     0x00002157       0x1c ../bmp_test_bsp/\libhal_bsp.a(alt_isatty.o)
                                0x29b (size before relaxing)
 .debug_str     0x00002173       0x14 ../bmp_test_bsp/\libhal_bsp.a(alt_lseek.o)
                                0x1b8 (size before relaxing)
 .debug_str     0x00002187       0x44 ../bmp_test_bsp/\libhal_bsp.a(alt_main.o)
                                0x144 (size before relaxing)
 .debug_str     0x000021cb       0x38 ../bmp_test_bsp/\libhal_bsp.a(alt_malloc_lock.o)
                                0x495 (size before relaxing)
 .debug_str     0x00002203       0x30 ../bmp_test_bsp/\libhal_bsp.a(alt_open.o)
                                0x1f2 (size before relaxing)
 .debug_str     0x00002233       0x13 ../bmp_test_bsp/\libhal_bsp.a(alt_read.o)
                                0x29e (size before relaxing)
 .debug_str     0x00002246       0x28 ../bmp_test_bsp/\libhal_bsp.a(alt_release_fd.o)
                                0x18f (size before relaxing)
 .debug_str     0x0000226e       0x9d ../bmp_test_bsp/\libhal_bsp.a(alt_sbrk.o)
                                0x17b (size before relaxing)
 .debug_str     0x0000230b       0x27 ../bmp_test_bsp/\libhal_bsp.a(alt_usleep.o)
                                 0xef (size before relaxing)
 .debug_str     0x00002332       0x14 ../bmp_test_bsp/\libhal_bsp.a(alt_write.o)
                                0x29f (size before relaxing)
 .debug_str     0x00002346      0x3da ../bmp_test_bsp/\libhal_bsp.a(alt_sys_init.o)
                                0x5b9 (size before relaxing)
 .debug_str     0x00002720      0x1a8 ../bmp_test_bsp/\libhal_bsp.a(altera_avalon_cfi_flash.o)
                                0x4d6 (size before relaxing)
 .debug_str     0x000028c8      0x2c5 ../bmp_test_bsp/\libhal_bsp.a(altera_avalon_cfi_flash_table.o)
                                0x5fc (size before relaxing)
 .debug_str     0x00002b8d       0xac ../bmp_test_bsp/\libhal_bsp.a(altera_avalon_jtag_uart_fd.o)
                                0x34b (size before relaxing)
 .debug_str     0x00002c39       0xd1 ../bmp_test_bsp/\libhal_bsp.a(altera_avalon_jtag_uart_init.o)
                                0x2df (size before relaxing)
 .debug_str     0x00002d0a       0x4a ../bmp_test_bsp/\libhal_bsp.a(altera_avalon_jtag_uart_ioctl.o)
                                0x23a (size before relaxing)
 .debug_str     0x00002d54       0x48 ../bmp_test_bsp/\libhal_bsp.a(altera_avalon_jtag_uart_read.o)
                                0x28f (size before relaxing)
 .debug_str     0x00002d9c       0x4a ../bmp_test_bsp/\libhal_bsp.a(altera_avalon_jtag_uart_write.o)
                                0x290 (size before relaxing)
 .debug_str     0x00002de6       0x6d ../bmp_test_bsp/\libhal_bsp.a(altera_avalon_timer_sc.o)
                                0x1eb (size before relaxing)
 .debug_str     0x00002e53       0x77 ../bmp_test_bsp/\libhal_bsp.a(altera_avalon_uart_fd.o)
                                0x28f (size before relaxing)
 .debug_str     0x00002eca       0xa0 ../bmp_test_bsp/\libhal_bsp.a(altera_avalon_uart_init.o)
                                0x25e (size before relaxing)
 .debug_str     0x00002f6a       0x4f ../bmp_test_bsp/\libhal_bsp.a(altera_avalon_uart_read.o)
                                0x23f (size before relaxing)
 .debug_str     0x00002fb9       0x49 ../bmp_test_bsp/\libhal_bsp.a(altera_avalon_uart_write.o)
                                0x233 (size before relaxing)
 .debug_str     0x00003002       0x48 ../bmp_test_bsp/\libhal_bsp.a(alt_alarm_start.o)
                                0x225 (size before relaxing)
 .debug_str     0x0000304a       0x42 ../bmp_test_bsp/\libhal_bsp.a(alt_busy_sleep.o)
                                0x112 (size before relaxing)
 .debug_str     0x0000308c       0x42 ../bmp_test_bsp/\libhal_bsp.a(alt_dev_llist_insert.o)
                                0x173 (size before relaxing)
 .debug_str     0x000030ce       0x48 ../bmp_test_bsp/\libhal_bsp.a(alt_do_ctors.o)
                                 0x8c (size before relaxing)
 .debug_str     0x00003116       0x4c ../bmp_test_bsp/\libhal_bsp.a(alt_do_dtors.o)
                                 0x8b (size before relaxing)
 .debug_str     0x00003162       0x24 ../bmp_test_bsp/\libhal_bsp.a(alt_find_dev.o)
                                0x193 (size before relaxing)
 .debug_str     0x00003186       0x26 ../bmp_test_bsp/\libhal_bsp.a(alt_find_file.o)
                                0x1a1 (size before relaxing)
 .debug_str     0x000031ac       0x3f ../bmp_test_bsp/\libhal_bsp.a(alt_flash_dev.o)
                                0x296 (size before relaxing)
 .debug_str     0x000031eb       0x30 ../bmp_test_bsp/\libhal_bsp.a(alt_get_fd.o)
                                0x1c3 (size before relaxing)
 .debug_str     0x0000321b       0xbd ../bmp_test_bsp/\libhal_bsp.a(alt_iic.o)
                                0x1e5 (size before relaxing)
 .debug_str     0x000032d8       0x4c ../bmp_test_bsp/\libhal_bsp.a(alt_iic_isr_register.o)
                                0x18f (size before relaxing)
 .debug_str     0x00003324       0x56 ../bmp_test_bsp/\libhal_bsp.a(alt_io_redirect.o)
                                0x2bd (size before relaxing)
 .debug_str     0x0000337a       0x3a ../bmp_test_bsp/\libhal_bsp.a(alt_irq_handler.o)
                                0x13e (size before relaxing)
 .debug_str     0x000033b4       0x17 ../bmp_test_bsp/\libhal_bsp.a(alt_irq_vars.o)
                                 0xf6 (size before relaxing)
 .debug_str     0x000033cb       0x4a ../bmp_test_bsp/\libhal_bsp.a(alt_tick.o)
                                0x1f9 (size before relaxing)
 .debug_str     0x00003415       0x31 ../bmp_test_bsp/\libhal_bsp.a(altera_nios2_irq.o)
                                 0xf9 (size before relaxing)
 .debug_str     0x00003446       0x93 ../bmp_test_bsp/\libhal_bsp.a(altera_avalon_cfi_flash_amd.o)
                                0x3d6 (size before relaxing)
 .debug_str     0x000034d9       0x80 ../bmp_test_bsp/\libhal_bsp.a(altera_avalon_cfi_flash_intel.o)
                                0x3d3 (size before relaxing)
 .debug_str     0x00003559       0x3b c:/develop/altera/12.1sp1/nios2eds/bin/gnu/h-i686-mingw32/bin/../lib/gcc/nios2-elf/4.1.2/../../../../nios2-elf/lib\libc.a(lib_a-atexit.o)
                                0x1bf (size before relaxing)
 .debug_str     0x00003594       0x39 c:/develop/altera/12.1sp1/nios2eds/bin/gnu/h-i686-mingw32/bin/../lib/gcc/nios2-elf/4.1.2/../../../../nios2-elf/lib\libc.a(lib_a-exit.o)
                                0x50c (size before relaxing)
 .debug_str     0x000035cd       0x42 c:/develop/altera/12.1sp1/nios2eds/bin/gnu/h-i686-mingw32/bin/../lib/gcc/nios2-elf/4.1.2/../../../../nios2-elf/lib\libc.a(lib_a-memcmp.o)
                                0x16a (size before relaxing)
 .debug_str     0x0000360f       0x51 c:/develop/altera/12.1sp1/nios2eds/bin/gnu/h-i686-mingw32/bin/../lib/gcc/nios2-elf/4.1.2/../../../../nios2-elf/lib\libc.a(lib_a-__atexit.o)
                                0x524 (size before relaxing)
 .debug_str     0x00003660       0x7b c:/develop/altera/12.1sp1/nios2eds/bin/gnu/h-i686-mingw32/bin/../lib/gcc/nios2-elf/4.1.2/../../../../nios2-elf/lib\libc.a(lib_a-__call_atexit.o)
                                0x54e (size before relaxing)
 .debug_str     0x000036db       0x2a ../bmp_test_bsp/\libhal_bsp.a(alt_exit.o)
                                 0xf8 (size before relaxing)

.debug_loc      0x00000000     0xfb3e
 *(.debug_loc)
 .debug_loc     0x00000000       0x56 obj/default/bmp_test.o
 .debug_loc     0x00000056      0x797 obj/default/mmcfs/fatfs/ff.o
 .debug_loc     0x000007ed      0x22f obj/default/mmcfs/fatfs/mmcbb.o
 .debug_loc     0x00000a1c       0x56 obj/default/mmcfs/fatfs/option/cc932.o
 .debug_loc     0x00000a72       0x2b obj/default/mmcfs/gettime.o
 .debug_loc     0x00000a9d      0x22f obj/default/mmcfs/mmc_spi.o
 .debug_loc     0x00000ccc      0x12e obj/default/mmcfs/mmcfs.o
 .debug_loc     0x00000dfa      0x489 obj/default/nd_lib/nd_egl.o
 .debug_loc     0x00001283       0xe4 c:/develop/altera/12.1sp1/nios2eds/bin/gnu/h-i686-mingw32/bin/../lib/gcc/nios2-elf/4.1.2/../../../../nios2-elf/lib\libc.a(lib_a-fclose.o)
 .debug_loc     0x00001367      0x1f6 c:/develop/altera/12.1sp1/nios2eds/bin/gnu/h-i686-mingw32/bin/../lib/gcc/nios2-elf/4.1.2/../../../../nios2-elf/lib\libc.a(lib_a-fflush.o)
 .debug_loc     0x0000155d      0x19f c:/develop/altera/12.1sp1/nios2eds/bin/gnu/h-i686-mingw32/bin/../lib/gcc/nios2-elf/4.1.2/../../../../nios2-elf/lib\libc.a(lib_a-findfp.o)
 .debug_loc     0x000016fc      0x1c9 c:/develop/altera/12.1sp1/nios2eds/bin/gnu/h-i686-mingw32/bin/../lib/gcc/nios2-elf/4.1.2/../../../../nios2-elf/lib\libc.a(lib_a-fopen.o)
 .debug_loc     0x000018c5      0x303 c:/develop/altera/12.1sp1/nios2eds/bin/gnu/h-i686-mingw32/bin/../lib/gcc/nios2-elf/4.1.2/../../../../nios2-elf/lib\libc.a(lib_a-fread.o)
 .debug_loc     0x00001bc8      0x4a7 c:/develop/altera/12.1sp1/nios2eds/bin/gnu/h-i686-mingw32/bin/../lib/gcc/nios2-elf/4.1.2/../../../../nios2-elf/lib\libc.a(lib_a-freer.o)
 .debug_loc     0x0000206f      0x348 c:/develop/altera/12.1sp1/nios2eds/bin/gnu/h-i686-mingw32/bin/../lib/gcc/nios2-elf/4.1.2/../../../../nios2-elf/lib\libc.a(lib_a-fseek.o)
 .debug_loc     0x000023b7       0x79 c:/develop/altera/12.1sp1/nios2eds/bin/gnu/h-i686-mingw32/bin/../lib/gcc/nios2-elf/4.1.2/../../../../nios2-elf/lib\libc.a(lib_a-fstatr.o)
 .debug_loc     0x00002430      0x1d2 c:/develop/altera/12.1sp1/nios2eds/bin/gnu/h-i686-mingw32/bin/../lib/gcc/nios2-elf/4.1.2/../../../../nios2-elf/lib\libc.a(lib_a-fwalk.o)
 .debug_loc     0x00002602      0x11c c:/develop/altera/12.1sp1/nios2eds/bin/gnu/h-i686-mingw32/bin/../lib/gcc/nios2-elf/4.1.2/../../../../nios2-elf/lib\libc.a(lib_a-makebuf.o)
 .debug_loc     0x0000271e       0x3c c:/develop/altera/12.1sp1/nios2eds/bin/gnu/h-i686-mingw32/bin/../lib/gcc/nios2-elf/4.1.2/../../../../nios2-elf/lib\libc.a(lib_a-malloc.o)
 .debug_loc     0x0000275a      0xaeb c:/develop/altera/12.1sp1/nios2eds/bin/gnu/h-i686-mingw32/bin/../lib/gcc/nios2-elf/4.1.2/../../../../nios2-elf/lib\libc.a(lib_a-mallocr.o)
 .debug_loc     0x00003245       0xca c:/develop/altera/12.1sp1/nios2eds/bin/gnu/h-i686-mingw32/bin/../lib/gcc/nios2-elf/4.1.2/../../../../nios2-elf/lib\libc.a(lib_a-memcpy.o)
 .debug_loc     0x0000330f       0xa1 c:/develop/altera/12.1sp1/nios2eds/bin/gnu/h-i686-mingw32/bin/../lib/gcc/nios2-elf/4.1.2/../../../../nios2-elf/lib\libc.a(lib_a-memset.o)
 .debug_loc     0x000033b0       0x97 c:/develop/altera/12.1sp1/nios2eds/bin/gnu/h-i686-mingw32/bin/../lib/gcc/nios2-elf/4.1.2/../../../../nios2-elf/lib\libc.a(lib_a-openr.o)
 .debug_loc     0x00003447       0xcb c:/develop/altera/12.1sp1/nios2eds/bin/gnu/h-i686-mingw32/bin/../lib/gcc/nios2-elf/4.1.2/../../../../nios2-elf/lib\libc.a(lib_a-printf.o)
 .debug_loc     0x00003512       0xa2 c:/develop/altera/12.1sp1/nios2eds/bin/gnu/h-i686-mingw32/bin/../lib/gcc/nios2-elf/4.1.2/../../../../nios2-elf/lib\libc.a(lib_a-puts.o)
 .debug_loc     0x000035b4       0xd1 c:/develop/altera/12.1sp1/nios2eds/bin/gnu/h-i686-mingw32/bin/../lib/gcc/nios2-elf/4.1.2/../../../../nios2-elf/lib\libc.a(lib_a-refill.o)
 .debug_loc     0x00003685       0x5b c:/develop/altera/12.1sp1/nios2eds/bin/gnu/h-i686-mingw32/bin/../lib/gcc/nios2-elf/4.1.2/../../../../nios2-elf/lib\libc.a(lib_a-sbrkr.o)
 .debug_loc     0x000036e0      0x21f c:/develop/altera/12.1sp1/nios2eds/bin/gnu/h-i686-mingw32/bin/../lib/gcc/nios2-elf/4.1.2/../../../../nios2-elf/lib\libc.a(lib_a-stdio.o)
 .debug_loc     0x000038ff       0x3c c:/develop/altera/12.1sp1/nios2eds/bin/gnu/h-i686-mingw32/bin/../lib/gcc/nios2-elf/4.1.2/../../../../nios2-elf/lib\libc.a(lib_a-strlen.o)
 .debug_loc     0x0000393b     0x1e0d c:/develop/altera/12.1sp1/nios2eds/bin/gnu/h-i686-mingw32/bin/../lib/gcc/nios2-elf/4.1.2/../../../../nios2-elf/lib\libc.a(lib_a-vfprintf.o)
 .debug_loc     0x00005748       0x97 c:/develop/altera/12.1sp1/nios2eds/bin/gnu/h-i686-mingw32/bin/../lib/gcc/nios2-elf/4.1.2/../../../../nios2-elf/lib\libc.a(lib_a-writer.o)
 .debug_loc     0x000057df       0x7c c:/develop/altera/12.1sp1/nios2eds/bin/gnu/h-i686-mingw32/bin/../lib/gcc/nios2-elf/4.1.2/../../../../nios2-elf/lib\libc.a(lib_a-wsetup.o)
 .debug_loc     0x0000585b       0x5b c:/develop/altera/12.1sp1/nios2eds/bin/gnu/h-i686-mingw32/bin/../lib/gcc/nios2-elf/4.1.2/../../../../nios2-elf/lib\libc.a(lib_a-closer.o)
 .debug_loc     0x000058b6     0x1dfa c:/develop/altera/12.1sp1/nios2eds/bin/gnu/h-i686-mingw32/bin/../lib/gcc/nios2-elf/4.1.2/../../../../nios2-elf/lib\libc.a(lib_a-dtoa.o)
 .debug_loc     0x000076b0       0xa4 c:/develop/altera/12.1sp1/nios2eds/bin/gnu/h-i686-mingw32/bin/../lib/gcc/nios2-elf/4.1.2/../../../../nios2-elf/lib\libc.a(lib_a-flags.o)
 .debug_loc     0x00007754      0x4e4 c:/develop/altera/12.1sp1/nios2eds/bin/gnu/h-i686-mingw32/bin/../lib/gcc/nios2-elf/4.1.2/../../../../nios2-elf/lib\libc.a(lib_a-fvwrite.o)
 .debug_loc     0x00007c38       0x5b c:/develop/altera/12.1sp1/nios2eds/bin/gnu/h-i686-mingw32/bin/../lib/gcc/nios2-elf/4.1.2/../../../../nios2-elf/lib\libc.a(lib_a-isattyr.o)
 .debug_loc     0x00007c93       0xe1 c:/develop/altera/12.1sp1/nios2eds/bin/gnu/h-i686-mingw32/bin/../lib/gcc/nios2-elf/4.1.2/../../../../nios2-elf/lib\libc.a(lib_a-locale.o)
 .debug_loc     0x00007d74       0x97 c:/develop/altera/12.1sp1/nios2eds/bin/gnu/h-i686-mingw32/bin/../lib/gcc/nios2-elf/4.1.2/../../../../nios2-elf/lib\libc.a(lib_a-lseekr.o)
 .debug_loc     0x00007e0b      0x106 c:/develop/altera/12.1sp1/nios2eds/bin/gnu/h-i686-mingw32/bin/../lib/gcc/nios2-elf/4.1.2/../../../../nios2-elf/lib\libc.a(lib_a-memchr.o)
 .debug_loc     0x00007f11      0x117 c:/develop/altera/12.1sp1/nios2eds/bin/gnu/h-i686-mingw32/bin/../lib/gcc/nios2-elf/4.1.2/../../../../nios2-elf/lib\libc.a(lib_a-memmove.o)
 .debug_loc     0x00008028     0x14d6 c:/develop/altera/12.1sp1/nios2eds/bin/gnu/h-i686-mingw32/bin/../lib/gcc/nios2-elf/4.1.2/../../../../nios2-elf/lib\libc.a(lib_a-mprec.o)
 .debug_loc     0x000094fe       0x97 c:/develop/altera/12.1sp1/nios2eds/bin/gnu/h-i686-mingw32/bin/../lib/gcc/nios2-elf/4.1.2/../../../../nios2-elf/lib\libc.a(lib_a-readr.o)
 .debug_loc     0x00009595      0x8c0 c:/develop/altera/12.1sp1/nios2eds/bin/gnu/h-i686-mingw32/bin/../lib/gcc/nios2-elf/4.1.2/../../../../nios2-elf/lib\libc.a(lib_a-reallocr.o)
 .debug_loc     0x00009e55       0x36 c:/develop/altera/12.1sp1/nios2eds/bin/gnu/h-i686-mingw32/bin/../lib/gcc/nios2-elf/4.1.2/../../../../nios2-elf/lib\libc.a(lib_a-s_isinfd.o)
 .debug_loc     0x00009e8b       0x18 c:/develop/altera/12.1sp1/nios2eds/bin/gnu/h-i686-mingw32/bin/../lib/gcc/nios2-elf/4.1.2/../../../../nios2-elf/lib\libc.a(lib_a-s_isnand.o)
 .debug_loc     0x00009ea3       0x65 c:/develop/altera/12.1sp1/nios2eds/bin/gnu/h-i686-mingw32/bin/../lib/gcc/nios2-elf/4.1.2/../../../../nios2-elf/lib\libc.a(lib_a-strcmp.o)
 .debug_loc     0x00009f08       0xe9 c:/develop/altera/12.1sp1/nios2eds/bin/gnu/h-i686-mingw32/bin/../lib/gcc/nios2-elf/4.1.2/../../../../nios2-elf/lib\libc.a(lib_a-callocr.o)
 .debug_loc     0x00009ff1      0xc12 c:/develop/altera/12.1sp1/nios2eds/bin/gnu/h-i686-mingw32/bin/../lib/gcc/nios2-elf/4.1.2\libgcc.a(_udivdi3.o)
 .debug_loc     0x0000ac03      0xc26 c:/develop/altera/12.1sp1/nios2eds/bin/gnu/h-i686-mingw32/bin/../lib/gcc/nios2-elf/4.1.2\libgcc.a(_umoddi3.o)
 .debug_loc     0x0000b829      0x47a c:/develop/altera/12.1sp1/nios2eds/bin/gnu/h-i686-mingw32/bin/../lib/gcc/nios2-elf/4.1.2\libgcc.a(_addsub_df.o)
 .debug_loc     0x0000bca3      0x3b4 c:/develop/altera/12.1sp1/nios2eds/bin/gnu/h-i686-mingw32/bin/../lib/gcc/nios2-elf/4.1.2\libgcc.a(_mul_df.o)
 .debug_loc     0x0000c057      0x1df c:/develop/altera/12.1sp1/nios2eds/bin/gnu/h-i686-mingw32/bin/../lib/gcc/nios2-elf/4.1.2\libgcc.a(_div_df.o)
 .debug_loc     0x0000c236       0x70 c:/develop/altera/12.1sp1/nios2eds/bin/gnu/h-i686-mingw32/bin/../lib/gcc/nios2-elf/4.1.2\libgcc.a(_eq_df.o)
 .debug_loc     0x0000c2a6       0x70 c:/develop/altera/12.1sp1/nios2eds/bin/gnu/h-i686-mingw32/bin/../lib/gcc/nios2-elf/4.1.2\libgcc.a(_ne_df.o)
 .debug_loc     0x0000c316       0x70 c:/develop/altera/12.1sp1/nios2eds/bin/gnu/h-i686-mingw32/bin/../lib/gcc/nios2-elf/4.1.2\libgcc.a(_gt_df.o)
 .debug_loc     0x0000c386       0x70 c:/develop/altera/12.1sp1/nios2eds/bin/gnu/h-i686-mingw32/bin/../lib/gcc/nios2-elf/4.1.2\libgcc.a(_ge_df.o)
 .debug_loc     0x0000c3f6       0x70 c:/develop/altera/12.1sp1/nios2eds/bin/gnu/h-i686-mingw32/bin/../lib/gcc/nios2-elf/4.1.2\libgcc.a(_lt_df.o)
 .debug_loc     0x0000c466       0x9a c:/develop/altera/12.1sp1/nios2eds/bin/gnu/h-i686-mingw32/bin/../lib/gcc/nios2-elf/4.1.2\libgcc.a(_si_to_df.o)
 .debug_loc     0x0000c500       0x8b c:/develop/altera/12.1sp1/nios2eds/bin/gnu/h-i686-mingw32/bin/../lib/gcc/nios2-elf/4.1.2\libgcc.a(_df_to_si.o)
 .debug_loc     0x0000c58b       0x5b c:/develop/altera/12.1sp1/nios2eds/bin/gnu/h-i686-mingw32/bin/../lib/gcc/nios2-elf/4.1.2\libgcc.a(_usi_to_df.o)
 .debug_loc     0x0000c5e6      0x1d2 c:/develop/altera/12.1sp1/nios2eds/bin/gnu/h-i686-mingw32/bin/../lib/gcc/nios2-elf/4.1.2\libgcc.a(lib2-divmod.o)
 .debug_loc     0x0000c7b8       0xc4 c:/develop/altera/12.1sp1/nios2eds/bin/gnu/h-i686-mingw32/bin/../lib/gcc/nios2-elf/4.1.2\libgcc.a(_muldi3.o)
 .debug_loc     0x0000c87c       0x1e c:/develop/altera/12.1sp1/nios2eds/bin/gnu/h-i686-mingw32/bin/../lib/gcc/nios2-elf/4.1.2\libgcc.a(_clzsi2.o)
 .debug_loc     0x0000c89a      0x184 c:/develop/altera/12.1sp1/nios2eds/bin/gnu/h-i686-mingw32/bin/../lib/gcc/nios2-elf/4.1.2\libgcc.a(_pack_df.o)
 .debug_loc     0x0000ca1e       0xe5 c:/develop/altera/12.1sp1/nios2eds/bin/gnu/h-i686-mingw32/bin/../lib/gcc/nios2-elf/4.1.2\libgcc.a(_unpack_df.o)
 .debug_loc     0x0000cb03       0xdc ../bmp_test_bsp/\libhal_bsp.a(alt_close.o)
 .debug_loc     0x0000cbdf       0x70 ../bmp_test_bsp/\libhal_bsp.a(alt_dcache_flush.o)
 .debug_loc     0x0000cc4f       0x9a ../bmp_test_bsp/\libhal_bsp.a(alt_fstat.o)
 .debug_loc     0x0000cce9       0x67 ../bmp_test_bsp/\libhal_bsp.a(alt_isatty.o)
 .debug_loc     0x0000cd50       0xf7 ../bmp_test_bsp/\libhal_bsp.a(alt_lseek.o)
 .debug_loc     0x0000ce47       0x1f ../bmp_test_bsp/\libhal_bsp.a(alt_main.o)
 .debug_loc     0x0000ce66      0x1f3 ../bmp_test_bsp/\libhal_bsp.a(alt_open.o)
 .debug_loc     0x0000d059      0x123 ../bmp_test_bsp/\libhal_bsp.a(alt_read.o)
 .debug_loc     0x0000d17c       0x13 ../bmp_test_bsp/\libhal_bsp.a(alt_sbrk.o)
 .debug_loc     0x0000d18f       0x13 ../bmp_test_bsp/\libhal_bsp.a(alt_usleep.o)
 .debug_loc     0x0000d1a2      0x123 ../bmp_test_bsp/\libhal_bsp.a(alt_write.o)
 .debug_loc     0x0000d2c5       0x51 ../bmp_test_bsp/\libhal_bsp.a(alt_sys_init.o)
 .debug_loc     0x0000d316      0x60b ../bmp_test_bsp/\libhal_bsp.a(altera_avalon_cfi_flash.o)
 .debug_loc     0x0000d921      0x5a8 ../bmp_test_bsp/\libhal_bsp.a(altera_avalon_cfi_flash_table.o)
 .debug_loc     0x0000dec9       0xbe ../bmp_test_bsp/\libhal_bsp.a(altera_avalon_jtag_uart_fd.o)
 .debug_loc     0x0000df87      0x11a ../bmp_test_bsp/\libhal_bsp.a(altera_avalon_jtag_uart_init.o)
 .debug_loc     0x0000e0a1       0x65 ../bmp_test_bsp/\libhal_bsp.a(altera_avalon_jtag_uart_ioctl.o)
 .debug_loc     0x0000e106      0x238 ../bmp_test_bsp/\libhal_bsp.a(altera_avalon_jtag_uart_read.o)
 .debug_loc     0x0000e33e      0x201 ../bmp_test_bsp/\libhal_bsp.a(altera_avalon_jtag_uart_write.o)
 .debug_loc     0x0000e53f       0xdc ../bmp_test_bsp/\libhal_bsp.a(altera_avalon_timer_sc.o)
 .debug_loc     0x0000e61b       0x85 ../bmp_test_bsp/\libhal_bsp.a(altera_avalon_uart_fd.o)
 .debug_loc     0x0000e6a0       0xee ../bmp_test_bsp/\libhal_bsp.a(altera_avalon_uart_init.o)
 .debug_loc     0x0000e78e      0x115 ../bmp_test_bsp/\libhal_bsp.a(altera_avalon_uart_read.o)
 .debug_loc     0x0000e8a3      0x15c ../bmp_test_bsp/\libhal_bsp.a(altera_avalon_uart_write.o)
 .debug_loc     0x0000e9ff       0x65 ../bmp_test_bsp/\libhal_bsp.a(alt_alarm_start.o)
 .debug_loc     0x0000ea64       0x13 ../bmp_test_bsp/\libhal_bsp.a(alt_busy_sleep.o)
 .debug_loc     0x0000ea77       0x5b ../bmp_test_bsp/\libhal_bsp.a(alt_dev_llist_insert.o)
 .debug_loc     0x0000ead2       0x32 ../bmp_test_bsp/\libhal_bsp.a(alt_do_ctors.o)
 .debug_loc     0x0000eb04       0x32 ../bmp_test_bsp/\libhal_bsp.a(alt_do_dtors.o)
 .debug_loc     0x0000eb36       0x8f ../bmp_test_bsp/\libhal_bsp.a(alt_find_dev.o)
 .debug_loc     0x0000ebc5       0xb0 ../bmp_test_bsp/\libhal_bsp.a(alt_find_file.o)
 .debug_loc     0x0000ec75       0xb0 ../bmp_test_bsp/\libhal_bsp.a(alt_flash_dev.o)
 .debug_loc     0x0000ed25       0x29 ../bmp_test_bsp/\libhal_bsp.a(alt_get_fd.o)
 .debug_loc     0x0000ed4e       0x72 ../bmp_test_bsp/\libhal_bsp.a(alt_iic.o)
 .debug_loc     0x0000edc0       0xde ../bmp_test_bsp/\libhal_bsp.a(alt_iic_isr_register.o)
 .debug_loc     0x0000ee9e      0x144 ../bmp_test_bsp/\libhal_bsp.a(alt_io_redirect.o)
 .debug_loc     0x0000efe2       0x6e ../bmp_test_bsp/\libhal_bsp.a(alt_irq_handler.o)
 .debug_loc     0x0000f050       0x7c ../bmp_test_bsp/\libhal_bsp.a(alt_tick.o)
 .debug_loc     0x0000f0cc      0x25b ../bmp_test_bsp/\libhal_bsp.a(altera_avalon_cfi_flash_amd.o)
 .debug_loc     0x0000f327      0x3bd ../bmp_test_bsp/\libhal_bsp.a(altera_avalon_cfi_flash_intel.o)
 .debug_loc     0x0000f6e4       0x1e c:/develop/altera/12.1sp1/nios2eds/bin/gnu/h-i686-mingw32/bin/../lib/gcc/nios2-elf/4.1.2/../../../../nios2-elf/lib\libc.a(lib_a-atexit.o)
 .debug_loc     0x0000f702       0x3d c:/develop/altera/12.1sp1/nios2eds/bin/gnu/h-i686-mingw32/bin/../lib/gcc/nios2-elf/4.1.2/../../../../nios2-elf/lib\libc.a(lib_a-exit.o)
 .debug_loc     0x0000f73f      0x114 c:/develop/altera/12.1sp1/nios2eds/bin/gnu/h-i686-mingw32/bin/../lib/gcc/nios2-elf/4.1.2/../../../../nios2-elf/lib\libc.a(lib_a-memcmp.o)
 .debug_loc     0x0000f853      0x120 c:/develop/altera/12.1sp1/nios2eds/bin/gnu/h-i686-mingw32/bin/../lib/gcc/nios2-elf/4.1.2/../../../../nios2-elf/lib\libc.a(lib_a-__atexit.o)
 .debug_loc     0x0000f973      0x1cb c:/develop/altera/12.1sp1/nios2eds/bin/gnu/h-i686-mingw32/bin/../lib/gcc/nios2-elf/4.1.2/../../../../nios2-elf/lib\libc.a(lib_a-__call_atexit.o)

.debug_macinfo
 *(.debug_macinfo)

.debug_weaknames
 *(.debug_weaknames)

.debug_funcnames
 *(.debug_funcnames)

.debug_typenames
 *(.debug_typenames)

.debug_varnames
 *(.debug_varnames)

.debug_alt_sim_info
                0x00000000       0x50
 *(.debug_alt_sim_info)
 .debug_alt_sim_info
                0x00000000       0x20 ../bmp_test_bsp//obj/HAL/src/crt0.o
 .debug_alt_sim_info
                0x00000020       0x30 ../bmp_test_bsp/\libhal_bsp.a(alt_busy_sleep.o)
                0x00800000                __alt_data_end = 0x800000
                0x00800000                PROVIDE (__alt_stack_pointer, __alt_data_end)
                0x0004d844                PROVIDE (__alt_stack_limit, __alt_stack_base)
                0x0004d844                PROVIDE (__alt_heap_start, end)
                0x00800000                PROVIDE (__alt_heap_limit, 0x800000)
OUTPUT(bmp_test.elf elf32-littlenios2)

.debug_ranges   0x00000000      0xd28
 .debug_ranges  0x00000000       0x20 c:/develop/altera/12.1sp1/nios2eds/bin/gnu/h-i686-mingw32/bin/../lib/gcc/nios2-elf/4.1.2/../../../../nios2-elf/lib\libc.a(lib_a-fflush.o)
 .debug_ranges  0x00000020       0x18 c:/develop/altera/12.1sp1/nios2eds/bin/gnu/h-i686-mingw32/bin/../lib/gcc/nios2-elf/4.1.2/../../../../nios2-elf/lib\libc.a(lib_a-fread.o)
 .debug_ranges  0x00000038       0xa0 c:/develop/altera/12.1sp1/nios2eds/bin/gnu/h-i686-mingw32/bin/../lib/gcc/nios2-elf/4.1.2/../../../../nios2-elf/lib\libc.a(lib_a-fwalk.o)
 .debug_ranges  0x000000d8       0x70 c:/develop/altera/12.1sp1/nios2eds/bin/gnu/h-i686-mingw32/bin/../lib/gcc/nios2-elf/4.1.2/../../../../nios2-elf/lib\libc.a(lib_a-mallocr.o)
 .debug_ranges  0x00000148      0x168 c:/develop/altera/12.1sp1/nios2eds/bin/gnu/h-i686-mingw32/bin/../lib/gcc/nios2-elf/4.1.2/../../../../nios2-elf/lib\libc.a(lib_a-vfprintf.o)
 .debug_ranges  0x000002b0       0x28 c:/develop/altera/12.1sp1/nios2eds/bin/gnu/h-i686-mingw32/bin/../lib/gcc/nios2-elf/4.1.2/../../../../nios2-elf/lib\libc.a(lib_a-fvwrite.o)
 .debug_ranges  0x000002d8      0x110 c:/develop/altera/12.1sp1/nios2eds/bin/gnu/h-i686-mingw32/bin/../lib/gcc/nios2-elf/4.1.2/../../../../nios2-elf/lib\libc.a(lib_a-reallocr.o)
 .debug_ranges  0x000003e8       0x38 c:/develop/altera/12.1sp1/nios2eds/bin/gnu/h-i686-mingw32/bin/../lib/gcc/nios2-elf/4.1.2/../../../../nios2-elf/lib\libc.a(lib_a-callocr.o)
 .debug_ranges  0x00000420      0x188 c:/develop/altera/12.1sp1/nios2eds/bin/gnu/h-i686-mingw32/bin/../lib/gcc/nios2-elf/4.1.2\libgcc.a(_udivdi3.o)
 .debug_ranges  0x000005a8      0x198 c:/develop/altera/12.1sp1/nios2eds/bin/gnu/h-i686-mingw32/bin/../lib/gcc/nios2-elf/4.1.2\libgcc.a(_umoddi3.o)
 .debug_ranges  0x00000740       0x30 c:/develop/altera/12.1sp1/nios2eds/bin/gnu/h-i686-mingw32/bin/../lib/gcc/nios2-elf/4.1.2\libgcc.a(_addsub_df.o)
 .debug_ranges  0x00000770       0x88 c:/develop/altera/12.1sp1/nios2eds/bin/gnu/h-i686-mingw32/bin/../lib/gcc/nios2-elf/4.1.2\libgcc.a(_mul_df.o)
 .debug_ranges  0x000007f8       0x50 c:/develop/altera/12.1sp1/nios2eds/bin/gnu/h-i686-mingw32/bin/../lib/gcc/nios2-elf/4.1.2\libgcc.a(_div_df.o)
 .debug_ranges  0x00000848       0x18 c:/develop/altera/12.1sp1/nios2eds/bin/gnu/h-i686-mingw32/bin/../lib/gcc/nios2-elf/4.1.2\libgcc.a(_usi_to_df.o)
 .debug_ranges  0x00000860       0x68 c:/develop/altera/12.1sp1/nios2eds/bin/gnu/h-i686-mingw32/bin/../lib/gcc/nios2-elf/4.1.2\libgcc.a(_muldi3.o)
 .debug_ranges  0x000008c8       0x28 c:/develop/altera/12.1sp1/nios2eds/bin/gnu/h-i686-mingw32/bin/../lib/gcc/nios2-elf/4.1.2\libgcc.a(_clzsi2.o)
 .debug_ranges  0x000008f0       0x28 c:/develop/altera/12.1sp1/nios2eds/bin/gnu/h-i686-mingw32/bin/../lib/gcc/nios2-elf/4.1.2\libgcc.a(_pack_df.o)
 .debug_ranges  0x00000918       0x30 ../bmp_test_bsp/\libhal_bsp.a(alt_close.o)
 .debug_ranges  0x00000948       0x18 ../bmp_test_bsp/\libhal_bsp.a(alt_fs_reg.o)
 .debug_ranges  0x00000960       0x18 ../bmp_test_bsp/\libhal_bsp.a(alt_lseek.o)
 .debug_ranges  0x00000978       0x18 ../bmp_test_bsp/\libhal_bsp.a(alt_open.o)
 .debug_ranges  0x00000990       0x48 ../bmp_test_bsp/\libhal_bsp.a(alt_read.o)
 .debug_ranges  0x000009d8       0x48 ../bmp_test_bsp/\libhal_bsp.a(alt_write.o)
 .debug_ranges  0x00000a20       0x30 ../bmp_test_bsp/\libhal_bsp.a(alt_sys_init.o)
 .debug_ranges  0x00000a50       0x18 ../bmp_test_bsp/\libhal_bsp.a(altera_avalon_cfi_flash.o)
 .debug_ranges  0x00000a68       0x18 ../bmp_test_bsp/\libhal_bsp.a(altera_avalon_jtag_uart_init.o)
 .debug_ranges  0x00000a80       0x18 ../bmp_test_bsp/\libhal_bsp.a(altera_avalon_jtag_uart_ioctl.o)
 .debug_ranges  0x00000a98       0x18 ../bmp_test_bsp/\libhal_bsp.a(altera_avalon_jtag_uart_read.o)
 .debug_ranges  0x00000ab0       0x48 ../bmp_test_bsp/\libhal_bsp.a(altera_avalon_jtag_uart_write.o)
 .debug_ranges  0x00000af8       0x18 ../bmp_test_bsp/\libhal_bsp.a(altera_avalon_timer_sc.o)
 .debug_ranges  0x00000b10       0x58 ../bmp_test_bsp/\libhal_bsp.a(altera_avalon_uart_init.o)
 .debug_ranges  0x00000b68       0x60 ../bmp_test_bsp/\libhal_bsp.a(altera_avalon_uart_read.o)
 .debug_ranges  0x00000bc8       0x18 ../bmp_test_bsp/\libhal_bsp.a(altera_avalon_uart_write.o)
 .debug_ranges  0x00000be0       0x18 ../bmp_test_bsp/\libhal_bsp.a(alt_dev_llist_insert.o)
 .debug_ranges  0x00000bf8       0x18 ../bmp_test_bsp/\libhal_bsp.a(alt_iic_isr_register.o)
 .debug_ranges  0x00000c10       0x28 ../bmp_test_bsp/\libhal_bsp.a(alt_irq_entry.o)
 .debug_ranges  0x00000c38       0x40 ../bmp_test_bsp/\libhal_bsp.a(alt_irq_handler.o)
 .debug_ranges  0x00000c78       0x68 ../bmp_test_bsp/\libhal_bsp.a(altera_avalon_cfi_flash_amd.o)
 .debug_ranges  0x00000ce0       0x30 ../bmp_test_bsp/\libhal_bsp.a(alt_exception_entry.o)
 .debug_ranges  0x00000d10       0x18 c:/develop/altera/12.1sp1/nios2eds/bin/gnu/h-i686-mingw32/bin/../lib/gcc/nios2-elf/4.1.2/../../../../nios2-elf/lib\libc.a(lib_a-__call_atexit.o)
